
Lab5.elf:     file format elf32-littlearm

Sections:
Idx Name          Size      VMA       LMA       File off  Algn
  0 .isr_vector   00000194  08000000  08000000  00010000  2**0
                  CONTENTS, ALLOC, LOAD, READONLY, DATA
  1 .text         0000103c  08000194  08000194  00010194  2**2
                  CONTENTS, ALLOC, LOAD, READONLY, CODE
  2 .rodata       00000000  080011d0  080011d0  00020024  2**0
                  CONTENTS, ALLOC, LOAD, DATA
  3 .ARM.extab    00000000  080011d0  080011d0  00020024  2**0
                  CONTENTS
  4 .ARM          00000000  080011d0  080011d0  00020024  2**0
                  CONTENTS
  5 .preinit_array 00000000  080011d0  080011d0  00020024  2**0
                  CONTENTS, ALLOC, LOAD, DATA
  6 .init_array   00000004  080011d0  080011d0  000111d0  2**2
                  CONTENTS, ALLOC, LOAD, DATA
  7 .fini_array   00000004  080011d4  080011d4  000111d4  2**2
                  CONTENTS, ALLOC, LOAD, DATA
  8 .data         00000024  20000000  080011d8  00020000  2**2
                  CONTENTS, ALLOC, LOAD, DATA
  9 .bss          00000020  20000024  080011fc  00020024  2**2
                  ALLOC
 10 ._user_heap_stack 00000604  20000044  080011fc  00020044  2**0
                  ALLOC
 11 .ARM.attributes 00000030  00000000  00000000  00020024  2**0
                  CONTENTS, READONLY
 12 .debug_info   000032a0  00000000  00000000  00020054  2**0
                  CONTENTS, READONLY, DEBUGGING, OCTETS
 13 .debug_abbrev 00000a35  00000000  00000000  000232f4  2**0
                  CONTENTS, READONLY, DEBUGGING, OCTETS
 14 .debug_aranges 00000458  00000000  00000000  00023d30  2**3
                  CONTENTS, READONLY, DEBUGGING, OCTETS
 15 .debug_ranges 000003f0  00000000  00000000  00024188  2**3
                  CONTENTS, READONLY, DEBUGGING, OCTETS
 16 .debug_macro  0000c8b5  00000000  00000000  00024578  2**0
                  CONTENTS, READONLY, DEBUGGING, OCTETS
 17 .debug_line   0000285f  00000000  00000000  00030e2d  2**0
                  CONTENTS, READONLY, DEBUGGING, OCTETS
 18 .debug_str    0003e3b3  00000000  00000000  0003368c  2**0
                  CONTENTS, READONLY, DEBUGGING, OCTETS
 19 .comment      000000ce  00000000  00000000  00071a3f  2**0
                  CONTENTS, READONLY
 20 .debug_frame  0000122c  00000000  00000000  00071b10  2**2
                  CONTENTS, READONLY, DEBUGGING, OCTETS

Disassembly of section .text:

08000194 <__do_global_dtors_aux>:
 8000194:	b510      	push	{r4, lr}
 8000196:	4c05      	ldr	r4, [pc, #20]	; (80001ac <__do_global_dtors_aux+0x18>)
 8000198:	7823      	ldrb	r3, [r4, #0]
 800019a:	b933      	cbnz	r3, 80001aa <__do_global_dtors_aux+0x16>
 800019c:	4b04      	ldr	r3, [pc, #16]	; (80001b0 <__do_global_dtors_aux+0x1c>)
 800019e:	b113      	cbz	r3, 80001a6 <__do_global_dtors_aux+0x12>
 80001a0:	4804      	ldr	r0, [pc, #16]	; (80001b4 <__do_global_dtors_aux+0x20>)
 80001a2:	f3af 8000 	nop.w
 80001a6:	2301      	movs	r3, #1
 80001a8:	7023      	strb	r3, [r4, #0]
 80001aa:	bd10      	pop	{r4, pc}
 80001ac:	20000024 	.word	0x20000024
 80001b0:	00000000 	.word	0x00000000
 80001b4:	080011b8 	.word	0x080011b8

080001b8 <frame_dummy>:
 80001b8:	b508      	push	{r3, lr}
 80001ba:	4b03      	ldr	r3, [pc, #12]	; (80001c8 <frame_dummy+0x10>)
 80001bc:	b11b      	cbz	r3, 80001c6 <frame_dummy+0xe>
 80001be:	4903      	ldr	r1, [pc, #12]	; (80001cc <frame_dummy+0x14>)
 80001c0:	4803      	ldr	r0, [pc, #12]	; (80001d0 <frame_dummy+0x18>)
 80001c2:	f3af 8000 	nop.w
 80001c6:	bd08      	pop	{r3, pc}
 80001c8:	00000000 	.word	0x00000000
 80001cc:	20000028 	.word	0x20000028
 80001d0:	080011b8 	.word	0x080011b8

080001d4 <I2CMaster_Init>:
#define I2C_MASTER_PORT			GPIOA
#define SDA_MASTER_PIN			GPIO_Pin_9 // PC9
#define SCL_MASTER_PIN			GPIO_Pin_8 // PA8

uint8_t Data_Receive = 0;
void I2CMaster_Init(void){
 80001d4:	b580      	push	{r7, lr}
 80001d6:	b086      	sub	sp, #24
 80001d8:	af00      	add	r7, sp, #0
	I2C_InitTypeDef  I2C_InitStruct;
	GPIO_InitTypeDef GPIO_InitStruct;

	RCC_APB1PeriphClockCmd(I2C_MASTER_RCC, ENABLE);
 80001da:	2101      	movs	r1, #1
 80001dc:	f44f 0000 	mov.w	r0, #8388608	; 0x800000
 80001e0:	f000 ffa6 	bl	8001130 <RCC_APB1PeriphClockCmd>
	RCC_AHB1PeriphClockCmd(I2C_MASTER_GPIO_RCC, ENABLE);
 80001e4:	2101      	movs	r1, #1
 80001e6:	2001      	movs	r0, #1
 80001e8:	f000 ff82 	bl	80010f0 <RCC_AHB1PeriphClockCmd>
	RCC_AHB1PeriphClockCmd(RCC_AHB1Periph_GPIOB, ENABLE);
 80001ec:	2101      	movs	r1, #1
 80001ee:	2002      	movs	r0, #2
 80001f0:	f000 ff7e 	bl	80010f0 <RCC_AHB1PeriphClockCmd>

	GPIO_InitStruct.GPIO_Mode = GPIO_Mode_AF;
 80001f4:	2302      	movs	r3, #2
 80001f6:	713b      	strb	r3, [r7, #4]
	GPIO_InitStruct.GPIO_Speed = GPIO_Speed_50MHz;
 80001f8:	2302      	movs	r3, #2
 80001fa:	717b      	strb	r3, [r7, #5]
	GPIO_InitStruct.GPIO_OType = GPIO_OType_OD;
 80001fc:	2301      	movs	r3, #1
 80001fe:	71bb      	strb	r3, [r7, #6]
	GPIO_InitStruct.GPIO_PuPd = GPIO_PuPd_UP;
 8000200:	2301      	movs	r3, #1
 8000202:	71fb      	strb	r3, [r7, #7]

	GPIO_InitStruct.GPIO_Pin = SCL_MASTER_PIN;
 8000204:	f44f 7380 	mov.w	r3, #256	; 0x100
 8000208:	603b      	str	r3, [r7, #0]
	GPIO_Init(GPIOA, &GPIO_InitStruct);
 800020a:	463b      	mov	r3, r7
 800020c:	4619      	mov	r1, r3
 800020e:	4819      	ldr	r0, [pc, #100]	; (8000274 <I2CMaster_Init+0xa0>)
 8000210:	f000 fb60 	bl	80008d4 <GPIO_Init>

	GPIO_InitStruct.GPIO_Pin = SDA_MASTER_PIN;
 8000214:	f44f 7300 	mov.w	r3, #512	; 0x200
 8000218:	603b      	str	r3, [r7, #0]
	GPIO_Init(GPIOC, &GPIO_InitStruct);
 800021a:	463b      	mov	r3, r7
 800021c:	4619      	mov	r1, r3
 800021e:	4816      	ldr	r0, [pc, #88]	; (8000278 <I2CMaster_Init+0xa4>)
 8000220:	f000 fb58 	bl	80008d4 <GPIO_Init>

	// Connect PA8 to I2C3 SCL
	GPIO_PinAFConfig(GPIOA, GPIO_PinSource8, GPIO_AF_I2C3);
 8000224:	2204      	movs	r2, #4
 8000226:	2108      	movs	r1, #8
 8000228:	4812      	ldr	r0, [pc, #72]	; (8000274 <I2CMaster_Init+0xa0>)
 800022a:	f000 fc19 	bl	8000a60 <GPIO_PinAFConfig>

	// Connect PC9 to I2C3 SDA
	GPIO_PinAFConfig(GPIOC, GPIO_PinSource9, GPIO_AF_I2C3);
 800022e:	2204      	movs	r2, #4
 8000230:	2109      	movs	r1, #9
 8000232:	4811      	ldr	r0, [pc, #68]	; (8000278 <I2CMaster_Init+0xa4>)
 8000234:	f000 fc14 	bl	8000a60 <GPIO_PinAFConfig>

	I2C_InitStruct.I2C_ClockSpeed = I2C_SPEED;
 8000238:	4b10      	ldr	r3, [pc, #64]	; (800027c <I2CMaster_Init+0xa8>)
 800023a:	60bb      	str	r3, [r7, #8]
	I2C_InitStruct.I2C_Mode = I2C_Mode_I2C;
 800023c:	2300      	movs	r3, #0
 800023e:	81bb      	strh	r3, [r7, #12]
	I2C_InitStruct.I2C_DutyCycle = I2C_DutyCycle_2;
 8000240:	f64b 73ff 	movw	r3, #49151	; 0xbfff
 8000244:	81fb      	strh	r3, [r7, #14]
	I2C_InitStruct.I2C_OwnAddress1 = 0x00;
 8000246:	2300      	movs	r3, #0
 8000248:	823b      	strh	r3, [r7, #16]
	I2C_InitStruct.I2C_Ack = I2C_Ack_Enable;
 800024a:	f44f 6380 	mov.w	r3, #1024	; 0x400
 800024e:	827b      	strh	r3, [r7, #18]
	I2C_InitStruct.I2C_AcknowledgedAddress = I2C_AcknowledgedAddress_7bit;
 8000250:	f44f 4380 	mov.w	r3, #16384	; 0x4000
 8000254:	82bb      	strh	r3, [r7, #20]

	I2C_Init(I2C_MASTER_INSTANCE, &I2C_InitStruct);
 8000256:	f107 0308 	add.w	r3, r7, #8
 800025a:	4619      	mov	r1, r3
 800025c:	4808      	ldr	r0, [pc, #32]	; (8000280 <I2CMaster_Init+0xac>)
 800025e:	f000 fc49 	bl	8000af4 <I2C_Init>
	I2C_Cmd(I2C_MASTER_INSTANCE, ENABLE);
 8000262:	2101      	movs	r1, #1
 8000264:	4806      	ldr	r0, [pc, #24]	; (8000280 <I2CMaster_Init+0xac>)
 8000266:	f000 fd07 	bl	8000c78 <I2C_Cmd>
}
 800026a:	bf00      	nop
 800026c:	3718      	adds	r7, #24
 800026e:	46bd      	mov	sp, r7
 8000270:	bd80      	pop	{r7, pc}
 8000272:	bf00      	nop
 8000274:	40020000 	.word	0x40020000
 8000278:	40020800 	.word	0x40020800
 800027c:	00061a80 	.word	0x00061a80
 8000280:	40005c00 	.word	0x40005c00

08000284 <I2CSlave_Init>:
void I2CSlave_Init(void){
 8000284:	b580      	push	{r7, lr}
 8000286:	b088      	sub	sp, #32
 8000288:	af00      	add	r7, sp, #0
	I2C_InitTypeDef  I2C_InitStruct;
	GPIO_InitTypeDef GPIO_InitStruct;
	NVIC_InitTypeDef NVIC_InitStruct;

	RCC_AHB1PeriphClockCmd(I2C_SLAVE_GPIO_RCC, ENABLE);
 800028a:	2101      	movs	r1, #1
 800028c:	2002      	movs	r0, #2
 800028e:	f000 ff2f 	bl	80010f0 <RCC_AHB1PeriphClockCmd>

	GPIO_InitStruct.GPIO_Mode = GPIO_Mode_AF;
 8000292:	2302      	movs	r3, #2
 8000294:	733b      	strb	r3, [r7, #12]
	GPIO_InitStruct.GPIO_Speed = GPIO_Speed_50MHz;
 8000296:	2302      	movs	r3, #2
 8000298:	737b      	strb	r3, [r7, #13]
	GPIO_InitStruct.GPIO_OType = GPIO_OType_OD;
 800029a:	2301      	movs	r3, #1
 800029c:	73bb      	strb	r3, [r7, #14]
	GPIO_InitStruct.GPIO_PuPd = GPIO_PuPd_UP;
 800029e:	2301      	movs	r3, #1
 80002a0:	73fb      	strb	r3, [r7, #15]

	GPIO_InitStruct.GPIO_Pin = SCL_SLAVE_PIN | SDA_SLAVE_PIN;
 80002a2:	f44f 7340 	mov.w	r3, #768	; 0x300
 80002a6:	60bb      	str	r3, [r7, #8]
	GPIO_Init(I2C_SLAVE_PORT, &GPIO_InitStruct);
 80002a8:	f107 0308 	add.w	r3, r7, #8
 80002ac:	4619      	mov	r1, r3
 80002ae:	4823      	ldr	r0, [pc, #140]	; (800033c <I2CSlave_Init+0xb8>)
 80002b0:	f000 fb10 	bl	80008d4 <GPIO_Init>

	// Connect PB8 to I2C1 SCL
	GPIO_PinAFConfig(I2C_SLAVE_PORT, GPIO_PinSource8, GPIO_AF_I2C1);
 80002b4:	2204      	movs	r2, #4
 80002b6:	2108      	movs	r1, #8
 80002b8:	4820      	ldr	r0, [pc, #128]	; (800033c <I2CSlave_Init+0xb8>)
 80002ba:	f000 fbd1 	bl	8000a60 <GPIO_PinAFConfig>

	// Connect PB9 to I2C1 SDA
	GPIO_PinAFConfig(I2C_SLAVE_PORT, GPIO_PinSource9, GPIO_AF_I2C1);
 80002be:	2204      	movs	r2, #4
 80002c0:	2109      	movs	r1, #9
 80002c2:	481e      	ldr	r0, [pc, #120]	; (800033c <I2CSlave_Init+0xb8>)
 80002c4:	f000 fbcc 	bl	8000a60 <GPIO_PinAFConfig>

	RCC_APB1PeriphClockCmd(I2C_SLAVE_RCC, ENABLE);
 80002c8:	2101      	movs	r1, #1
 80002ca:	f44f 1000 	mov.w	r0, #2097152	; 0x200000
 80002ce:	f000 ff2f 	bl	8001130 <RCC_APB1PeriphClockCmd>
	I2C_InitStruct.I2C_ClockSpeed = I2C_SPEED;
 80002d2:	4b1b      	ldr	r3, [pc, #108]	; (8000340 <I2CSlave_Init+0xbc>)
 80002d4:	613b      	str	r3, [r7, #16]
	I2C_InitStruct.I2C_Mode = I2C_Mode_I2C;
 80002d6:	2300      	movs	r3, #0
 80002d8:	82bb      	strh	r3, [r7, #20]
	I2C_InitStruct.I2C_DutyCycle = I2C_DutyCycle_2;
 80002da:	f64b 73ff 	movw	r3, #49151	; 0xbfff
 80002de:	82fb      	strh	r3, [r7, #22]
	I2C_InitStruct.I2C_OwnAddress1 = SERIAL_ADR;
 80002e0:	2302      	movs	r3, #2
 80002e2:	833b      	strh	r3, [r7, #24]
	I2C_InitStruct.I2C_Ack = I2C_Ack_Enable;
 80002e4:	f44f 6380 	mov.w	r3, #1024	; 0x400
 80002e8:	837b      	strh	r3, [r7, #26]
	I2C_InitStruct.I2C_AcknowledgedAddress = I2C_AcknowledgedAddress_7bit;
 80002ea:	f44f 4380 	mov.w	r3, #16384	; 0x4000
 80002ee:	83bb      	strh	r3, [r7, #28]

	I2C_Init(I2C_SLAVE_INSTANCE, &I2C_InitStruct);
 80002f0:	f107 0310 	add.w	r3, r7, #16
 80002f4:	4619      	mov	r1, r3
 80002f6:	4813      	ldr	r0, [pc, #76]	; (8000344 <I2CSlave_Init+0xc0>)
 80002f8:	f000 fbfc 	bl	8000af4 <I2C_Init>
	I2C_Cmd(I2C_SLAVE_INSTANCE, ENABLE);
 80002fc:	2101      	movs	r1, #1
 80002fe:	4811      	ldr	r0, [pc, #68]	; (8000344 <I2CSlave_Init+0xc0>)
 8000300:	f000 fcba 	bl	8000c78 <I2C_Cmd>

	I2C_ITConfig(I2C_SLAVE_INSTANCE, I2C_IT_EVT, ENABLE);
 8000304:	2201      	movs	r2, #1
 8000306:	f44f 7100 	mov.w	r1, #512	; 0x200
 800030a:	480e      	ldr	r0, [pc, #56]	; (8000344 <I2CSlave_Init+0xc0>)
 800030c:	f000 fd70 	bl	8000df0 <I2C_ITConfig>
	I2C_ITConfig(I2C_SLAVE_INSTANCE, I2C_IT_BUF, ENABLE);
 8000310:	2201      	movs	r2, #1
 8000312:	f44f 6180 	mov.w	r1, #1024	; 0x400
 8000316:	480b      	ldr	r0, [pc, #44]	; (8000344 <I2CSlave_Init+0xc0>)
 8000318:	f000 fd6a 	bl	8000df0 <I2C_ITConfig>

	NVIC_InitStruct.NVIC_IRQChannel = I2C1_EV_IRQn;
 800031c:	231f      	movs	r3, #31
 800031e:	713b      	strb	r3, [r7, #4]
	NVIC_InitStruct.NVIC_IRQChannelPreemptionPriority = 0;
 8000320:	2300      	movs	r3, #0
 8000322:	717b      	strb	r3, [r7, #5]
	NVIC_InitStruct.NVIC_IRQChannelSubPriority = 0;
 8000324:	2300      	movs	r3, #0
 8000326:	71bb      	strb	r3, [r7, #6]
	NVIC_InitStruct.NVIC_IRQChannelCmd = ENABLE;
 8000328:	2301      	movs	r3, #1
 800032a:	71fb      	strb	r3, [r7, #7]

	NVIC_Init(&NVIC_InitStruct);
 800032c:	1d3b      	adds	r3, r7, #4
 800032e:	4618      	mov	r0, r3
 8000330:	f000 fa6e 	bl	8000810 <NVIC_Init>

}
 8000334:	bf00      	nop
 8000336:	3720      	adds	r7, #32
 8000338:	46bd      	mov	sp, r7
 800033a:	bd80      	pop	{r7, pc}
 800033c:	40020400 	.word	0x40020400
 8000340:	00061a80 	.word	0x00061a80
 8000344:	40005400 	.word	0x40005400

08000348 <I2C1_EV_IRQHandler>:

void I2C1_EV_IRQHandler(void){
 8000348:	b580      	push	{r7, lr}
 800034a:	af00      	add	r7, sp, #0
	switch(I2C_GetLastEvent(I2C_SLAVE_INSTANCE)){
 800034c:	4815      	ldr	r0, [pc, #84]	; (80003a4 <I2C1_EV_IRQHandler+0x5c>)
 800034e:	f000 fda3 	bl	8000e98 <I2C_GetLastEvent>
 8000352:	4603      	mov	r3, r0
 8000354:	4a14      	ldr	r2, [pc, #80]	; (80003a8 <I2C1_EV_IRQHandler+0x60>)
 8000356:	4293      	cmp	r3, r2
 8000358:	d00c      	beq.n	8000374 <I2C1_EV_IRQHandler+0x2c>
 800035a:	4a13      	ldr	r2, [pc, #76]	; (80003a8 <I2C1_EV_IRQHandler+0x60>)
 800035c:	4293      	cmp	r3, r2
 800035e:	d81a      	bhi.n	8000396 <I2C1_EV_IRQHandler+0x4e>
 8000360:	2b10      	cmp	r3, #16
 8000362:	d013      	beq.n	800038c <I2C1_EV_IRQHandler+0x44>
 8000364:	f1b3 1f02 	cmp.w	r3, #131074	; 0x20002
 8000368:	d115      	bne.n	8000396 <I2C1_EV_IRQHandler+0x4e>
	case I2C_EVENT_SLAVE_RECEIVER_ADDRESS_MATCHED:
		// the address sent by the master matches the own address of the periphral
		I2C_ClearFlag(I2C_SLAVE_INSTANCE, I2C_FLAG_ADDR);
 800036a:	4910      	ldr	r1, [pc, #64]	; (80003ac <I2C1_EV_IRQHandler+0x64>)
 800036c:	480d      	ldr	r0, [pc, #52]	; (80003a4 <I2C1_EV_IRQHandler+0x5c>)
 800036e:	f000 fde8 	bl	8000f42 <I2C_ClearFlag>
		break;
 8000372:	e011      	b.n	8000398 <I2C1_EV_IRQHandler+0x50>
	case I2C_EVENT_SLAVE_BYTE_RECEIVED:
		Data_Receive = I2C_ReceiveData(I2C_SLAVE_INSTANCE);
 8000374:	480b      	ldr	r0, [pc, #44]	; (80003a4 <I2C1_EV_IRQHandler+0x5c>)
 8000376:	f000 fd2d 	bl	8000dd4 <I2C_ReceiveData>
 800037a:	4603      	mov	r3, r0
 800037c:	461a      	mov	r2, r3
 800037e:	4b0c      	ldr	r3, [pc, #48]	; (80003b0 <I2C1_EV_IRQHandler+0x68>)
 8000380:	701a      	strb	r2, [r3, #0]
		I2C_ClearFlag(I2C_SLAVE_INSTANCE, I2C_FLAG_RXNE);
 8000382:	490c      	ldr	r1, [pc, #48]	; (80003b4 <I2C1_EV_IRQHandler+0x6c>)
 8000384:	4807      	ldr	r0, [pc, #28]	; (80003a4 <I2C1_EV_IRQHandler+0x5c>)
 8000386:	f000 fddc 	bl	8000f42 <I2C_ClearFlag>
		break;
 800038a:	e005      	b.n	8000398 <I2C1_EV_IRQHandler+0x50>
	case I2C_EVENT_SLAVE_STOP_DETECTED:
		// disable bit stop I2C1
		I2C_AcknowledgeConfig(I2C_SLAVE_INSTANCE, ENABLE);
 800038c:	2101      	movs	r1, #1
 800038e:	4805      	ldr	r0, [pc, #20]	; (80003a4 <I2C1_EV_IRQHandler+0x5c>)
 8000390:	f000 fcf0 	bl	8000d74 <I2C_AcknowledgeConfig>
		break;
 8000394:	e000      	b.n	8000398 <I2C1_EV_IRQHandler+0x50>
	default:
		break;
 8000396:	bf00      	nop
	}
	I2C_ClearITPendingBit(I2C_SLAVE_INSTANCE, I2C_IT_RXNE);
 8000398:	4907      	ldr	r1, [pc, #28]	; (80003b8 <I2C1_EV_IRQHandler+0x70>)
 800039a:	4802      	ldr	r0, [pc, #8]	; (80003a4 <I2C1_EV_IRQHandler+0x5c>)
 800039c:	f000 fde8 	bl	8000f70 <I2C_ClearITPendingBit>
}
 80003a0:	bf00      	nop
 80003a2:	bd80      	pop	{r7, pc}
 80003a4:	40005400 	.word	0x40005400
 80003a8:	00020040 	.word	0x00020040
 80003ac:	10000002 	.word	0x10000002
 80003b0:	20000040 	.word	0x20000040
 80003b4:	10000040 	.word	0x10000040
 80003b8:	06000040 	.word	0x06000040

080003bc <I2C_Start>:
static
void I2C_Start(void)
{
 80003bc:	b580      	push	{r7, lr}
 80003be:	af00      	add	r7, sp, #0
	// wait untill i2Cx is not busy anymore
	while(I2C_GetFlagStatus(I2C_MASTER_INSTANCE, I2C_FLAG_BUSY));
 80003c0:	bf00      	nop
 80003c2:	f44f 3100 	mov.w	r1, #131072	; 0x20000
 80003c6:	480a      	ldr	r0, [pc, #40]	; (80003f0 <I2C_Start+0x34>)
 80003c8:	f000 fd88 	bl	8000edc <I2C_GetFlagStatus>
 80003cc:	4603      	mov	r3, r0
 80003ce:	2b00      	cmp	r3, #0
 80003d0:	d1f7      	bne.n	80003c2 <I2C_Start+0x6>

	// Generate start condition
	I2C_GenerateSTART(I2C_MASTER_INSTANCE, ENABLE);
 80003d2:	2101      	movs	r1, #1
 80003d4:	4806      	ldr	r0, [pc, #24]	; (80003f0 <I2C_Start+0x34>)
 80003d6:	f000 fc6f 	bl	8000cb8 <I2C_GenerateSTART>

	// wait for I2C EV5.
	// It means that the start conditionhas been correctly released
	// on the I2C bus (the bus is free, no other devoces is communicating
	while(!I2C_CheckEvent(I2C_MASTER_INSTANCE, I2C_EVENT_MASTER_MODE_SELECT));
 80003da:	bf00      	nop
 80003dc:	4905      	ldr	r1, [pc, #20]	; (80003f4 <I2C_Start+0x38>)
 80003de:	4804      	ldr	r0, [pc, #16]	; (80003f0 <I2C_Start+0x34>)
 80003e0:	f000 fd2a 	bl	8000e38 <I2C_CheckEvent>
 80003e4:	4603      	mov	r3, r0
 80003e6:	2b00      	cmp	r3, #0
 80003e8:	d0f8      	beq.n	80003dc <I2C_Start+0x20>
}
 80003ea:	bf00      	nop
 80003ec:	bf00      	nop
 80003ee:	bd80      	pop	{r7, pc}
 80003f0:	40005c00 	.word	0x40005c00
 80003f4:	00030001 	.word	0x00030001

080003f8 <I2C_SendAddress>:
static
void I2C_SendAddress(uint8_t address){
 80003f8:	b580      	push	{r7, lr}
 80003fa:	b082      	sub	sp, #8
 80003fc:	af00      	add	r7, sp, #0
 80003fe:	4603      	mov	r3, r0
 8000400:	71fb      	strb	r3, [r7, #7]
	I2C_Send7bitAddress(I2C_MASTER_INSTANCE, address, I2C_Direction_Transmitter);
 8000402:	79fb      	ldrb	r3, [r7, #7]
 8000404:	2200      	movs	r2, #0
 8000406:	4619      	mov	r1, r3
 8000408:	4807      	ldr	r0, [pc, #28]	; (8000428 <I2C_SendAddress+0x30>)
 800040a:	f000 fc95 	bl	8000d38 <I2C_Send7bitAddress>
	while(!I2C_CheckEvent(I2C_MASTER_INSTANCE, I2C_EVENT_MASTER_TRANSMITTER_MODE_SELECTED));
 800040e:	bf00      	nop
 8000410:	4906      	ldr	r1, [pc, #24]	; (800042c <I2C_SendAddress+0x34>)
 8000412:	4805      	ldr	r0, [pc, #20]	; (8000428 <I2C_SendAddress+0x30>)
 8000414:	f000 fd10 	bl	8000e38 <I2C_CheckEvent>
 8000418:	4603      	mov	r3, r0
 800041a:	2b00      	cmp	r3, #0
 800041c:	d0f8      	beq.n	8000410 <I2C_SendAddress+0x18>
}
 800041e:	bf00      	nop
 8000420:	bf00      	nop
 8000422:	3708      	adds	r7, #8
 8000424:	46bd      	mov	sp, r7
 8000426:	bd80      	pop	{r7, pc}
 8000428:	40005c00 	.word	0x40005c00
 800042c:	00070082 	.word	0x00070082

08000430 <I2C_TransmitData>:
static
void I2C_TransmitData(uint8_t data){
 8000430:	b580      	push	{r7, lr}
 8000432:	b082      	sub	sp, #8
 8000434:	af00      	add	r7, sp, #0
 8000436:	4603      	mov	r3, r0
 8000438:	71fb      	strb	r3, [r7, #7]
	// Send data byte
	I2C_SendData(I2C_MASTER_INSTANCE, data);
 800043a:	79fb      	ldrb	r3, [r7, #7]
 800043c:	4619      	mov	r1, r3
 800043e:	4808      	ldr	r0, [pc, #32]	; (8000460 <I2C_TransmitData+0x30>)
 8000440:	f000 fcb8 	bl	8000db4 <I2C_SendData>
	// wait for I2C Ev8_2
	// It means that the data has been physically shfted out and out put the bus
	while(!I2C_CheckEvent(I2C_MASTER_INSTANCE, I2C_EVENT_MASTER_BYTE_TRANSMITTED));
 8000444:	bf00      	nop
 8000446:	4907      	ldr	r1, [pc, #28]	; (8000464 <I2C_TransmitData+0x34>)
 8000448:	4805      	ldr	r0, [pc, #20]	; (8000460 <I2C_TransmitData+0x30>)
 800044a:	f000 fcf5 	bl	8000e38 <I2C_CheckEvent>
 800044e:	4603      	mov	r3, r0
 8000450:	2b00      	cmp	r3, #0
 8000452:	d0f8      	beq.n	8000446 <I2C_TransmitData+0x16>
}
 8000454:	bf00      	nop
 8000456:	bf00      	nop
 8000458:	3708      	adds	r7, #8
 800045a:	46bd      	mov	sp, r7
 800045c:	bd80      	pop	{r7, pc}
 800045e:	bf00      	nop
 8000460:	40005c00 	.word	0x40005c00
 8000464:	00070084 	.word	0x00070084

08000468 <I2C_Stop>:
void I2C_Stop(void){
 8000468:	b580      	push	{r7, lr}
 800046a:	af00      	add	r7, sp, #0
	// generate I2C stop condition
	I2C_GenerateSTOP(I2C_MASTER_INSTANCE, ENABLE);
 800046c:	2101      	movs	r1, #1
 800046e:	4802      	ldr	r0, [pc, #8]	; (8000478 <I2C_Stop+0x10>)
 8000470:	f000 fc42 	bl	8000cf8 <I2C_GenerateSTOP>
}
 8000474:	bf00      	nop
 8000476:	bd80      	pop	{r7, pc}
 8000478:	40005c00 	.word	0x40005c00

0800047c <Led_Init>:
void Led_Init()
{
 800047c:	b580      	push	{r7, lr}
 800047e:	b082      	sub	sp, #8
 8000480:	af00      	add	r7, sp, #0
	GPIO_InitTypeDef GPIO_InitStructure;
	RCC_AHB1PeriphClockCmd(LED_IND_GPIO_RCC, ENABLE);
 8000482:	2101      	movs	r1, #1
 8000484:	2001      	movs	r0, #1
 8000486:	f000 fe33 	bl	80010f0 <RCC_AHB1PeriphClockCmd>
	GPIO_InitStructure.GPIO_Pin = LED_IND_PIN;
 800048a:	2320      	movs	r3, #32
 800048c:	603b      	str	r3, [r7, #0]
	GPIO_InitStructure.GPIO_Mode = GPIO_Mode_OUT;
 800048e:	2301      	movs	r3, #1
 8000490:	713b      	strb	r3, [r7, #4]
	GPIO_InitStructure.GPIO_OType = GPIO_OType_PP;
 8000492:	2300      	movs	r3, #0
 8000494:	71bb      	strb	r3, [r7, #6]
	GPIO_InitStructure.GPIO_Speed =  GPIO_Speed_100MHz;
 8000496:	2303      	movs	r3, #3
 8000498:	717b      	strb	r3, [r7, #5]
	GPIO_InitStructure.GPIO_PuPd = GPIO_PuPd_DOWN;
 800049a:	2302      	movs	r3, #2
 800049c:	71fb      	strb	r3, [r7, #7]

	GPIO_Init(LED_IND_PORT, &GPIO_InitStructure);
 800049e:	463b      	mov	r3, r7
 80004a0:	4619      	mov	r1, r3
 80004a2:	4803      	ldr	r0, [pc, #12]	; (80004b0 <Led_Init+0x34>)
 80004a4:	f000 fa16 	bl	80008d4 <GPIO_Init>
}
 80004a8:	bf00      	nop
 80004aa:	3708      	adds	r7, #8
 80004ac:	46bd      	mov	sp, r7
 80004ae:	bd80      	pop	{r7, pc}
 80004b0:	40020000 	.word	0x40020000

080004b4 <Button_Init>:
void Button_Init(void){
 80004b4:	b580      	push	{r7, lr}
 80004b6:	b082      	sub	sp, #8
 80004b8:	af00      	add	r7, sp, #0
	GPIO_InitTypeDef GPIO_InitStructure;
	RCC_AHB1PeriphClockCmd(BUTTON_CFG_GPIO_RCC, ENABLE);
 80004ba:	2101      	movs	r1, #1
 80004bc:	2004      	movs	r0, #4
 80004be:	f000 fe17 	bl	80010f0 <RCC_AHB1PeriphClockCmd>
	GPIO_InitStructure.GPIO_Pin = BUTTON_CFG_PIN;
 80004c2:	f44f 5300 	mov.w	r3, #8192	; 0x2000
 80004c6:	603b      	str	r3, [r7, #0]
	GPIO_InitStructure.GPIO_Mode = GPIO_Mode_IN;
 80004c8:	2300      	movs	r3, #0
 80004ca:	713b      	strb	r3, [r7, #4]
	GPIO_InitStructure.GPIO_Speed = GPIO_Speed_100MHz;
 80004cc:	2303      	movs	r3, #3
 80004ce:	717b      	strb	r3, [r7, #5]
	GPIO_InitStructure.GPIO_PuPd = GPIO_PuPd_UP;
 80004d0:	2301      	movs	r3, #1
 80004d2:	71fb      	strb	r3, [r7, #7]

	GPIO_Init(BUTTON_CFG_PORT, &GPIO_InitStructure);
 80004d4:	463b      	mov	r3, r7
 80004d6:	4619      	mov	r1, r3
 80004d8:	4803      	ldr	r0, [pc, #12]	; (80004e8 <Button_Init+0x34>)
 80004da:	f000 f9fb 	bl	80008d4 <GPIO_Init>
}
 80004de:	bf00      	nop
 80004e0:	3708      	adds	r7, #8
 80004e2:	46bd      	mov	sp, r7
 80004e4:	bd80      	pop	{r7, pc}
 80004e6:	bf00      	nop
 80004e8:	40020800 	.word	0x40020800

080004ec <Delay_ms>:
void Delay_ms(uint32_t milliseconds){
 80004ec:	b480      	push	{r7}
 80004ee:	b085      	sub	sp, #20
 80004f0:	af00      	add	r7, sp, #0
 80004f2:	6078      	str	r0, [r7, #4]
	for(int i = 0; i < milliseconds; i++){
 80004f4:	2300      	movs	r3, #0
 80004f6:	60fb      	str	r3, [r7, #12]
 80004f8:	e00d      	b.n	8000516 <Delay_ms+0x2a>
		for(int j = 0; j < 5000; j++);
 80004fa:	2300      	movs	r3, #0
 80004fc:	60bb      	str	r3, [r7, #8]
 80004fe:	e002      	b.n	8000506 <Delay_ms+0x1a>
 8000500:	68bb      	ldr	r3, [r7, #8]
 8000502:	3301      	adds	r3, #1
 8000504:	60bb      	str	r3, [r7, #8]
 8000506:	68bb      	ldr	r3, [r7, #8]
 8000508:	f241 3287 	movw	r2, #4999	; 0x1387
 800050c:	4293      	cmp	r3, r2
 800050e:	ddf7      	ble.n	8000500 <Delay_ms+0x14>
	for(int i = 0; i < milliseconds; i++){
 8000510:	68fb      	ldr	r3, [r7, #12]
 8000512:	3301      	adds	r3, #1
 8000514:	60fb      	str	r3, [r7, #12]
 8000516:	68fb      	ldr	r3, [r7, #12]
 8000518:	687a      	ldr	r2, [r7, #4]
 800051a:	429a      	cmp	r2, r3
 800051c:	d8ed      	bhi.n	80004fa <Delay_ms+0xe>
	}
}
 800051e:	bf00      	nop
 8000520:	bf00      	nop
 8000522:	3714      	adds	r7, #20
 8000524:	46bd      	mov	sp, r7
 8000526:	f85d 7b04 	ldr.w	r7, [sp], #4
 800052a:	4770      	bx	lr

0800052c <main>:
int main(){
 800052c:	b580      	push	{r7, lr}
 800052e:	b082      	sub	sp, #8
 8000530:	af00      	add	r7, sp, #0
	SystemCoreClockUpdate();
 8000532:	f000 f8a1 	bl	8000678 <SystemCoreClockUpdate>
	Button_Init();
 8000536:	f7ff ffbd 	bl	80004b4 <Button_Init>
	Led_Init();
 800053a:	f7ff ff9f 	bl	800047c <Led_Init>
	I2CMaster_Init();
 800053e:	f7ff fe49 	bl	80001d4 <I2CMaster_Init>
	I2CSlave_Init();
 8000542:	f7ff fe9f 	bl	8000284 <I2CSlave_Init>
	while(1){
		if(GPIO_ReadInputDataBit(BUTTON_CFG_PORT, BUTTON_CFG_PIN) == Bit_RESET){
 8000546:	f44f 5100 	mov.w	r1, #8192	; 0x2000
 800054a:	4818      	ldr	r0, [pc, #96]	; (80005ac <main+0x80>)
 800054c:	f000 fa50 	bl	80009f0 <GPIO_ReadInputDataBit>
 8000550:	4603      	mov	r3, r0
 8000552:	2b00      	cmp	r3, #0
 8000554:	d109      	bne.n	800056a <main+0x3e>
			I2C_Start();
 8000556:	f7ff ff31 	bl	80003bc <I2C_Start>
			I2C_SendAddress(SERIAL_ADR);
 800055a:	2002      	movs	r0, #2
 800055c:	f7ff ff4c 	bl	80003f8 <I2C_SendAddress>
			I2C_TransmitData(DATAT_RCV_VALID);
 8000560:	2001      	movs	r0, #1
 8000562:	f7ff ff65 	bl	8000430 <I2C_TransmitData>
			I2C_Stop();
 8000566:	f7ff ff7f 	bl	8000468 <I2C_Stop>
		}
		if(Data_Receive == DATAT_RCV_VALID){
 800056a:	4b11      	ldr	r3, [pc, #68]	; (80005b0 <main+0x84>)
 800056c:	781b      	ldrb	r3, [r3, #0]
 800056e:	2b01      	cmp	r3, #1
 8000570:	d1e9      	bne.n	8000546 <main+0x1a>
			for(int i = 0; i < LED_NUM_OF_BLINK;i++){
 8000572:	2300      	movs	r3, #0
 8000574:	607b      	str	r3, [r7, #4]
 8000576:	e012      	b.n	800059e <main+0x72>
			GPIO_SetBits(LED_IND_PORT, LED_IND_PIN);
 8000578:	2120      	movs	r1, #32
 800057a:	480e      	ldr	r0, [pc, #56]	; (80005b4 <main+0x88>)
 800057c:	f000 fa52 	bl	8000a24 <GPIO_SetBits>
			Delay_ms(500);
 8000580:	f44f 70fa 	mov.w	r0, #500	; 0x1f4
 8000584:	f7ff ffb2 	bl	80004ec <Delay_ms>
			GPIO_ResetBits(LED_IND_PORT, LED_IND_PIN);
 8000588:	2120      	movs	r1, #32
 800058a:	480a      	ldr	r0, [pc, #40]	; (80005b4 <main+0x88>)
 800058c:	f000 fa59 	bl	8000a42 <GPIO_ResetBits>
			Delay_ms(500);
 8000590:	f44f 70fa 	mov.w	r0, #500	; 0x1f4
 8000594:	f7ff ffaa 	bl	80004ec <Delay_ms>
			for(int i = 0; i < LED_NUM_OF_BLINK;i++){
 8000598:	687b      	ldr	r3, [r7, #4]
 800059a:	3301      	adds	r3, #1
 800059c:	607b      	str	r3, [r7, #4]
 800059e:	687b      	ldr	r3, [r7, #4]
 80005a0:	2b04      	cmp	r3, #4
 80005a2:	dde9      	ble.n	8000578 <main+0x4c>
			}
			Data_Receive = DATA_RCV_IDLE;
 80005a4:	4b02      	ldr	r3, [pc, #8]	; (80005b0 <main+0x84>)
 80005a6:	2200      	movs	r2, #0
 80005a8:	701a      	strb	r2, [r3, #0]
		if(GPIO_ReadInputDataBit(BUTTON_CFG_PORT, BUTTON_CFG_PIN) == Bit_RESET){
 80005aa:	e7cc      	b.n	8000546 <main+0x1a>
 80005ac:	40020800 	.word	0x40020800
 80005b0:	20000040 	.word	0x20000040
 80005b4:	40020000 	.word	0x40020000

080005b8 <Reset_Handler>:

  .section .text.Reset_Handler
  .weak Reset_Handler
  .type Reset_Handler, %function
Reset_Handler:
  ldr   r0, =_estack
 80005b8:	480d      	ldr	r0, [pc, #52]	; (80005f0 <LoopForever+0x2>)
  mov   sp, r0          /* set stack pointer */
 80005ba:	4685      	mov	sp, r0
/* Call the clock system intitialization function.*/
  bl  SystemInit
 80005bc:	f000 f826 	bl	800060c <SystemInit>

/* Copy the data segment initializers from flash to SRAM */
  ldr r0, =_sdata
 80005c0:	480c      	ldr	r0, [pc, #48]	; (80005f4 <LoopForever+0x6>)
  ldr r1, =_edata
 80005c2:	490d      	ldr	r1, [pc, #52]	; (80005f8 <LoopForever+0xa>)
  ldr r2, =_sidata
 80005c4:	4a0d      	ldr	r2, [pc, #52]	; (80005fc <LoopForever+0xe>)
  movs r3, #0
 80005c6:	2300      	movs	r3, #0
  b LoopCopyDataInit
 80005c8:	e002      	b.n	80005d0 <LoopCopyDataInit>

080005ca <CopyDataInit>:

CopyDataInit:
  ldr r4, [r2, r3]
 80005ca:	58d4      	ldr	r4, [r2, r3]
  str r4, [r0, r3]
 80005cc:	50c4      	str	r4, [r0, r3]
  adds r3, r3, #4
 80005ce:	3304      	adds	r3, #4

080005d0 <LoopCopyDataInit>:

LoopCopyDataInit:
  adds r4, r0, r3
 80005d0:	18c4      	adds	r4, r0, r3
  cmp r4, r1
 80005d2:	428c      	cmp	r4, r1
  bcc CopyDataInit
 80005d4:	d3f9      	bcc.n	80005ca <CopyDataInit>

/* Zero fill the bss segment. */
  ldr r2, =_sbss
 80005d6:	4a0a      	ldr	r2, [pc, #40]	; (8000600 <LoopForever+0x12>)
  ldr r4, =_ebss
 80005d8:	4c0a      	ldr	r4, [pc, #40]	; (8000604 <LoopForever+0x16>)
  movs r3, #0
 80005da:	2300      	movs	r3, #0
  b LoopFillZerobss
 80005dc:	e001      	b.n	80005e2 <LoopFillZerobss>

080005de <FillZerobss>:

FillZerobss:
  str  r3, [r2]
 80005de:	6013      	str	r3, [r2, #0]
  adds r2, r2, #4
 80005e0:	3204      	adds	r2, #4

080005e2 <LoopFillZerobss>:

LoopFillZerobss:
  cmp r2, r4
 80005e2:	42a2      	cmp	r2, r4
  bcc FillZerobss
 80005e4:	d3fb      	bcc.n	80005de <FillZerobss>

/* Call static constructors */
  bl __libc_init_array
 80005e6:	f000 fdc3 	bl	8001170 <__libc_init_array>
/* Call the application's entry point.*/
  bl main
 80005ea:	f7ff ff9f 	bl	800052c <main>

080005ee <LoopForever>:

LoopForever:
    b LoopForever
 80005ee:	e7fe      	b.n	80005ee <LoopForever>
  ldr   r0, =_estack
 80005f0:	20018000 	.word	0x20018000
  ldr r0, =_sdata
 80005f4:	20000000 	.word	0x20000000
  ldr r1, =_edata
 80005f8:	20000024 	.word	0x20000024
  ldr r2, =_sidata
 80005fc:	080011d8 	.word	0x080011d8
  ldr r2, =_sbss
 8000600:	20000024 	.word	0x20000024
  ldr r4, =_ebss
 8000604:	20000044 	.word	0x20000044

08000608 <ADC_IRQHandler>:
 * @retval : None
*/
  .section .text.Default_Handler,"ax",%progbits
Default_Handler:
Infinite_Loop:
  b Infinite_Loop
 8000608:	e7fe      	b.n	8000608 <ADC_IRQHandler>
	...

0800060c <SystemInit>:
 800060c:	b580      	push	{r7, lr}
 800060e:	af00      	add	r7, sp, #0
 8000610:	4b16      	ldr	r3, [pc, #88]	; (800066c <SystemInit+0x60>)
 8000612:	f8d3 3088 	ldr.w	r3, [r3, #136]	; 0x88
 8000616:	4a15      	ldr	r2, [pc, #84]	; (800066c <SystemInit+0x60>)
 8000618:	f443 0370 	orr.w	r3, r3, #15728640	; 0xf00000
 800061c:	f8c2 3088 	str.w	r3, [r2, #136]	; 0x88
 8000620:	4b13      	ldr	r3, [pc, #76]	; (8000670 <SystemInit+0x64>)
 8000622:	681b      	ldr	r3, [r3, #0]
 8000624:	4a12      	ldr	r2, [pc, #72]	; (8000670 <SystemInit+0x64>)
 8000626:	f043 0301 	orr.w	r3, r3, #1
 800062a:	6013      	str	r3, [r2, #0]
 800062c:	4b10      	ldr	r3, [pc, #64]	; (8000670 <SystemInit+0x64>)
 800062e:	2200      	movs	r2, #0
 8000630:	609a      	str	r2, [r3, #8]
 8000632:	4b0f      	ldr	r3, [pc, #60]	; (8000670 <SystemInit+0x64>)
 8000634:	681b      	ldr	r3, [r3, #0]
 8000636:	4a0e      	ldr	r2, [pc, #56]	; (8000670 <SystemInit+0x64>)
 8000638:	f023 7384 	bic.w	r3, r3, #17301504	; 0x1080000
 800063c:	f423 3380 	bic.w	r3, r3, #65536	; 0x10000
 8000640:	6013      	str	r3, [r2, #0]
 8000642:	4b0b      	ldr	r3, [pc, #44]	; (8000670 <SystemInit+0x64>)
 8000644:	4a0b      	ldr	r2, [pc, #44]	; (8000674 <SystemInit+0x68>)
 8000646:	605a      	str	r2, [r3, #4]
 8000648:	4b09      	ldr	r3, [pc, #36]	; (8000670 <SystemInit+0x64>)
 800064a:	681b      	ldr	r3, [r3, #0]
 800064c:	4a08      	ldr	r2, [pc, #32]	; (8000670 <SystemInit+0x64>)
 800064e:	f423 2380 	bic.w	r3, r3, #262144	; 0x40000
 8000652:	6013      	str	r3, [r2, #0]
 8000654:	4b06      	ldr	r3, [pc, #24]	; (8000670 <SystemInit+0x64>)
 8000656:	2200      	movs	r2, #0
 8000658:	60da      	str	r2, [r3, #12]
 800065a:	f000 f889 	bl	8000770 <SetSysClock>
 800065e:	4b03      	ldr	r3, [pc, #12]	; (800066c <SystemInit+0x60>)
 8000660:	f04f 6200 	mov.w	r2, #134217728	; 0x8000000
 8000664:	609a      	str	r2, [r3, #8]
 8000666:	bf00      	nop
 8000668:	bd80      	pop	{r7, pc}
 800066a:	bf00      	nop
 800066c:	e000ed00 	.word	0xe000ed00
 8000670:	40023800 	.word	0x40023800
 8000674:	24003010 	.word	0x24003010

08000678 <SystemCoreClockUpdate>:
 8000678:	b480      	push	{r7}
 800067a:	b087      	sub	sp, #28
 800067c:	af00      	add	r7, sp, #0
 800067e:	2300      	movs	r3, #0
 8000680:	613b      	str	r3, [r7, #16]
 8000682:	2300      	movs	r3, #0
 8000684:	617b      	str	r3, [r7, #20]
 8000686:	2302      	movs	r3, #2
 8000688:	60fb      	str	r3, [r7, #12]
 800068a:	2300      	movs	r3, #0
 800068c:	60bb      	str	r3, [r7, #8]
 800068e:	2302      	movs	r3, #2
 8000690:	607b      	str	r3, [r7, #4]
 8000692:	4b32      	ldr	r3, [pc, #200]	; (800075c <SystemCoreClockUpdate+0xe4>)
 8000694:	689b      	ldr	r3, [r3, #8]
 8000696:	f003 030c 	and.w	r3, r3, #12
 800069a:	613b      	str	r3, [r7, #16]
 800069c:	693b      	ldr	r3, [r7, #16]
 800069e:	2b04      	cmp	r3, #4
 80006a0:	d007      	beq.n	80006b2 <SystemCoreClockUpdate+0x3a>
 80006a2:	2b08      	cmp	r3, #8
 80006a4:	d009      	beq.n	80006ba <SystemCoreClockUpdate+0x42>
 80006a6:	2b00      	cmp	r3, #0
 80006a8:	d13d      	bne.n	8000726 <SystemCoreClockUpdate+0xae>
 80006aa:	4b2d      	ldr	r3, [pc, #180]	; (8000760 <SystemCoreClockUpdate+0xe8>)
 80006ac:	4a2d      	ldr	r2, [pc, #180]	; (8000764 <SystemCoreClockUpdate+0xec>)
 80006ae:	601a      	str	r2, [r3, #0]
 80006b0:	e03d      	b.n	800072e <SystemCoreClockUpdate+0xb6>
 80006b2:	4b2b      	ldr	r3, [pc, #172]	; (8000760 <SystemCoreClockUpdate+0xe8>)
 80006b4:	4a2c      	ldr	r2, [pc, #176]	; (8000768 <SystemCoreClockUpdate+0xf0>)
 80006b6:	601a      	str	r2, [r3, #0]
 80006b8:	e039      	b.n	800072e <SystemCoreClockUpdate+0xb6>
 80006ba:	4b28      	ldr	r3, [pc, #160]	; (800075c <SystemCoreClockUpdate+0xe4>)
 80006bc:	685b      	ldr	r3, [r3, #4]
 80006be:	0d9b      	lsrs	r3, r3, #22
 80006c0:	f003 0301 	and.w	r3, r3, #1
 80006c4:	60bb      	str	r3, [r7, #8]
 80006c6:	4b25      	ldr	r3, [pc, #148]	; (800075c <SystemCoreClockUpdate+0xe4>)
 80006c8:	685b      	ldr	r3, [r3, #4]
 80006ca:	f003 033f 	and.w	r3, r3, #63	; 0x3f
 80006ce:	607b      	str	r3, [r7, #4]
 80006d0:	68bb      	ldr	r3, [r7, #8]
 80006d2:	2b00      	cmp	r3, #0
 80006d4:	d00c      	beq.n	80006f0 <SystemCoreClockUpdate+0x78>
 80006d6:	4a24      	ldr	r2, [pc, #144]	; (8000768 <SystemCoreClockUpdate+0xf0>)
 80006d8:	687b      	ldr	r3, [r7, #4]
 80006da:	fbb2 f3f3 	udiv	r3, r2, r3
 80006de:	4a1f      	ldr	r2, [pc, #124]	; (800075c <SystemCoreClockUpdate+0xe4>)
 80006e0:	6852      	ldr	r2, [r2, #4]
 80006e2:	0992      	lsrs	r2, r2, #6
 80006e4:	f3c2 0208 	ubfx	r2, r2, #0, #9
 80006e8:	fb02 f303 	mul.w	r3, r2, r3
 80006ec:	617b      	str	r3, [r7, #20]
 80006ee:	e00b      	b.n	8000708 <SystemCoreClockUpdate+0x90>
 80006f0:	4a1c      	ldr	r2, [pc, #112]	; (8000764 <SystemCoreClockUpdate+0xec>)
 80006f2:	687b      	ldr	r3, [r7, #4]
 80006f4:	fbb2 f3f3 	udiv	r3, r2, r3
 80006f8:	4a18      	ldr	r2, [pc, #96]	; (800075c <SystemCoreClockUpdate+0xe4>)
 80006fa:	6852      	ldr	r2, [r2, #4]
 80006fc:	0992      	lsrs	r2, r2, #6
 80006fe:	f3c2 0208 	ubfx	r2, r2, #0, #9
 8000702:	fb02 f303 	mul.w	r3, r2, r3
 8000706:	617b      	str	r3, [r7, #20]
 8000708:	4b14      	ldr	r3, [pc, #80]	; (800075c <SystemCoreClockUpdate+0xe4>)
 800070a:	685b      	ldr	r3, [r3, #4]
 800070c:	0c1b      	lsrs	r3, r3, #16
 800070e:	f003 0303 	and.w	r3, r3, #3
 8000712:	3301      	adds	r3, #1
 8000714:	005b      	lsls	r3, r3, #1
 8000716:	60fb      	str	r3, [r7, #12]
 8000718:	697a      	ldr	r2, [r7, #20]
 800071a:	68fb      	ldr	r3, [r7, #12]
 800071c:	fbb2 f3f3 	udiv	r3, r2, r3
 8000720:	4a0f      	ldr	r2, [pc, #60]	; (8000760 <SystemCoreClockUpdate+0xe8>)
 8000722:	6013      	str	r3, [r2, #0]
 8000724:	e003      	b.n	800072e <SystemCoreClockUpdate+0xb6>
 8000726:	4b0e      	ldr	r3, [pc, #56]	; (8000760 <SystemCoreClockUpdate+0xe8>)
 8000728:	4a0e      	ldr	r2, [pc, #56]	; (8000764 <SystemCoreClockUpdate+0xec>)
 800072a:	601a      	str	r2, [r3, #0]
 800072c:	bf00      	nop
 800072e:	4b0b      	ldr	r3, [pc, #44]	; (800075c <SystemCoreClockUpdate+0xe4>)
 8000730:	689b      	ldr	r3, [r3, #8]
 8000732:	091b      	lsrs	r3, r3, #4
 8000734:	f003 030f 	and.w	r3, r3, #15
 8000738:	4a0c      	ldr	r2, [pc, #48]	; (800076c <SystemCoreClockUpdate+0xf4>)
 800073a:	5cd3      	ldrb	r3, [r2, r3]
 800073c:	b2db      	uxtb	r3, r3
 800073e:	613b      	str	r3, [r7, #16]
 8000740:	4b07      	ldr	r3, [pc, #28]	; (8000760 <SystemCoreClockUpdate+0xe8>)
 8000742:	681a      	ldr	r2, [r3, #0]
 8000744:	693b      	ldr	r3, [r7, #16]
 8000746:	fa22 f303 	lsr.w	r3, r2, r3
 800074a:	4a05      	ldr	r2, [pc, #20]	; (8000760 <SystemCoreClockUpdate+0xe8>)
 800074c:	6013      	str	r3, [r2, #0]
 800074e:	bf00      	nop
 8000750:	371c      	adds	r7, #28
 8000752:	46bd      	mov	sp, r7
 8000754:	f85d 7b04 	ldr.w	r7, [sp], #4
 8000758:	4770      	bx	lr
 800075a:	bf00      	nop
 800075c:	40023800 	.word	0x40023800
 8000760:	20000000 	.word	0x20000000
 8000764:	00f42400 	.word	0x00f42400
 8000768:	017d7840 	.word	0x017d7840
 800076c:	20000004 	.word	0x20000004

08000770 <SetSysClock>:
 8000770:	b480      	push	{r7}
 8000772:	af00      	add	r7, sp, #0
 8000774:	4b22      	ldr	r3, [pc, #136]	; (8000800 <SetSysClock+0x90>)
 8000776:	6c1b      	ldr	r3, [r3, #64]	; 0x40
 8000778:	4a21      	ldr	r2, [pc, #132]	; (8000800 <SetSysClock+0x90>)
 800077a:	f043 5380 	orr.w	r3, r3, #268435456	; 0x10000000
 800077e:	6413      	str	r3, [r2, #64]	; 0x40
 8000780:	4b20      	ldr	r3, [pc, #128]	; (8000804 <SetSysClock+0x94>)
 8000782:	681b      	ldr	r3, [r3, #0]
 8000784:	4a1f      	ldr	r2, [pc, #124]	; (8000804 <SetSysClock+0x94>)
 8000786:	f443 4340 	orr.w	r3, r3, #49152	; 0xc000
 800078a:	6013      	str	r3, [r2, #0]
 800078c:	4b1c      	ldr	r3, [pc, #112]	; (8000800 <SetSysClock+0x90>)
 800078e:	4a1c      	ldr	r2, [pc, #112]	; (8000800 <SetSysClock+0x90>)
 8000790:	689b      	ldr	r3, [r3, #8]
 8000792:	6093      	str	r3, [r2, #8]
 8000794:	4b1a      	ldr	r3, [pc, #104]	; (8000800 <SetSysClock+0x90>)
 8000796:	4a1a      	ldr	r2, [pc, #104]	; (8000800 <SetSysClock+0x90>)
 8000798:	689b      	ldr	r3, [r3, #8]
 800079a:	6093      	str	r3, [r2, #8]
 800079c:	4b18      	ldr	r3, [pc, #96]	; (8000800 <SetSysClock+0x90>)
 800079e:	689b      	ldr	r3, [r3, #8]
 80007a0:	4a17      	ldr	r2, [pc, #92]	; (8000800 <SetSysClock+0x90>)
 80007a2:	f443 5380 	orr.w	r3, r3, #4096	; 0x1000
 80007a6:	6093      	str	r3, [r2, #8]
 80007a8:	4b15      	ldr	r3, [pc, #84]	; (8000800 <SetSysClock+0x90>)
 80007aa:	4a17      	ldr	r2, [pc, #92]	; (8000808 <SetSysClock+0x98>)
 80007ac:	605a      	str	r2, [r3, #4]
 80007ae:	4b14      	ldr	r3, [pc, #80]	; (8000800 <SetSysClock+0x90>)
 80007b0:	681b      	ldr	r3, [r3, #0]
 80007b2:	4a13      	ldr	r2, [pc, #76]	; (8000800 <SetSysClock+0x90>)
 80007b4:	f043 7380 	orr.w	r3, r3, #16777216	; 0x1000000
 80007b8:	6013      	str	r3, [r2, #0]
 80007ba:	bf00      	nop
 80007bc:	4b10      	ldr	r3, [pc, #64]	; (8000800 <SetSysClock+0x90>)
 80007be:	681b      	ldr	r3, [r3, #0]
 80007c0:	f003 7300 	and.w	r3, r3, #33554432	; 0x2000000
 80007c4:	2b00      	cmp	r3, #0
 80007c6:	d0f9      	beq.n	80007bc <SetSysClock+0x4c>
 80007c8:	4b10      	ldr	r3, [pc, #64]	; (800080c <SetSysClock+0x9c>)
 80007ca:	f240 6202 	movw	r2, #1538	; 0x602
 80007ce:	601a      	str	r2, [r3, #0]
 80007d0:	4b0b      	ldr	r3, [pc, #44]	; (8000800 <SetSysClock+0x90>)
 80007d2:	689b      	ldr	r3, [r3, #8]
 80007d4:	4a0a      	ldr	r2, [pc, #40]	; (8000800 <SetSysClock+0x90>)
 80007d6:	f023 0303 	bic.w	r3, r3, #3
 80007da:	6093      	str	r3, [r2, #8]
 80007dc:	4b08      	ldr	r3, [pc, #32]	; (8000800 <SetSysClock+0x90>)
 80007de:	689b      	ldr	r3, [r3, #8]
 80007e0:	4a07      	ldr	r2, [pc, #28]	; (8000800 <SetSysClock+0x90>)
 80007e2:	f043 0302 	orr.w	r3, r3, #2
 80007e6:	6093      	str	r3, [r2, #8]
 80007e8:	bf00      	nop
 80007ea:	4b05      	ldr	r3, [pc, #20]	; (8000800 <SetSysClock+0x90>)
 80007ec:	689b      	ldr	r3, [r3, #8]
 80007ee:	f003 030c 	and.w	r3, r3, #12
 80007f2:	2b08      	cmp	r3, #8
 80007f4:	d1f9      	bne.n	80007ea <SetSysClock+0x7a>
 80007f6:	bf00      	nop
 80007f8:	46bd      	mov	sp, r7
 80007fa:	f85d 7b04 	ldr.w	r7, [sp], #4
 80007fe:	4770      	bx	lr
 8000800:	40023800 	.word	0x40023800
 8000804:	40007000 	.word	0x40007000
 8000808:	08015410 	.word	0x08015410
 800080c:	40023c00 	.word	0x40023c00

08000810 <NVIC_Init>:
 8000810:	b480      	push	{r7}
 8000812:	b085      	sub	sp, #20
 8000814:	af00      	add	r7, sp, #0
 8000816:	6078      	str	r0, [r7, #4]
 8000818:	2300      	movs	r3, #0
 800081a:	73fb      	strb	r3, [r7, #15]
 800081c:	2300      	movs	r3, #0
 800081e:	73bb      	strb	r3, [r7, #14]
 8000820:	230f      	movs	r3, #15
 8000822:	737b      	strb	r3, [r7, #13]
 8000824:	687b      	ldr	r3, [r7, #4]
 8000826:	78db      	ldrb	r3, [r3, #3]
 8000828:	2b00      	cmp	r3, #0
 800082a:	d039      	beq.n	80008a0 <NVIC_Init+0x90>
 800082c:	4b27      	ldr	r3, [pc, #156]	; (80008cc <NVIC_Init+0xbc>)
 800082e:	68db      	ldr	r3, [r3, #12]
 8000830:	43db      	mvns	r3, r3
 8000832:	0a1b      	lsrs	r3, r3, #8
 8000834:	b2db      	uxtb	r3, r3
 8000836:	f003 0307 	and.w	r3, r3, #7
 800083a:	73fb      	strb	r3, [r7, #15]
 800083c:	7bfb      	ldrb	r3, [r7, #15]
 800083e:	f1c3 0304 	rsb	r3, r3, #4
 8000842:	73bb      	strb	r3, [r7, #14]
 8000844:	7b7a      	ldrb	r2, [r7, #13]
 8000846:	7bfb      	ldrb	r3, [r7, #15]
 8000848:	fa42 f303 	asr.w	r3, r2, r3
 800084c:	737b      	strb	r3, [r7, #13]
 800084e:	687b      	ldr	r3, [r7, #4]
 8000850:	785b      	ldrb	r3, [r3, #1]
 8000852:	461a      	mov	r2, r3
 8000854:	7bbb      	ldrb	r3, [r7, #14]
 8000856:	fa02 f303 	lsl.w	r3, r2, r3
 800085a:	73fb      	strb	r3, [r7, #15]
 800085c:	687b      	ldr	r3, [r7, #4]
 800085e:	789a      	ldrb	r2, [r3, #2]
 8000860:	7b7b      	ldrb	r3, [r7, #13]
 8000862:	4013      	ands	r3, r2
 8000864:	b2da      	uxtb	r2, r3
 8000866:	7bfb      	ldrb	r3, [r7, #15]
 8000868:	4313      	orrs	r3, r2
 800086a:	73fb      	strb	r3, [r7, #15]
 800086c:	7bfb      	ldrb	r3, [r7, #15]
 800086e:	011b      	lsls	r3, r3, #4
 8000870:	73fb      	strb	r3, [r7, #15]
 8000872:	4a17      	ldr	r2, [pc, #92]	; (80008d0 <NVIC_Init+0xc0>)
 8000874:	687b      	ldr	r3, [r7, #4]
 8000876:	781b      	ldrb	r3, [r3, #0]
 8000878:	4413      	add	r3, r2
 800087a:	7bfa      	ldrb	r2, [r7, #15]
 800087c:	f883 2300 	strb.w	r2, [r3, #768]	; 0x300
 8000880:	687b      	ldr	r3, [r7, #4]
 8000882:	781b      	ldrb	r3, [r3, #0]
 8000884:	f003 031f 	and.w	r3, r3, #31
 8000888:	4911      	ldr	r1, [pc, #68]	; (80008d0 <NVIC_Init+0xc0>)
 800088a:	687a      	ldr	r2, [r7, #4]
 800088c:	7812      	ldrb	r2, [r2, #0]
 800088e:	0952      	lsrs	r2, r2, #5
 8000890:	b2d2      	uxtb	r2, r2
 8000892:	4610      	mov	r0, r2
 8000894:	2201      	movs	r2, #1
 8000896:	fa02 f303 	lsl.w	r3, r2, r3
 800089a:	f841 3020 	str.w	r3, [r1, r0, lsl #2]
 800089e:	e00f      	b.n	80008c0 <NVIC_Init+0xb0>
 80008a0:	687b      	ldr	r3, [r7, #4]
 80008a2:	781b      	ldrb	r3, [r3, #0]
 80008a4:	f003 031f 	and.w	r3, r3, #31
 80008a8:	4909      	ldr	r1, [pc, #36]	; (80008d0 <NVIC_Init+0xc0>)
 80008aa:	687a      	ldr	r2, [r7, #4]
 80008ac:	7812      	ldrb	r2, [r2, #0]
 80008ae:	0952      	lsrs	r2, r2, #5
 80008b0:	b2d2      	uxtb	r2, r2
 80008b2:	4610      	mov	r0, r2
 80008b4:	2201      	movs	r2, #1
 80008b6:	409a      	lsls	r2, r3
 80008b8:	f100 0320 	add.w	r3, r0, #32
 80008bc:	f841 2023 	str.w	r2, [r1, r3, lsl #2]
 80008c0:	bf00      	nop
 80008c2:	3714      	adds	r7, #20
 80008c4:	46bd      	mov	sp, r7
 80008c6:	f85d 7b04 	ldr.w	r7, [sp], #4
 80008ca:	4770      	bx	lr
 80008cc:	e000ed00 	.word	0xe000ed00
 80008d0:	e000e100 	.word	0xe000e100

080008d4 <GPIO_Init>:
 80008d4:	b480      	push	{r7}
 80008d6:	b087      	sub	sp, #28
 80008d8:	af00      	add	r7, sp, #0
 80008da:	6078      	str	r0, [r7, #4]
 80008dc:	6039      	str	r1, [r7, #0]
 80008de:	2300      	movs	r3, #0
 80008e0:	617b      	str	r3, [r7, #20]
 80008e2:	2300      	movs	r3, #0
 80008e4:	613b      	str	r3, [r7, #16]
 80008e6:	2300      	movs	r3, #0
 80008e8:	60fb      	str	r3, [r7, #12]
 80008ea:	2300      	movs	r3, #0
 80008ec:	617b      	str	r3, [r7, #20]
 80008ee:	e076      	b.n	80009de <GPIO_Init+0x10a>
 80008f0:	2201      	movs	r2, #1
 80008f2:	697b      	ldr	r3, [r7, #20]
 80008f4:	fa02 f303 	lsl.w	r3, r2, r3
 80008f8:	613b      	str	r3, [r7, #16]
 80008fa:	683b      	ldr	r3, [r7, #0]
 80008fc:	681b      	ldr	r3, [r3, #0]
 80008fe:	693a      	ldr	r2, [r7, #16]
 8000900:	4013      	ands	r3, r2
 8000902:	60fb      	str	r3, [r7, #12]
 8000904:	68fa      	ldr	r2, [r7, #12]
 8000906:	693b      	ldr	r3, [r7, #16]
 8000908:	429a      	cmp	r2, r3
 800090a:	d165      	bne.n	80009d8 <GPIO_Init+0x104>
 800090c:	687b      	ldr	r3, [r7, #4]
 800090e:	681a      	ldr	r2, [r3, #0]
 8000910:	697b      	ldr	r3, [r7, #20]
 8000912:	005b      	lsls	r3, r3, #1
 8000914:	2103      	movs	r1, #3
 8000916:	fa01 f303 	lsl.w	r3, r1, r3
 800091a:	43db      	mvns	r3, r3
 800091c:	401a      	ands	r2, r3
 800091e:	687b      	ldr	r3, [r7, #4]
 8000920:	601a      	str	r2, [r3, #0]
 8000922:	687b      	ldr	r3, [r7, #4]
 8000924:	681a      	ldr	r2, [r3, #0]
 8000926:	683b      	ldr	r3, [r7, #0]
 8000928:	791b      	ldrb	r3, [r3, #4]
 800092a:	4619      	mov	r1, r3
 800092c:	697b      	ldr	r3, [r7, #20]
 800092e:	005b      	lsls	r3, r3, #1
 8000930:	fa01 f303 	lsl.w	r3, r1, r3
 8000934:	431a      	orrs	r2, r3
 8000936:	687b      	ldr	r3, [r7, #4]
 8000938:	601a      	str	r2, [r3, #0]
 800093a:	683b      	ldr	r3, [r7, #0]
 800093c:	791b      	ldrb	r3, [r3, #4]
 800093e:	2b01      	cmp	r3, #1
 8000940:	d003      	beq.n	800094a <GPIO_Init+0x76>
 8000942:	683b      	ldr	r3, [r7, #0]
 8000944:	791b      	ldrb	r3, [r3, #4]
 8000946:	2b02      	cmp	r3, #2
 8000948:	d12e      	bne.n	80009a8 <GPIO_Init+0xd4>
 800094a:	687b      	ldr	r3, [r7, #4]
 800094c:	689a      	ldr	r2, [r3, #8]
 800094e:	697b      	ldr	r3, [r7, #20]
 8000950:	005b      	lsls	r3, r3, #1
 8000952:	2103      	movs	r1, #3
 8000954:	fa01 f303 	lsl.w	r3, r1, r3
 8000958:	43db      	mvns	r3, r3
 800095a:	401a      	ands	r2, r3
 800095c:	687b      	ldr	r3, [r7, #4]
 800095e:	609a      	str	r2, [r3, #8]
 8000960:	687b      	ldr	r3, [r7, #4]
 8000962:	689a      	ldr	r2, [r3, #8]
 8000964:	683b      	ldr	r3, [r7, #0]
 8000966:	795b      	ldrb	r3, [r3, #5]
 8000968:	4619      	mov	r1, r3
 800096a:	697b      	ldr	r3, [r7, #20]
 800096c:	005b      	lsls	r3, r3, #1
 800096e:	fa01 f303 	lsl.w	r3, r1, r3
 8000972:	431a      	orrs	r2, r3
 8000974:	687b      	ldr	r3, [r7, #4]
 8000976:	609a      	str	r2, [r3, #8]
 8000978:	687b      	ldr	r3, [r7, #4]
 800097a:	685a      	ldr	r2, [r3, #4]
 800097c:	697b      	ldr	r3, [r7, #20]
 800097e:	b29b      	uxth	r3, r3
 8000980:	4619      	mov	r1, r3
 8000982:	2301      	movs	r3, #1
 8000984:	408b      	lsls	r3, r1
 8000986:	43db      	mvns	r3, r3
 8000988:	401a      	ands	r2, r3
 800098a:	687b      	ldr	r3, [r7, #4]
 800098c:	605a      	str	r2, [r3, #4]
 800098e:	687b      	ldr	r3, [r7, #4]
 8000990:	685b      	ldr	r3, [r3, #4]
 8000992:	683a      	ldr	r2, [r7, #0]
 8000994:	7992      	ldrb	r2, [r2, #6]
 8000996:	4611      	mov	r1, r2
 8000998:	697a      	ldr	r2, [r7, #20]
 800099a:	b292      	uxth	r2, r2
 800099c:	fa01 f202 	lsl.w	r2, r1, r2
 80009a0:	b292      	uxth	r2, r2
 80009a2:	431a      	orrs	r2, r3
 80009a4:	687b      	ldr	r3, [r7, #4]
 80009a6:	605a      	str	r2, [r3, #4]
 80009a8:	687b      	ldr	r3, [r7, #4]
 80009aa:	68da      	ldr	r2, [r3, #12]
 80009ac:	697b      	ldr	r3, [r7, #20]
 80009ae:	b29b      	uxth	r3, r3
 80009b0:	005b      	lsls	r3, r3, #1
 80009b2:	2103      	movs	r1, #3
 80009b4:	fa01 f303 	lsl.w	r3, r1, r3
 80009b8:	43db      	mvns	r3, r3
 80009ba:	401a      	ands	r2, r3
 80009bc:	687b      	ldr	r3, [r7, #4]
 80009be:	60da      	str	r2, [r3, #12]
 80009c0:	687b      	ldr	r3, [r7, #4]
 80009c2:	68da      	ldr	r2, [r3, #12]
 80009c4:	683b      	ldr	r3, [r7, #0]
 80009c6:	79db      	ldrb	r3, [r3, #7]
 80009c8:	4619      	mov	r1, r3
 80009ca:	697b      	ldr	r3, [r7, #20]
 80009cc:	005b      	lsls	r3, r3, #1
 80009ce:	fa01 f303 	lsl.w	r3, r1, r3
 80009d2:	431a      	orrs	r2, r3
 80009d4:	687b      	ldr	r3, [r7, #4]
 80009d6:	60da      	str	r2, [r3, #12]
 80009d8:	697b      	ldr	r3, [r7, #20]
 80009da:	3301      	adds	r3, #1
 80009dc:	617b      	str	r3, [r7, #20]
 80009de:	697b      	ldr	r3, [r7, #20]
 80009e0:	2b0f      	cmp	r3, #15
 80009e2:	d985      	bls.n	80008f0 <GPIO_Init+0x1c>
 80009e4:	bf00      	nop
 80009e6:	371c      	adds	r7, #28
 80009e8:	46bd      	mov	sp, r7
 80009ea:	f85d 7b04 	ldr.w	r7, [sp], #4
 80009ee:	4770      	bx	lr

080009f0 <GPIO_ReadInputDataBit>:
 80009f0:	b480      	push	{r7}
 80009f2:	b085      	sub	sp, #20
 80009f4:	af00      	add	r7, sp, #0
 80009f6:	6078      	str	r0, [r7, #4]
 80009f8:	460b      	mov	r3, r1
 80009fa:	807b      	strh	r3, [r7, #2]
 80009fc:	2300      	movs	r3, #0
 80009fe:	73fb      	strb	r3, [r7, #15]
 8000a00:	687b      	ldr	r3, [r7, #4]
 8000a02:	691a      	ldr	r2, [r3, #16]
 8000a04:	887b      	ldrh	r3, [r7, #2]
 8000a06:	4013      	ands	r3, r2
 8000a08:	2b00      	cmp	r3, #0
 8000a0a:	d002      	beq.n	8000a12 <GPIO_ReadInputDataBit+0x22>
 8000a0c:	2301      	movs	r3, #1
 8000a0e:	73fb      	strb	r3, [r7, #15]
 8000a10:	e001      	b.n	8000a16 <GPIO_ReadInputDataBit+0x26>
 8000a12:	2300      	movs	r3, #0
 8000a14:	73fb      	strb	r3, [r7, #15]
 8000a16:	7bfb      	ldrb	r3, [r7, #15]
 8000a18:	4618      	mov	r0, r3
 8000a1a:	3714      	adds	r7, #20
 8000a1c:	46bd      	mov	sp, r7
 8000a1e:	f85d 7b04 	ldr.w	r7, [sp], #4
 8000a22:	4770      	bx	lr

08000a24 <GPIO_SetBits>:
 8000a24:	b480      	push	{r7}
 8000a26:	b083      	sub	sp, #12
 8000a28:	af00      	add	r7, sp, #0
 8000a2a:	6078      	str	r0, [r7, #4]
 8000a2c:	460b      	mov	r3, r1
 8000a2e:	807b      	strh	r3, [r7, #2]
 8000a30:	687b      	ldr	r3, [r7, #4]
 8000a32:	887a      	ldrh	r2, [r7, #2]
 8000a34:	831a      	strh	r2, [r3, #24]
 8000a36:	bf00      	nop
 8000a38:	370c      	adds	r7, #12
 8000a3a:	46bd      	mov	sp, r7
 8000a3c:	f85d 7b04 	ldr.w	r7, [sp], #4
 8000a40:	4770      	bx	lr

08000a42 <GPIO_ResetBits>:
 8000a42:	b480      	push	{r7}
 8000a44:	b083      	sub	sp, #12
 8000a46:	af00      	add	r7, sp, #0
 8000a48:	6078      	str	r0, [r7, #4]
 8000a4a:	460b      	mov	r3, r1
 8000a4c:	807b      	strh	r3, [r7, #2]
 8000a4e:	687b      	ldr	r3, [r7, #4]
 8000a50:	887a      	ldrh	r2, [r7, #2]
 8000a52:	835a      	strh	r2, [r3, #26]
 8000a54:	bf00      	nop
 8000a56:	370c      	adds	r7, #12
 8000a58:	46bd      	mov	sp, r7
 8000a5a:	f85d 7b04 	ldr.w	r7, [sp], #4
 8000a5e:	4770      	bx	lr

08000a60 <GPIO_PinAFConfig>:
 8000a60:	b480      	push	{r7}
 8000a62:	b085      	sub	sp, #20
 8000a64:	af00      	add	r7, sp, #0
 8000a66:	6078      	str	r0, [r7, #4]
 8000a68:	460b      	mov	r3, r1
 8000a6a:	807b      	strh	r3, [r7, #2]
 8000a6c:	4613      	mov	r3, r2
 8000a6e:	707b      	strb	r3, [r7, #1]
 8000a70:	2300      	movs	r3, #0
 8000a72:	60fb      	str	r3, [r7, #12]
 8000a74:	2300      	movs	r3, #0
 8000a76:	60bb      	str	r3, [r7, #8]
 8000a78:	787a      	ldrb	r2, [r7, #1]
 8000a7a:	887b      	ldrh	r3, [r7, #2]
 8000a7c:	f003 0307 	and.w	r3, r3, #7
 8000a80:	009b      	lsls	r3, r3, #2
 8000a82:	fa02 f303 	lsl.w	r3, r2, r3
 8000a86:	60fb      	str	r3, [r7, #12]
 8000a88:	887b      	ldrh	r3, [r7, #2]
 8000a8a:	08db      	lsrs	r3, r3, #3
 8000a8c:	b29b      	uxth	r3, r3
 8000a8e:	461a      	mov	r2, r3
 8000a90:	687b      	ldr	r3, [r7, #4]
 8000a92:	3208      	adds	r2, #8
 8000a94:	f853 2022 	ldr.w	r2, [r3, r2, lsl #2]
 8000a98:	887b      	ldrh	r3, [r7, #2]
 8000a9a:	f003 0307 	and.w	r3, r3, #7
 8000a9e:	009b      	lsls	r3, r3, #2
 8000aa0:	210f      	movs	r1, #15
 8000aa2:	fa01 f303 	lsl.w	r3, r1, r3
 8000aa6:	43db      	mvns	r3, r3
 8000aa8:	8879      	ldrh	r1, [r7, #2]
 8000aaa:	08c9      	lsrs	r1, r1, #3
 8000aac:	b289      	uxth	r1, r1
 8000aae:	4608      	mov	r0, r1
 8000ab0:	ea02 0103 	and.w	r1, r2, r3
 8000ab4:	687b      	ldr	r3, [r7, #4]
 8000ab6:	f100 0208 	add.w	r2, r0, #8
 8000aba:	f843 1022 	str.w	r1, [r3, r2, lsl #2]
 8000abe:	887b      	ldrh	r3, [r7, #2]
 8000ac0:	08db      	lsrs	r3, r3, #3
 8000ac2:	b29b      	uxth	r3, r3
 8000ac4:	461a      	mov	r2, r3
 8000ac6:	687b      	ldr	r3, [r7, #4]
 8000ac8:	3208      	adds	r2, #8
 8000aca:	f853 3022 	ldr.w	r3, [r3, r2, lsl #2]
 8000ace:	68fa      	ldr	r2, [r7, #12]
 8000ad0:	4313      	orrs	r3, r2
 8000ad2:	60bb      	str	r3, [r7, #8]
 8000ad4:	887b      	ldrh	r3, [r7, #2]
 8000ad6:	08db      	lsrs	r3, r3, #3
 8000ad8:	b29b      	uxth	r3, r3
 8000ada:	461a      	mov	r2, r3
 8000adc:	687b      	ldr	r3, [r7, #4]
 8000ade:	3208      	adds	r2, #8
 8000ae0:	68b9      	ldr	r1, [r7, #8]
 8000ae2:	f843 1022 	str.w	r1, [r3, r2, lsl #2]
 8000ae6:	bf00      	nop
 8000ae8:	3714      	adds	r7, #20
 8000aea:	46bd      	mov	sp, r7
 8000aec:	f85d 7b04 	ldr.w	r7, [sp], #4
 8000af0:	4770      	bx	lr
	...

08000af4 <I2C_Init>:
 8000af4:	b580      	push	{r7, lr}
 8000af6:	b08a      	sub	sp, #40	; 0x28
 8000af8:	af00      	add	r7, sp, #0
 8000afa:	6078      	str	r0, [r7, #4]
 8000afc:	6039      	str	r1, [r7, #0]
 8000afe:	2300      	movs	r3, #0
 8000b00:	84fb      	strh	r3, [r7, #38]	; 0x26
 8000b02:	2300      	movs	r3, #0
 8000b04:	847b      	strh	r3, [r7, #34]	; 0x22
 8000b06:	2304      	movs	r3, #4
 8000b08:	84bb      	strh	r3, [r7, #36]	; 0x24
 8000b0a:	4b57      	ldr	r3, [pc, #348]	; (8000c68 <I2C_Init+0x174>)
 8000b0c:	61fb      	str	r3, [r7, #28]
 8000b0e:	687b      	ldr	r3, [r7, #4]
 8000b10:	889b      	ldrh	r3, [r3, #4]
 8000b12:	84fb      	strh	r3, [r7, #38]	; 0x26
 8000b14:	8cfb      	ldrh	r3, [r7, #38]	; 0x26
 8000b16:	f023 033f 	bic.w	r3, r3, #63	; 0x3f
 8000b1a:	84fb      	strh	r3, [r7, #38]	; 0x26
 8000b1c:	f107 030c 	add.w	r3, r7, #12
 8000b20:	4618      	mov	r0, r3
 8000b22:	f000 fa3d 	bl	8000fa0 <RCC_GetClocksFreq>
 8000b26:	697b      	ldr	r3, [r7, #20]
 8000b28:	61fb      	str	r3, [r7, #28]
 8000b2a:	69fb      	ldr	r3, [r7, #28]
 8000b2c:	4a4f      	ldr	r2, [pc, #316]	; (8000c6c <I2C_Init+0x178>)
 8000b2e:	fba2 2303 	umull	r2, r3, r2, r3
 8000b32:	0c9b      	lsrs	r3, r3, #18
 8000b34:	847b      	strh	r3, [r7, #34]	; 0x22
 8000b36:	8cfa      	ldrh	r2, [r7, #38]	; 0x26
 8000b38:	8c7b      	ldrh	r3, [r7, #34]	; 0x22
 8000b3a:	4313      	orrs	r3, r2
 8000b3c:	84fb      	strh	r3, [r7, #38]	; 0x26
 8000b3e:	687b      	ldr	r3, [r7, #4]
 8000b40:	8cfa      	ldrh	r2, [r7, #38]	; 0x26
 8000b42:	809a      	strh	r2, [r3, #4]
 8000b44:	687b      	ldr	r3, [r7, #4]
 8000b46:	881b      	ldrh	r3, [r3, #0]
 8000b48:	b29b      	uxth	r3, r3
 8000b4a:	f023 0301 	bic.w	r3, r3, #1
 8000b4e:	b29a      	uxth	r2, r3
 8000b50:	687b      	ldr	r3, [r7, #4]
 8000b52:	801a      	strh	r2, [r3, #0]
 8000b54:	2300      	movs	r3, #0
 8000b56:	84fb      	strh	r3, [r7, #38]	; 0x26
 8000b58:	683b      	ldr	r3, [r7, #0]
 8000b5a:	681b      	ldr	r3, [r3, #0]
 8000b5c:	4a44      	ldr	r2, [pc, #272]	; (8000c70 <I2C_Init+0x17c>)
 8000b5e:	4293      	cmp	r3, r2
 8000b60:	d815      	bhi.n	8000b8e <I2C_Init+0x9a>
 8000b62:	683b      	ldr	r3, [r7, #0]
 8000b64:	681b      	ldr	r3, [r3, #0]
 8000b66:	005b      	lsls	r3, r3, #1
 8000b68:	69fa      	ldr	r2, [r7, #28]
 8000b6a:	fbb2 f3f3 	udiv	r3, r2, r3
 8000b6e:	84bb      	strh	r3, [r7, #36]	; 0x24
 8000b70:	8cbb      	ldrh	r3, [r7, #36]	; 0x24
 8000b72:	2b03      	cmp	r3, #3
 8000b74:	d801      	bhi.n	8000b7a <I2C_Init+0x86>
 8000b76:	2304      	movs	r3, #4
 8000b78:	84bb      	strh	r3, [r7, #36]	; 0x24
 8000b7a:	8cfa      	ldrh	r2, [r7, #38]	; 0x26
 8000b7c:	8cbb      	ldrh	r3, [r7, #36]	; 0x24
 8000b7e:	4313      	orrs	r3, r2
 8000b80:	84fb      	strh	r3, [r7, #38]	; 0x26
 8000b82:	8c7b      	ldrh	r3, [r7, #34]	; 0x22
 8000b84:	3301      	adds	r3, #1
 8000b86:	b29a      	uxth	r2, r3
 8000b88:	687b      	ldr	r3, [r7, #4]
 8000b8a:	841a      	strh	r2, [r3, #32]
 8000b8c:	e040      	b.n	8000c10 <I2C_Init+0x11c>
 8000b8e:	683b      	ldr	r3, [r7, #0]
 8000b90:	88db      	ldrh	r3, [r3, #6]
 8000b92:	f64b 72ff 	movw	r2, #49151	; 0xbfff
 8000b96:	4293      	cmp	r3, r2
 8000b98:	d109      	bne.n	8000bae <I2C_Init+0xba>
 8000b9a:	683b      	ldr	r3, [r7, #0]
 8000b9c:	681a      	ldr	r2, [r3, #0]
 8000b9e:	4613      	mov	r3, r2
 8000ba0:	005b      	lsls	r3, r3, #1
 8000ba2:	4413      	add	r3, r2
 8000ba4:	69fa      	ldr	r2, [r7, #28]
 8000ba6:	fbb2 f3f3 	udiv	r3, r2, r3
 8000baa:	84bb      	strh	r3, [r7, #36]	; 0x24
 8000bac:	e00e      	b.n	8000bcc <I2C_Init+0xd8>
 8000bae:	683b      	ldr	r3, [r7, #0]
 8000bb0:	681a      	ldr	r2, [r3, #0]
 8000bb2:	4613      	mov	r3, r2
 8000bb4:	009b      	lsls	r3, r3, #2
 8000bb6:	4413      	add	r3, r2
 8000bb8:	009a      	lsls	r2, r3, #2
 8000bba:	4413      	add	r3, r2
 8000bbc:	69fa      	ldr	r2, [r7, #28]
 8000bbe:	fbb2 f3f3 	udiv	r3, r2, r3
 8000bc2:	84bb      	strh	r3, [r7, #36]	; 0x24
 8000bc4:	8cbb      	ldrh	r3, [r7, #36]	; 0x24
 8000bc6:	f443 4380 	orr.w	r3, r3, #16384	; 0x4000
 8000bca:	84bb      	strh	r3, [r7, #36]	; 0x24
 8000bcc:	8cbb      	ldrh	r3, [r7, #36]	; 0x24
 8000bce:	f3c3 030b 	ubfx	r3, r3, #0, #12
 8000bd2:	2b00      	cmp	r3, #0
 8000bd4:	d103      	bne.n	8000bde <I2C_Init+0xea>
 8000bd6:	8cbb      	ldrh	r3, [r7, #36]	; 0x24
 8000bd8:	f043 0301 	orr.w	r3, r3, #1
 8000bdc:	84bb      	strh	r3, [r7, #36]	; 0x24
 8000bde:	8cba      	ldrh	r2, [r7, #36]	; 0x24
 8000be0:	8cfb      	ldrh	r3, [r7, #38]	; 0x26
 8000be2:	4313      	orrs	r3, r2
 8000be4:	b29b      	uxth	r3, r3
 8000be6:	ea6f 4343 	mvn.w	r3, r3, lsl #17
 8000bea:	ea6f 4353 	mvn.w	r3, r3, lsr #17
 8000bee:	84fb      	strh	r3, [r7, #38]	; 0x26
 8000bf0:	8c7b      	ldrh	r3, [r7, #34]	; 0x22
 8000bf2:	f44f 7296 	mov.w	r2, #300	; 0x12c
 8000bf6:	fb02 f303 	mul.w	r3, r2, r3
 8000bfa:	4a1e      	ldr	r2, [pc, #120]	; (8000c74 <I2C_Init+0x180>)
 8000bfc:	fb82 1203 	smull	r1, r2, r2, r3
 8000c00:	1192      	asrs	r2, r2, #6
 8000c02:	17db      	asrs	r3, r3, #31
 8000c04:	1ad3      	subs	r3, r2, r3
 8000c06:	b29b      	uxth	r3, r3
 8000c08:	3301      	adds	r3, #1
 8000c0a:	b29a      	uxth	r2, r3
 8000c0c:	687b      	ldr	r3, [r7, #4]
 8000c0e:	841a      	strh	r2, [r3, #32]
 8000c10:	687b      	ldr	r3, [r7, #4]
 8000c12:	8cfa      	ldrh	r2, [r7, #38]	; 0x26
 8000c14:	839a      	strh	r2, [r3, #28]
 8000c16:	687b      	ldr	r3, [r7, #4]
 8000c18:	881b      	ldrh	r3, [r3, #0]
 8000c1a:	b29b      	uxth	r3, r3
 8000c1c:	f043 0301 	orr.w	r3, r3, #1
 8000c20:	b29a      	uxth	r2, r3
 8000c22:	687b      	ldr	r3, [r7, #4]
 8000c24:	801a      	strh	r2, [r3, #0]
 8000c26:	687b      	ldr	r3, [r7, #4]
 8000c28:	881b      	ldrh	r3, [r3, #0]
 8000c2a:	84fb      	strh	r3, [r7, #38]	; 0x26
 8000c2c:	8cfb      	ldrh	r3, [r7, #38]	; 0x26
 8000c2e:	f423 6381 	bic.w	r3, r3, #1032	; 0x408
 8000c32:	f023 0302 	bic.w	r3, r3, #2
 8000c36:	84fb      	strh	r3, [r7, #38]	; 0x26
 8000c38:	683b      	ldr	r3, [r7, #0]
 8000c3a:	889a      	ldrh	r2, [r3, #4]
 8000c3c:	683b      	ldr	r3, [r7, #0]
 8000c3e:	895b      	ldrh	r3, [r3, #10]
 8000c40:	4313      	orrs	r3, r2
 8000c42:	b29a      	uxth	r2, r3
 8000c44:	8cfb      	ldrh	r3, [r7, #38]	; 0x26
 8000c46:	4313      	orrs	r3, r2
 8000c48:	84fb      	strh	r3, [r7, #38]	; 0x26
 8000c4a:	687b      	ldr	r3, [r7, #4]
 8000c4c:	8cfa      	ldrh	r2, [r7, #38]	; 0x26
 8000c4e:	801a      	strh	r2, [r3, #0]
 8000c50:	683b      	ldr	r3, [r7, #0]
 8000c52:	899a      	ldrh	r2, [r3, #12]
 8000c54:	683b      	ldr	r3, [r7, #0]
 8000c56:	891b      	ldrh	r3, [r3, #8]
 8000c58:	4313      	orrs	r3, r2
 8000c5a:	b29a      	uxth	r2, r3
 8000c5c:	687b      	ldr	r3, [r7, #4]
 8000c5e:	811a      	strh	r2, [r3, #8]
 8000c60:	bf00      	nop
 8000c62:	3728      	adds	r7, #40	; 0x28
 8000c64:	46bd      	mov	sp, r7
 8000c66:	bd80      	pop	{r7, pc}
 8000c68:	007a1200 	.word	0x007a1200
 8000c6c:	431bde83 	.word	0x431bde83
 8000c70:	000186a0 	.word	0x000186a0
 8000c74:	10624dd3 	.word	0x10624dd3

08000c78 <I2C_Cmd>:
 8000c78:	b480      	push	{r7}
 8000c7a:	b083      	sub	sp, #12
 8000c7c:	af00      	add	r7, sp, #0
 8000c7e:	6078      	str	r0, [r7, #4]
 8000c80:	460b      	mov	r3, r1
 8000c82:	70fb      	strb	r3, [r7, #3]
 8000c84:	78fb      	ldrb	r3, [r7, #3]
 8000c86:	2b00      	cmp	r3, #0
 8000c88:	d008      	beq.n	8000c9c <I2C_Cmd+0x24>
 8000c8a:	687b      	ldr	r3, [r7, #4]
 8000c8c:	881b      	ldrh	r3, [r3, #0]
 8000c8e:	b29b      	uxth	r3, r3
 8000c90:	f043 0301 	orr.w	r3, r3, #1
 8000c94:	b29a      	uxth	r2, r3
 8000c96:	687b      	ldr	r3, [r7, #4]
 8000c98:	801a      	strh	r2, [r3, #0]
 8000c9a:	e007      	b.n	8000cac <I2C_Cmd+0x34>
 8000c9c:	687b      	ldr	r3, [r7, #4]
 8000c9e:	881b      	ldrh	r3, [r3, #0]
 8000ca0:	b29b      	uxth	r3, r3
 8000ca2:	f023 0301 	bic.w	r3, r3, #1
 8000ca6:	b29a      	uxth	r2, r3
 8000ca8:	687b      	ldr	r3, [r7, #4]
 8000caa:	801a      	strh	r2, [r3, #0]
 8000cac:	bf00      	nop
 8000cae:	370c      	adds	r7, #12
 8000cb0:	46bd      	mov	sp, r7
 8000cb2:	f85d 7b04 	ldr.w	r7, [sp], #4
 8000cb6:	4770      	bx	lr

08000cb8 <I2C_GenerateSTART>:
 8000cb8:	b480      	push	{r7}
 8000cba:	b083      	sub	sp, #12
 8000cbc:	af00      	add	r7, sp, #0
 8000cbe:	6078      	str	r0, [r7, #4]
 8000cc0:	460b      	mov	r3, r1
 8000cc2:	70fb      	strb	r3, [r7, #3]
 8000cc4:	78fb      	ldrb	r3, [r7, #3]
 8000cc6:	2b00      	cmp	r3, #0
 8000cc8:	d008      	beq.n	8000cdc <I2C_GenerateSTART+0x24>
 8000cca:	687b      	ldr	r3, [r7, #4]
 8000ccc:	881b      	ldrh	r3, [r3, #0]
 8000cce:	b29b      	uxth	r3, r3
 8000cd0:	f443 7380 	orr.w	r3, r3, #256	; 0x100
 8000cd4:	b29a      	uxth	r2, r3
 8000cd6:	687b      	ldr	r3, [r7, #4]
 8000cd8:	801a      	strh	r2, [r3, #0]
 8000cda:	e007      	b.n	8000cec <I2C_GenerateSTART+0x34>
 8000cdc:	687b      	ldr	r3, [r7, #4]
 8000cde:	881b      	ldrh	r3, [r3, #0]
 8000ce0:	b29b      	uxth	r3, r3
 8000ce2:	f423 7380 	bic.w	r3, r3, #256	; 0x100
 8000ce6:	b29a      	uxth	r2, r3
 8000ce8:	687b      	ldr	r3, [r7, #4]
 8000cea:	801a      	strh	r2, [r3, #0]
 8000cec:	bf00      	nop
 8000cee:	370c      	adds	r7, #12
 8000cf0:	46bd      	mov	sp, r7
 8000cf2:	f85d 7b04 	ldr.w	r7, [sp], #4
 8000cf6:	4770      	bx	lr

08000cf8 <I2C_GenerateSTOP>:
 8000cf8:	b480      	push	{r7}
 8000cfa:	b083      	sub	sp, #12
 8000cfc:	af00      	add	r7, sp, #0
 8000cfe:	6078      	str	r0, [r7, #4]
 8000d00:	460b      	mov	r3, r1
 8000d02:	70fb      	strb	r3, [r7, #3]
 8000d04:	78fb      	ldrb	r3, [r7, #3]
 8000d06:	2b00      	cmp	r3, #0
 8000d08:	d008      	beq.n	8000d1c <I2C_GenerateSTOP+0x24>
 8000d0a:	687b      	ldr	r3, [r7, #4]
 8000d0c:	881b      	ldrh	r3, [r3, #0]
 8000d0e:	b29b      	uxth	r3, r3
 8000d10:	f443 7300 	orr.w	r3, r3, #512	; 0x200
 8000d14:	b29a      	uxth	r2, r3
 8000d16:	687b      	ldr	r3, [r7, #4]
 8000d18:	801a      	strh	r2, [r3, #0]
 8000d1a:	e007      	b.n	8000d2c <I2C_GenerateSTOP+0x34>
 8000d1c:	687b      	ldr	r3, [r7, #4]
 8000d1e:	881b      	ldrh	r3, [r3, #0]
 8000d20:	b29b      	uxth	r3, r3
 8000d22:	f423 7300 	bic.w	r3, r3, #512	; 0x200
 8000d26:	b29a      	uxth	r2, r3
 8000d28:	687b      	ldr	r3, [r7, #4]
 8000d2a:	801a      	strh	r2, [r3, #0]
 8000d2c:	bf00      	nop
 8000d2e:	370c      	adds	r7, #12
 8000d30:	46bd      	mov	sp, r7
 8000d32:	f85d 7b04 	ldr.w	r7, [sp], #4
 8000d36:	4770      	bx	lr

08000d38 <I2C_Send7bitAddress>:
 8000d38:	b480      	push	{r7}
 8000d3a:	b083      	sub	sp, #12
 8000d3c:	af00      	add	r7, sp, #0
 8000d3e:	6078      	str	r0, [r7, #4]
 8000d40:	460b      	mov	r3, r1
 8000d42:	70fb      	strb	r3, [r7, #3]
 8000d44:	4613      	mov	r3, r2
 8000d46:	70bb      	strb	r3, [r7, #2]
 8000d48:	78bb      	ldrb	r3, [r7, #2]
 8000d4a:	2b00      	cmp	r3, #0
 8000d4c:	d004      	beq.n	8000d58 <I2C_Send7bitAddress+0x20>
 8000d4e:	78fb      	ldrb	r3, [r7, #3]
 8000d50:	f043 0301 	orr.w	r3, r3, #1
 8000d54:	70fb      	strb	r3, [r7, #3]
 8000d56:	e003      	b.n	8000d60 <I2C_Send7bitAddress+0x28>
 8000d58:	78fb      	ldrb	r3, [r7, #3]
 8000d5a:	f023 0301 	bic.w	r3, r3, #1
 8000d5e:	70fb      	strb	r3, [r7, #3]
 8000d60:	78fb      	ldrb	r3, [r7, #3]
 8000d62:	b29a      	uxth	r2, r3
 8000d64:	687b      	ldr	r3, [r7, #4]
 8000d66:	821a      	strh	r2, [r3, #16]
 8000d68:	bf00      	nop
 8000d6a:	370c      	adds	r7, #12
 8000d6c:	46bd      	mov	sp, r7
 8000d6e:	f85d 7b04 	ldr.w	r7, [sp], #4
 8000d72:	4770      	bx	lr

08000d74 <I2C_AcknowledgeConfig>:
 8000d74:	b480      	push	{r7}
 8000d76:	b083      	sub	sp, #12
 8000d78:	af00      	add	r7, sp, #0
 8000d7a:	6078      	str	r0, [r7, #4]
 8000d7c:	460b      	mov	r3, r1
 8000d7e:	70fb      	strb	r3, [r7, #3]
 8000d80:	78fb      	ldrb	r3, [r7, #3]
 8000d82:	2b00      	cmp	r3, #0
 8000d84:	d008      	beq.n	8000d98 <I2C_AcknowledgeConfig+0x24>
 8000d86:	687b      	ldr	r3, [r7, #4]
 8000d88:	881b      	ldrh	r3, [r3, #0]
 8000d8a:	b29b      	uxth	r3, r3
 8000d8c:	f443 6380 	orr.w	r3, r3, #1024	; 0x400
 8000d90:	b29a      	uxth	r2, r3
 8000d92:	687b      	ldr	r3, [r7, #4]
 8000d94:	801a      	strh	r2, [r3, #0]
 8000d96:	e007      	b.n	8000da8 <I2C_AcknowledgeConfig+0x34>
 8000d98:	687b      	ldr	r3, [r7, #4]
 8000d9a:	881b      	ldrh	r3, [r3, #0]
 8000d9c:	b29b      	uxth	r3, r3
 8000d9e:	f423 6380 	bic.w	r3, r3, #1024	; 0x400
 8000da2:	b29a      	uxth	r2, r3
 8000da4:	687b      	ldr	r3, [r7, #4]
 8000da6:	801a      	strh	r2, [r3, #0]
 8000da8:	bf00      	nop
 8000daa:	370c      	adds	r7, #12
 8000dac:	46bd      	mov	sp, r7
 8000dae:	f85d 7b04 	ldr.w	r7, [sp], #4
 8000db2:	4770      	bx	lr

08000db4 <I2C_SendData>:
 8000db4:	b480      	push	{r7}
 8000db6:	b083      	sub	sp, #12
 8000db8:	af00      	add	r7, sp, #0
 8000dba:	6078      	str	r0, [r7, #4]
 8000dbc:	460b      	mov	r3, r1
 8000dbe:	70fb      	strb	r3, [r7, #3]
 8000dc0:	78fb      	ldrb	r3, [r7, #3]
 8000dc2:	b29a      	uxth	r2, r3
 8000dc4:	687b      	ldr	r3, [r7, #4]
 8000dc6:	821a      	strh	r2, [r3, #16]
 8000dc8:	bf00      	nop
 8000dca:	370c      	adds	r7, #12
 8000dcc:	46bd      	mov	sp, r7
 8000dce:	f85d 7b04 	ldr.w	r7, [sp], #4
 8000dd2:	4770      	bx	lr

08000dd4 <I2C_ReceiveData>:
 8000dd4:	b480      	push	{r7}
 8000dd6:	b083      	sub	sp, #12
 8000dd8:	af00      	add	r7, sp, #0
 8000dda:	6078      	str	r0, [r7, #4]
 8000ddc:	687b      	ldr	r3, [r7, #4]
 8000dde:	8a1b      	ldrh	r3, [r3, #16]
 8000de0:	b29b      	uxth	r3, r3
 8000de2:	b2db      	uxtb	r3, r3
 8000de4:	4618      	mov	r0, r3
 8000de6:	370c      	adds	r7, #12
 8000de8:	46bd      	mov	sp, r7
 8000dea:	f85d 7b04 	ldr.w	r7, [sp], #4
 8000dee:	4770      	bx	lr

08000df0 <I2C_ITConfig>:
 8000df0:	b480      	push	{r7}
 8000df2:	b083      	sub	sp, #12
 8000df4:	af00      	add	r7, sp, #0
 8000df6:	6078      	str	r0, [r7, #4]
 8000df8:	460b      	mov	r3, r1
 8000dfa:	807b      	strh	r3, [r7, #2]
 8000dfc:	4613      	mov	r3, r2
 8000dfe:	707b      	strb	r3, [r7, #1]
 8000e00:	787b      	ldrb	r3, [r7, #1]
 8000e02:	2b00      	cmp	r3, #0
 8000e04:	d008      	beq.n	8000e18 <I2C_ITConfig+0x28>
 8000e06:	687b      	ldr	r3, [r7, #4]
 8000e08:	889b      	ldrh	r3, [r3, #4]
 8000e0a:	b29a      	uxth	r2, r3
 8000e0c:	887b      	ldrh	r3, [r7, #2]
 8000e0e:	4313      	orrs	r3, r2
 8000e10:	b29a      	uxth	r2, r3
 8000e12:	687b      	ldr	r3, [r7, #4]
 8000e14:	809a      	strh	r2, [r3, #4]
 8000e16:	e009      	b.n	8000e2c <I2C_ITConfig+0x3c>
 8000e18:	687b      	ldr	r3, [r7, #4]
 8000e1a:	889b      	ldrh	r3, [r3, #4]
 8000e1c:	b29a      	uxth	r2, r3
 8000e1e:	887b      	ldrh	r3, [r7, #2]
 8000e20:	43db      	mvns	r3, r3
 8000e22:	b29b      	uxth	r3, r3
 8000e24:	4013      	ands	r3, r2
 8000e26:	b29a      	uxth	r2, r3
 8000e28:	687b      	ldr	r3, [r7, #4]
 8000e2a:	809a      	strh	r2, [r3, #4]
 8000e2c:	bf00      	nop
 8000e2e:	370c      	adds	r7, #12
 8000e30:	46bd      	mov	sp, r7
 8000e32:	f85d 7b04 	ldr.w	r7, [sp], #4
 8000e36:	4770      	bx	lr

08000e38 <I2C_CheckEvent>:
 8000e38:	b480      	push	{r7}
 8000e3a:	b087      	sub	sp, #28
 8000e3c:	af00      	add	r7, sp, #0
 8000e3e:	6078      	str	r0, [r7, #4]
 8000e40:	6039      	str	r1, [r7, #0]
 8000e42:	2300      	movs	r3, #0
 8000e44:	613b      	str	r3, [r7, #16]
 8000e46:	2300      	movs	r3, #0
 8000e48:	60fb      	str	r3, [r7, #12]
 8000e4a:	2300      	movs	r3, #0
 8000e4c:	60bb      	str	r3, [r7, #8]
 8000e4e:	2300      	movs	r3, #0
 8000e50:	75fb      	strb	r3, [r7, #23]
 8000e52:	687b      	ldr	r3, [r7, #4]
 8000e54:	8a9b      	ldrh	r3, [r3, #20]
 8000e56:	b29b      	uxth	r3, r3
 8000e58:	60fb      	str	r3, [r7, #12]
 8000e5a:	687b      	ldr	r3, [r7, #4]
 8000e5c:	8b1b      	ldrh	r3, [r3, #24]
 8000e5e:	b29b      	uxth	r3, r3
 8000e60:	60bb      	str	r3, [r7, #8]
 8000e62:	68bb      	ldr	r3, [r7, #8]
 8000e64:	041b      	lsls	r3, r3, #16
 8000e66:	60bb      	str	r3, [r7, #8]
 8000e68:	68fa      	ldr	r2, [r7, #12]
 8000e6a:	68bb      	ldr	r3, [r7, #8]
 8000e6c:	4313      	orrs	r3, r2
 8000e6e:	f023 437f 	bic.w	r3, r3, #4278190080	; 0xff000000
 8000e72:	613b      	str	r3, [r7, #16]
 8000e74:	693a      	ldr	r2, [r7, #16]
 8000e76:	683b      	ldr	r3, [r7, #0]
 8000e78:	4013      	ands	r3, r2
 8000e7a:	683a      	ldr	r2, [r7, #0]
 8000e7c:	429a      	cmp	r2, r3
 8000e7e:	d102      	bne.n	8000e86 <I2C_CheckEvent+0x4e>
 8000e80:	2301      	movs	r3, #1
 8000e82:	75fb      	strb	r3, [r7, #23]
 8000e84:	e001      	b.n	8000e8a <I2C_CheckEvent+0x52>
 8000e86:	2300      	movs	r3, #0
 8000e88:	75fb      	strb	r3, [r7, #23]
 8000e8a:	7dfb      	ldrb	r3, [r7, #23]
 8000e8c:	4618      	mov	r0, r3
 8000e8e:	371c      	adds	r7, #28
 8000e90:	46bd      	mov	sp, r7
 8000e92:	f85d 7b04 	ldr.w	r7, [sp], #4
 8000e96:	4770      	bx	lr

08000e98 <I2C_GetLastEvent>:
 8000e98:	b480      	push	{r7}
 8000e9a:	b087      	sub	sp, #28
 8000e9c:	af00      	add	r7, sp, #0
 8000e9e:	6078      	str	r0, [r7, #4]
 8000ea0:	2300      	movs	r3, #0
 8000ea2:	617b      	str	r3, [r7, #20]
 8000ea4:	2300      	movs	r3, #0
 8000ea6:	613b      	str	r3, [r7, #16]
 8000ea8:	2300      	movs	r3, #0
 8000eaa:	60fb      	str	r3, [r7, #12]
 8000eac:	687b      	ldr	r3, [r7, #4]
 8000eae:	8a9b      	ldrh	r3, [r3, #20]
 8000eb0:	b29b      	uxth	r3, r3
 8000eb2:	613b      	str	r3, [r7, #16]
 8000eb4:	687b      	ldr	r3, [r7, #4]
 8000eb6:	8b1b      	ldrh	r3, [r3, #24]
 8000eb8:	b29b      	uxth	r3, r3
 8000eba:	60fb      	str	r3, [r7, #12]
 8000ebc:	68fb      	ldr	r3, [r7, #12]
 8000ebe:	041b      	lsls	r3, r3, #16
 8000ec0:	60fb      	str	r3, [r7, #12]
 8000ec2:	693a      	ldr	r2, [r7, #16]
 8000ec4:	68fb      	ldr	r3, [r7, #12]
 8000ec6:	4313      	orrs	r3, r2
 8000ec8:	f023 437f 	bic.w	r3, r3, #4278190080	; 0xff000000
 8000ecc:	617b      	str	r3, [r7, #20]
 8000ece:	697b      	ldr	r3, [r7, #20]
 8000ed0:	4618      	mov	r0, r3
 8000ed2:	371c      	adds	r7, #28
 8000ed4:	46bd      	mov	sp, r7
 8000ed6:	f85d 7b04 	ldr.w	r7, [sp], #4
 8000eda:	4770      	bx	lr

08000edc <I2C_GetFlagStatus>:
 8000edc:	b480      	push	{r7}
 8000ede:	b087      	sub	sp, #28
 8000ee0:	af00      	add	r7, sp, #0
 8000ee2:	6078      	str	r0, [r7, #4]
 8000ee4:	6039      	str	r1, [r7, #0]
 8000ee6:	2300      	movs	r3, #0
 8000ee8:	75fb      	strb	r3, [r7, #23]
 8000eea:	2300      	movs	r3, #0
 8000eec:	613b      	str	r3, [r7, #16]
 8000eee:	2300      	movs	r3, #0
 8000ef0:	60fb      	str	r3, [r7, #12]
 8000ef2:	687b      	ldr	r3, [r7, #4]
 8000ef4:	60fb      	str	r3, [r7, #12]
 8000ef6:	683b      	ldr	r3, [r7, #0]
 8000ef8:	0f1b      	lsrs	r3, r3, #28
 8000efa:	613b      	str	r3, [r7, #16]
 8000efc:	683b      	ldr	r3, [r7, #0]
 8000efe:	f023 437f 	bic.w	r3, r3, #4278190080	; 0xff000000
 8000f02:	603b      	str	r3, [r7, #0]
 8000f04:	693b      	ldr	r3, [r7, #16]
 8000f06:	2b00      	cmp	r3, #0
 8000f08:	d003      	beq.n	8000f12 <I2C_GetFlagStatus+0x36>
 8000f0a:	68fb      	ldr	r3, [r7, #12]
 8000f0c:	3314      	adds	r3, #20
 8000f0e:	60fb      	str	r3, [r7, #12]
 8000f10:	e005      	b.n	8000f1e <I2C_GetFlagStatus+0x42>
 8000f12:	683b      	ldr	r3, [r7, #0]
 8000f14:	0c1b      	lsrs	r3, r3, #16
 8000f16:	603b      	str	r3, [r7, #0]
 8000f18:	68fb      	ldr	r3, [r7, #12]
 8000f1a:	3318      	adds	r3, #24
 8000f1c:	60fb      	str	r3, [r7, #12]
 8000f1e:	68fb      	ldr	r3, [r7, #12]
 8000f20:	681a      	ldr	r2, [r3, #0]
 8000f22:	683b      	ldr	r3, [r7, #0]
 8000f24:	4013      	ands	r3, r2
 8000f26:	2b00      	cmp	r3, #0
 8000f28:	d002      	beq.n	8000f30 <I2C_GetFlagStatus+0x54>
 8000f2a:	2301      	movs	r3, #1
 8000f2c:	75fb      	strb	r3, [r7, #23]
 8000f2e:	e001      	b.n	8000f34 <I2C_GetFlagStatus+0x58>
 8000f30:	2300      	movs	r3, #0
 8000f32:	75fb      	strb	r3, [r7, #23]
 8000f34:	7dfb      	ldrb	r3, [r7, #23]
 8000f36:	4618      	mov	r0, r3
 8000f38:	371c      	adds	r7, #28
 8000f3a:	46bd      	mov	sp, r7
 8000f3c:	f85d 7b04 	ldr.w	r7, [sp], #4
 8000f40:	4770      	bx	lr

08000f42 <I2C_ClearFlag>:
 8000f42:	b480      	push	{r7}
 8000f44:	b085      	sub	sp, #20
 8000f46:	af00      	add	r7, sp, #0
 8000f48:	6078      	str	r0, [r7, #4]
 8000f4a:	6039      	str	r1, [r7, #0]
 8000f4c:	2300      	movs	r3, #0
 8000f4e:	60fb      	str	r3, [r7, #12]
 8000f50:	683b      	ldr	r3, [r7, #0]
 8000f52:	f023 437f 	bic.w	r3, r3, #4278190080	; 0xff000000
 8000f56:	60fb      	str	r3, [r7, #12]
 8000f58:	68fb      	ldr	r3, [r7, #12]
 8000f5a:	b29b      	uxth	r3, r3
 8000f5c:	43db      	mvns	r3, r3
 8000f5e:	b29a      	uxth	r2, r3
 8000f60:	687b      	ldr	r3, [r7, #4]
 8000f62:	829a      	strh	r2, [r3, #20]
 8000f64:	bf00      	nop
 8000f66:	3714      	adds	r7, #20
 8000f68:	46bd      	mov	sp, r7
 8000f6a:	f85d 7b04 	ldr.w	r7, [sp], #4
 8000f6e:	4770      	bx	lr

08000f70 <I2C_ClearITPendingBit>:
 8000f70:	b480      	push	{r7}
 8000f72:	b085      	sub	sp, #20
 8000f74:	af00      	add	r7, sp, #0
 8000f76:	6078      	str	r0, [r7, #4]
 8000f78:	6039      	str	r1, [r7, #0]
 8000f7a:	2300      	movs	r3, #0
 8000f7c:	60fb      	str	r3, [r7, #12]
 8000f7e:	683b      	ldr	r3, [r7, #0]
 8000f80:	f023 437f 	bic.w	r3, r3, #4278190080	; 0xff000000
 8000f84:	60fb      	str	r3, [r7, #12]
 8000f86:	68fb      	ldr	r3, [r7, #12]
 8000f88:	b29b      	uxth	r3, r3
 8000f8a:	43db      	mvns	r3, r3
 8000f8c:	b29a      	uxth	r2, r3
 8000f8e:	687b      	ldr	r3, [r7, #4]
 8000f90:	829a      	strh	r2, [r3, #20]
 8000f92:	bf00      	nop
 8000f94:	3714      	adds	r7, #20
 8000f96:	46bd      	mov	sp, r7
 8000f98:	f85d 7b04 	ldr.w	r7, [sp], #4
 8000f9c:	4770      	bx	lr
	...

08000fa0 <RCC_GetClocksFreq>:
 8000fa0:	b480      	push	{r7}
 8000fa2:	b089      	sub	sp, #36	; 0x24
 8000fa4:	af00      	add	r7, sp, #0
 8000fa6:	6078      	str	r0, [r7, #4]
 8000fa8:	2300      	movs	r3, #0
 8000faa:	61bb      	str	r3, [r7, #24]
 8000fac:	2300      	movs	r3, #0
 8000fae:	617b      	str	r3, [r7, #20]
 8000fb0:	2300      	movs	r3, #0
 8000fb2:	61fb      	str	r3, [r7, #28]
 8000fb4:	2302      	movs	r3, #2
 8000fb6:	613b      	str	r3, [r7, #16]
 8000fb8:	2300      	movs	r3, #0
 8000fba:	60fb      	str	r3, [r7, #12]
 8000fbc:	2302      	movs	r3, #2
 8000fbe:	60bb      	str	r3, [r7, #8]
 8000fc0:	4b47      	ldr	r3, [pc, #284]	; (80010e0 <RCC_GetClocksFreq+0x140>)
 8000fc2:	689b      	ldr	r3, [r3, #8]
 8000fc4:	f003 030c 	and.w	r3, r3, #12
 8000fc8:	61bb      	str	r3, [r7, #24]
 8000fca:	69bb      	ldr	r3, [r7, #24]
 8000fcc:	2b04      	cmp	r3, #4
 8000fce:	d007      	beq.n	8000fe0 <RCC_GetClocksFreq+0x40>
 8000fd0:	2b08      	cmp	r3, #8
 8000fd2:	d009      	beq.n	8000fe8 <RCC_GetClocksFreq+0x48>
 8000fd4:	2b00      	cmp	r3, #0
 8000fd6:	d13d      	bne.n	8001054 <RCC_GetClocksFreq+0xb4>
 8000fd8:	687b      	ldr	r3, [r7, #4]
 8000fda:	4a42      	ldr	r2, [pc, #264]	; (80010e4 <RCC_GetClocksFreq+0x144>)
 8000fdc:	601a      	str	r2, [r3, #0]
 8000fde:	e03d      	b.n	800105c <RCC_GetClocksFreq+0xbc>
 8000fe0:	687b      	ldr	r3, [r7, #4]
 8000fe2:	4a41      	ldr	r2, [pc, #260]	; (80010e8 <RCC_GetClocksFreq+0x148>)
 8000fe4:	601a      	str	r2, [r3, #0]
 8000fe6:	e039      	b.n	800105c <RCC_GetClocksFreq+0xbc>
 8000fe8:	4b3d      	ldr	r3, [pc, #244]	; (80010e0 <RCC_GetClocksFreq+0x140>)
 8000fea:	685b      	ldr	r3, [r3, #4]
 8000fec:	0d9b      	lsrs	r3, r3, #22
 8000fee:	f003 0301 	and.w	r3, r3, #1
 8000ff2:	60fb      	str	r3, [r7, #12]
 8000ff4:	4b3a      	ldr	r3, [pc, #232]	; (80010e0 <RCC_GetClocksFreq+0x140>)
 8000ff6:	685b      	ldr	r3, [r3, #4]
 8000ff8:	f003 033f 	and.w	r3, r3, #63	; 0x3f
 8000ffc:	60bb      	str	r3, [r7, #8]
 8000ffe:	68fb      	ldr	r3, [r7, #12]
 8001000:	2b00      	cmp	r3, #0
 8001002:	d00c      	beq.n	800101e <RCC_GetClocksFreq+0x7e>
 8001004:	4a38      	ldr	r2, [pc, #224]	; (80010e8 <RCC_GetClocksFreq+0x148>)
 8001006:	68bb      	ldr	r3, [r7, #8]
 8001008:	fbb2 f3f3 	udiv	r3, r2, r3
 800100c:	4a34      	ldr	r2, [pc, #208]	; (80010e0 <RCC_GetClocksFreq+0x140>)
 800100e:	6852      	ldr	r2, [r2, #4]
 8001010:	0992      	lsrs	r2, r2, #6
 8001012:	f3c2 0208 	ubfx	r2, r2, #0, #9
 8001016:	fb02 f303 	mul.w	r3, r2, r3
 800101a:	61fb      	str	r3, [r7, #28]
 800101c:	e00b      	b.n	8001036 <RCC_GetClocksFreq+0x96>
 800101e:	4a31      	ldr	r2, [pc, #196]	; (80010e4 <RCC_GetClocksFreq+0x144>)
 8001020:	68bb      	ldr	r3, [r7, #8]
 8001022:	fbb2 f3f3 	udiv	r3, r2, r3
 8001026:	4a2e      	ldr	r2, [pc, #184]	; (80010e0 <RCC_GetClocksFreq+0x140>)
 8001028:	6852      	ldr	r2, [r2, #4]
 800102a:	0992      	lsrs	r2, r2, #6
 800102c:	f3c2 0208 	ubfx	r2, r2, #0, #9
 8001030:	fb02 f303 	mul.w	r3, r2, r3
 8001034:	61fb      	str	r3, [r7, #28]
 8001036:	4b2a      	ldr	r3, [pc, #168]	; (80010e0 <RCC_GetClocksFreq+0x140>)
 8001038:	685b      	ldr	r3, [r3, #4]
 800103a:	0c1b      	lsrs	r3, r3, #16
 800103c:	f003 0303 	and.w	r3, r3, #3
 8001040:	3301      	adds	r3, #1
 8001042:	005b      	lsls	r3, r3, #1
 8001044:	613b      	str	r3, [r7, #16]
 8001046:	69fa      	ldr	r2, [r7, #28]
 8001048:	693b      	ldr	r3, [r7, #16]
 800104a:	fbb2 f2f3 	udiv	r2, r2, r3
 800104e:	687b      	ldr	r3, [r7, #4]
 8001050:	601a      	str	r2, [r3, #0]
 8001052:	e003      	b.n	800105c <RCC_GetClocksFreq+0xbc>
 8001054:	687b      	ldr	r3, [r7, #4]
 8001056:	4a23      	ldr	r2, [pc, #140]	; (80010e4 <RCC_GetClocksFreq+0x144>)
 8001058:	601a      	str	r2, [r3, #0]
 800105a:	bf00      	nop
 800105c:	4b20      	ldr	r3, [pc, #128]	; (80010e0 <RCC_GetClocksFreq+0x140>)
 800105e:	689b      	ldr	r3, [r3, #8]
 8001060:	f003 03f0 	and.w	r3, r3, #240	; 0xf0
 8001064:	61bb      	str	r3, [r7, #24]
 8001066:	69bb      	ldr	r3, [r7, #24]
 8001068:	091b      	lsrs	r3, r3, #4
 800106a:	61bb      	str	r3, [r7, #24]
 800106c:	4a1f      	ldr	r2, [pc, #124]	; (80010ec <RCC_GetClocksFreq+0x14c>)
 800106e:	69bb      	ldr	r3, [r7, #24]
 8001070:	4413      	add	r3, r2
 8001072:	781b      	ldrb	r3, [r3, #0]
 8001074:	b2db      	uxtb	r3, r3
 8001076:	617b      	str	r3, [r7, #20]
 8001078:	687b      	ldr	r3, [r7, #4]
 800107a:	681a      	ldr	r2, [r3, #0]
 800107c:	697b      	ldr	r3, [r7, #20]
 800107e:	40da      	lsrs	r2, r3
 8001080:	687b      	ldr	r3, [r7, #4]
 8001082:	605a      	str	r2, [r3, #4]
 8001084:	4b16      	ldr	r3, [pc, #88]	; (80010e0 <RCC_GetClocksFreq+0x140>)
 8001086:	689b      	ldr	r3, [r3, #8]
 8001088:	f403 53e0 	and.w	r3, r3, #7168	; 0x1c00
 800108c:	61bb      	str	r3, [r7, #24]
 800108e:	69bb      	ldr	r3, [r7, #24]
 8001090:	0a9b      	lsrs	r3, r3, #10
 8001092:	61bb      	str	r3, [r7, #24]
 8001094:	4a15      	ldr	r2, [pc, #84]	; (80010ec <RCC_GetClocksFreq+0x14c>)
 8001096:	69bb      	ldr	r3, [r7, #24]
 8001098:	4413      	add	r3, r2
 800109a:	781b      	ldrb	r3, [r3, #0]
 800109c:	b2db      	uxtb	r3, r3
 800109e:	617b      	str	r3, [r7, #20]
 80010a0:	687b      	ldr	r3, [r7, #4]
 80010a2:	685a      	ldr	r2, [r3, #4]
 80010a4:	697b      	ldr	r3, [r7, #20]
 80010a6:	40da      	lsrs	r2, r3
 80010a8:	687b      	ldr	r3, [r7, #4]
 80010aa:	609a      	str	r2, [r3, #8]
 80010ac:	4b0c      	ldr	r3, [pc, #48]	; (80010e0 <RCC_GetClocksFreq+0x140>)
 80010ae:	689b      	ldr	r3, [r3, #8]
 80010b0:	f403 4360 	and.w	r3, r3, #57344	; 0xe000
 80010b4:	61bb      	str	r3, [r7, #24]
 80010b6:	69bb      	ldr	r3, [r7, #24]
 80010b8:	0b5b      	lsrs	r3, r3, #13
 80010ba:	61bb      	str	r3, [r7, #24]
 80010bc:	4a0b      	ldr	r2, [pc, #44]	; (80010ec <RCC_GetClocksFreq+0x14c>)
 80010be:	69bb      	ldr	r3, [r7, #24]
 80010c0:	4413      	add	r3, r2
 80010c2:	781b      	ldrb	r3, [r3, #0]
 80010c4:	b2db      	uxtb	r3, r3
 80010c6:	617b      	str	r3, [r7, #20]
 80010c8:	687b      	ldr	r3, [r7, #4]
 80010ca:	685a      	ldr	r2, [r3, #4]
 80010cc:	697b      	ldr	r3, [r7, #20]
 80010ce:	40da      	lsrs	r2, r3
 80010d0:	687b      	ldr	r3, [r7, #4]
 80010d2:	60da      	str	r2, [r3, #12]
 80010d4:	bf00      	nop
 80010d6:	3724      	adds	r7, #36	; 0x24
 80010d8:	46bd      	mov	sp, r7
 80010da:	f85d 7b04 	ldr.w	r7, [sp], #4
 80010de:	4770      	bx	lr
 80010e0:	40023800 	.word	0x40023800
 80010e4:	00f42400 	.word	0x00f42400
 80010e8:	017d7840 	.word	0x017d7840
 80010ec:	20000014 	.word	0x20000014

080010f0 <RCC_AHB1PeriphClockCmd>:
 80010f0:	b480      	push	{r7}
 80010f2:	b083      	sub	sp, #12
 80010f4:	af00      	add	r7, sp, #0
 80010f6:	6078      	str	r0, [r7, #4]
 80010f8:	460b      	mov	r3, r1
 80010fa:	70fb      	strb	r3, [r7, #3]
 80010fc:	78fb      	ldrb	r3, [r7, #3]
 80010fe:	2b00      	cmp	r3, #0
 8001100:	d006      	beq.n	8001110 <RCC_AHB1PeriphClockCmd+0x20>
 8001102:	4b0a      	ldr	r3, [pc, #40]	; (800112c <RCC_AHB1PeriphClockCmd+0x3c>)
 8001104:	6b1a      	ldr	r2, [r3, #48]	; 0x30
 8001106:	4909      	ldr	r1, [pc, #36]	; (800112c <RCC_AHB1PeriphClockCmd+0x3c>)
 8001108:	687b      	ldr	r3, [r7, #4]
 800110a:	4313      	orrs	r3, r2
 800110c:	630b      	str	r3, [r1, #48]	; 0x30
 800110e:	e006      	b.n	800111e <RCC_AHB1PeriphClockCmd+0x2e>
 8001110:	4b06      	ldr	r3, [pc, #24]	; (800112c <RCC_AHB1PeriphClockCmd+0x3c>)
 8001112:	6b1a      	ldr	r2, [r3, #48]	; 0x30
 8001114:	687b      	ldr	r3, [r7, #4]
 8001116:	43db      	mvns	r3, r3
 8001118:	4904      	ldr	r1, [pc, #16]	; (800112c <RCC_AHB1PeriphClockCmd+0x3c>)
 800111a:	4013      	ands	r3, r2
 800111c:	630b      	str	r3, [r1, #48]	; 0x30
 800111e:	bf00      	nop
 8001120:	370c      	adds	r7, #12
 8001122:	46bd      	mov	sp, r7
 8001124:	f85d 7b04 	ldr.w	r7, [sp], #4
 8001128:	4770      	bx	lr
 800112a:	bf00      	nop
 800112c:	40023800 	.word	0x40023800

08001130 <RCC_APB1PeriphClockCmd>:
 8001130:	b480      	push	{r7}
 8001132:	b083      	sub	sp, #12
 8001134:	af00      	add	r7, sp, #0
 8001136:	6078      	str	r0, [r7, #4]
 8001138:	460b      	mov	r3, r1
 800113a:	70fb      	strb	r3, [r7, #3]
 800113c:	78fb      	ldrb	r3, [r7, #3]
 800113e:	2b00      	cmp	r3, #0
 8001140:	d006      	beq.n	8001150 <RCC_APB1PeriphClockCmd+0x20>
 8001142:	4b0a      	ldr	r3, [pc, #40]	; (800116c <RCC_APB1PeriphClockCmd+0x3c>)
 8001144:	6c1a      	ldr	r2, [r3, #64]	; 0x40
 8001146:	4909      	ldr	r1, [pc, #36]	; (800116c <RCC_APB1PeriphClockCmd+0x3c>)
 8001148:	687b      	ldr	r3, [r7, #4]
 800114a:	4313      	orrs	r3, r2
 800114c:	640b      	str	r3, [r1, #64]	; 0x40
 800114e:	e006      	b.n	800115e <RCC_APB1PeriphClockCmd+0x2e>
 8001150:	4b06      	ldr	r3, [pc, #24]	; (800116c <RCC_APB1PeriphClockCmd+0x3c>)
 8001152:	6c1a      	ldr	r2, [r3, #64]	; 0x40
 8001154:	687b      	ldr	r3, [r7, #4]
 8001156:	43db      	mvns	r3, r3
 8001158:	4904      	ldr	r1, [pc, #16]	; (800116c <RCC_APB1PeriphClockCmd+0x3c>)
 800115a:	4013      	ands	r3, r2
 800115c:	640b      	str	r3, [r1, #64]	; 0x40
 800115e:	bf00      	nop
 8001160:	370c      	adds	r7, #12
 8001162:	46bd      	mov	sp, r7
 8001164:	f85d 7b04 	ldr.w	r7, [sp], #4
 8001168:	4770      	bx	lr
 800116a:	bf00      	nop
 800116c:	40023800 	.word	0x40023800

08001170 <__libc_init_array>:
 8001170:	b570      	push	{r4, r5, r6, lr}
 8001172:	4d0d      	ldr	r5, [pc, #52]	; (80011a8 <__libc_init_array+0x38>)
 8001174:	4c0d      	ldr	r4, [pc, #52]	; (80011ac <__libc_init_array+0x3c>)
 8001176:	1b64      	subs	r4, r4, r5
 8001178:	10a4      	asrs	r4, r4, #2
 800117a:	2600      	movs	r6, #0
 800117c:	42a6      	cmp	r6, r4
 800117e:	d109      	bne.n	8001194 <__libc_init_array+0x24>
 8001180:	4d0b      	ldr	r5, [pc, #44]	; (80011b0 <__libc_init_array+0x40>)
 8001182:	4c0c      	ldr	r4, [pc, #48]	; (80011b4 <__libc_init_array+0x44>)
 8001184:	f000 f818 	bl	80011b8 <_init>
 8001188:	1b64      	subs	r4, r4, r5
 800118a:	10a4      	asrs	r4, r4, #2
 800118c:	2600      	movs	r6, #0
 800118e:	42a6      	cmp	r6, r4
 8001190:	d105      	bne.n	800119e <__libc_init_array+0x2e>
 8001192:	bd70      	pop	{r4, r5, r6, pc}
 8001194:	f855 3b04 	ldr.w	r3, [r5], #4
 8001198:	4798      	blx	r3
 800119a:	3601      	adds	r6, #1
 800119c:	e7ee      	b.n	800117c <__libc_init_array+0xc>
 800119e:	f855 3b04 	ldr.w	r3, [r5], #4
 80011a2:	4798      	blx	r3
 80011a4:	3601      	adds	r6, #1
 80011a6:	e7f2      	b.n	800118e <__libc_init_array+0x1e>
 80011a8:	080011d0 	.word	0x080011d0
 80011ac:	080011d0 	.word	0x080011d0
 80011b0:	080011d0 	.word	0x080011d0
 80011b4:	080011d4 	.word	0x080011d4

080011b8 <_init>:
 80011b8:	b5f8      	push	{r3, r4, r5, r6, r7, lr}
 80011ba:	bf00      	nop
 80011bc:	bcf8      	pop	{r3, r4, r5, r6, r7}
 80011be:	bc08      	pop	{r3}
 80011c0:	469e      	mov	lr, r3
 80011c2:	4770      	bx	lr

080011c4 <_fini>:
 80011c4:	b5f8      	push	{r3, r4, r5, r6, r7, lr}
 80011c6:	bf00      	nop
 80011c8:	bcf8      	pop	{r3, r4, r5, r6, r7}
 80011ca:	bc08      	pop	{r3}
 80011cc:	469e      	mov	lr, r3
 80011ce:	4770      	bx	lr
