
as2.elf:     file format elf32-littlearm

Sections:
Idx Name          Size      VMA       LMA       File off  Algn
  0 .isr_vector   000001a8  08000000  08000000  00010000  2**0
                  CONTENTS, ALLOC, LOAD, READONLY, DATA
  1 .text         00007714  080001b0  080001b0  000101b0  2**4
                  CONTENTS, ALLOC, LOAD, READONLY, CODE
  2 .rodata       000009a0  080078c4  080078c4  000178c4  2**2
                  CONTENTS, ALLOC, LOAD, READONLY, DATA
  3 .ARM.extab    00000000  08008264  08008264  000200d0  2**0
                  CONTENTS
  4 .ARM          00000000  08008264  08008264  000200d0  2**0
                  CONTENTS
  5 .preinit_array 00000000  08008264  08008264  000200d0  2**0
                  CONTENTS, ALLOC, LOAD, DATA
  6 .init_array   00000004  08008264  08008264  00018264  2**2
                  CONTENTS, ALLOC, LOAD, DATA
  7 .fini_array   00000004  08008268  08008268  00018268  2**2
                  CONTENTS, ALLOC, LOAD, DATA
  8 .data         000000d0  20000000  0800826c  00020000  2**2
                  CONTENTS, ALLOC, LOAD, DATA
  9 .bss          00001604  200000d0  0800833c  000200d0  2**2
                  ALLOC
 10 ._user_heap_stack 00000604  200016d4  0800833c  000216d4  2**0
                  ALLOC
 11 .ARM.attributes 00000030  00000000  00000000  000200d0  2**0
                  CONTENTS, READONLY
 12 .debug_info   000413b0  00000000  00000000  00020100  2**0
                  CONTENTS, READONLY, DEBUGGING, OCTETS
 13 .debug_abbrev 00003fcf  00000000  00000000  000614b0  2**0
                  CONTENTS, READONLY, DEBUGGING, OCTETS
 14 .debug_aranges 00001498  00000000  00000000  00065480  2**3
                  CONTENTS, READONLY, DEBUGGING, OCTETS
 15 .debug_ranges 00001210  00000000  00000000  00066918  2**3
                  CONTENTS, READONLY, DEBUGGING, OCTETS
 16 .debug_macro  00012eac  00000000  00000000  00067b28  2**0
                  CONTENTS, READONLY, DEBUGGING, OCTETS
 17 .debug_line   0000ee33  00000000  00000000  0007a9d4  2**0
                  CONTENTS, READONLY, DEBUGGING, OCTETS
 18 .debug_str    0005a5ef  00000000  00000000  00089807  2**0
                  CONTENTS, READONLY, DEBUGGING, OCTETS
 19 .comment      000000ce  00000000  00000000  000e3df6  2**0
                  CONTENTS, READONLY
 20 .debug_frame  00005728  00000000  00000000  000e3ec4  2**2
                  CONTENTS, READONLY, DEBUGGING, OCTETS

Disassembly of section .text:

080001b0 <__do_global_dtors_aux>:
 80001b0:	b510      	push	{r4, lr}
 80001b2:	4c05      	ldr	r4, [pc, #20]	; (80001c8 <__do_global_dtors_aux+0x18>)
 80001b4:	7823      	ldrb	r3, [r4, #0]
 80001b6:	b933      	cbnz	r3, 80001c6 <__do_global_dtors_aux+0x16>
 80001b8:	4b04      	ldr	r3, [pc, #16]	; (80001cc <__do_global_dtors_aux+0x1c>)
 80001ba:	b113      	cbz	r3, 80001c2 <__do_global_dtors_aux+0x12>
 80001bc:	4804      	ldr	r0, [pc, #16]	; (80001d0 <__do_global_dtors_aux+0x20>)
 80001be:	f3af 8000 	nop.w
 80001c2:	2301      	movs	r3, #1
 80001c4:	7023      	strb	r3, [r4, #0]
 80001c6:	bd10      	pop	{r4, pc}
 80001c8:	200000d0 	.word	0x200000d0
 80001cc:	00000000 	.word	0x00000000
 80001d0:	080078ac 	.word	0x080078ac

080001d4 <frame_dummy>:
 80001d4:	b508      	push	{r3, lr}
 80001d6:	4b03      	ldr	r3, [pc, #12]	; (80001e4 <frame_dummy+0x10>)
 80001d8:	b11b      	cbz	r3, 80001e2 <frame_dummy+0xe>
 80001da:	4903      	ldr	r1, [pc, #12]	; (80001e8 <frame_dummy+0x14>)
 80001dc:	4803      	ldr	r0, [pc, #12]	; (80001ec <frame_dummy+0x18>)
 80001de:	f3af 8000 	nop.w
 80001e2:	bd08      	pop	{r3, pc}
 80001e4:	00000000 	.word	0x00000000
 80001e8:	200000d4 	.word	0x200000d4
 80001ec:	080078ac 	.word	0x080078ac

080001f0 <memchr>:
 80001f0:	f001 01ff 	and.w	r1, r1, #255	; 0xff
 80001f4:	2a10      	cmp	r2, #16
 80001f6:	db2b      	blt.n	8000250 <memchr+0x60>
 80001f8:	f010 0f07 	tst.w	r0, #7
 80001fc:	d008      	beq.n	8000210 <memchr+0x20>
 80001fe:	f810 3b01 	ldrb.w	r3, [r0], #1
 8000202:	3a01      	subs	r2, #1
 8000204:	428b      	cmp	r3, r1
 8000206:	d02d      	beq.n	8000264 <memchr+0x74>
 8000208:	f010 0f07 	tst.w	r0, #7
 800020c:	b342      	cbz	r2, 8000260 <memchr+0x70>
 800020e:	d1f6      	bne.n	80001fe <memchr+0xe>
 8000210:	b4f0      	push	{r4, r5, r6, r7}
 8000212:	ea41 2101 	orr.w	r1, r1, r1, lsl #8
 8000216:	ea41 4101 	orr.w	r1, r1, r1, lsl #16
 800021a:	f022 0407 	bic.w	r4, r2, #7
 800021e:	f07f 0700 	mvns.w	r7, #0
 8000222:	2300      	movs	r3, #0
 8000224:	e8f0 5602 	ldrd	r5, r6, [r0], #8
 8000228:	3c08      	subs	r4, #8
 800022a:	ea85 0501 	eor.w	r5, r5, r1
 800022e:	ea86 0601 	eor.w	r6, r6, r1
 8000232:	fa85 f547 	uadd8	r5, r5, r7
 8000236:	faa3 f587 	sel	r5, r3, r7
 800023a:	fa86 f647 	uadd8	r6, r6, r7
 800023e:	faa5 f687 	sel	r6, r5, r7
 8000242:	b98e      	cbnz	r6, 8000268 <memchr+0x78>
 8000244:	d1ee      	bne.n	8000224 <memchr+0x34>
 8000246:	bcf0      	pop	{r4, r5, r6, r7}
 8000248:	f001 01ff 	and.w	r1, r1, #255	; 0xff
 800024c:	f002 0207 	and.w	r2, r2, #7
 8000250:	b132      	cbz	r2, 8000260 <memchr+0x70>
 8000252:	f810 3b01 	ldrb.w	r3, [r0], #1
 8000256:	3a01      	subs	r2, #1
 8000258:	ea83 0301 	eor.w	r3, r3, r1
 800025c:	b113      	cbz	r3, 8000264 <memchr+0x74>
 800025e:	d1f8      	bne.n	8000252 <memchr+0x62>
 8000260:	2000      	movs	r0, #0
 8000262:	4770      	bx	lr
 8000264:	3801      	subs	r0, #1
 8000266:	4770      	bx	lr
 8000268:	2d00      	cmp	r5, #0
 800026a:	bf06      	itte	eq
 800026c:	4635      	moveq	r5, r6
 800026e:	3803      	subeq	r0, #3
 8000270:	3807      	subne	r0, #7
 8000272:	f015 0f01 	tst.w	r5, #1
 8000276:	d107      	bne.n	8000288 <memchr+0x98>
 8000278:	3001      	adds	r0, #1
 800027a:	f415 7f80 	tst.w	r5, #256	; 0x100
 800027e:	bf02      	ittt	eq
 8000280:	3001      	addeq	r0, #1
 8000282:	f415 3fc0 	tsteq.w	r5, #98304	; 0x18000
 8000286:	3001      	addeq	r0, #1
 8000288:	bcf0      	pop	{r4, r5, r6, r7}
 800028a:	3801      	subs	r0, #1
 800028c:	4770      	bx	lr
 800028e:	bf00      	nop

08000290 <Task_mustiSensorScan>:
 * @retval			None
 * */

static void
Task_mustiSensorScan(void)
{
 8000290:	b580      	push	{r7, lr}
 8000292:	b082      	sub	sp, #8
 8000294:	af02      	add	r7, sp, #8
	ucg_SetFont(&ucg, ucg_font_ncenR12_hr);
 8000296:	4938      	ldr	r1, [pc, #224]	; (8000378 <Task_mustiSensorScan+0xe8>)
 8000298:	4838      	ldr	r0, [pc, #224]	; (800037c <Task_mustiSensorScan+0xec>)
 800029a:	f003 ffdf 	bl	800425c <ucg_SetFont>
	static char src1[20] = "";
	static char src2[20] = "";
	static char src3[20] = "";
	temperature = (uint8_t)(TemHumSensor_GetTemp() / 100);
 800029e:	f001 fee1 	bl	8002064 <TemHumSensor_GetTemp>
 80002a2:	4603      	mov	r3, r0
 80002a4:	4a36      	ldr	r2, [pc, #216]	; (8000380 <Task_mustiSensorScan+0xf0>)
 80002a6:	fba2 2303 	umull	r2, r3, r2, r3
 80002aa:	095b      	lsrs	r3, r3, #5
 80002ac:	b2db      	uxtb	r3, r3
 80002ae:	461a      	mov	r2, r3
 80002b0:	4b34      	ldr	r3, [pc, #208]	; (8000384 <Task_mustiSensorScan+0xf4>)
 80002b2:	601a      	str	r2, [r3, #0]
	humidity = (uint8_t)(TemHumSensor_GetHumi() / 100);
 80002b4:	f001 ff14 	bl	80020e0 <TemHumSensor_GetHumi>
 80002b8:	4603      	mov	r3, r0
 80002ba:	4a31      	ldr	r2, [pc, #196]	; (8000380 <Task_mustiSensorScan+0xf0>)
 80002bc:	fba2 2303 	umull	r2, r3, r2, r3
 80002c0:	095b      	lsrs	r3, r3, #5
 80002c2:	b2db      	uxtb	r3, r3
 80002c4:	461a      	mov	r2, r3
 80002c6:	4b30      	ldr	r3, [pc, #192]	; (8000388 <Task_mustiSensorScan+0xf8>)
 80002c8:	601a      	str	r2, [r3, #0]
	light  = LightSensor_MeasureUseDMAMode();
 80002ca:	f001 fe67 	bl	8001f9c <LightSensor_MeasureUseDMAMode>
 80002ce:	4603      	mov	r3, r0
 80002d0:	461a      	mov	r2, r3
 80002d2:	4b2e      	ldr	r3, [pc, #184]	; (800038c <Task_mustiSensorScan+0xfc>)
 80002d4:	601a      	str	r2, [r3, #0]
	// Display output
	memset(src1, 0 , sizeof(src1));
 80002d6:	2214      	movs	r2, #20
 80002d8:	2100      	movs	r1, #0
 80002da:	482d      	ldr	r0, [pc, #180]	; (8000390 <Task_mustiSensorScan+0x100>)
 80002dc:	f006 feb0 	bl	8007040 <memset>
	sprintf(src1, "Temp = %ld oC", temperature);
 80002e0:	4b28      	ldr	r3, [pc, #160]	; (8000384 <Task_mustiSensorScan+0xf4>)
 80002e2:	681b      	ldr	r3, [r3, #0]
 80002e4:	461a      	mov	r2, r3
 80002e6:	492b      	ldr	r1, [pc, #172]	; (8000394 <Task_mustiSensorScan+0x104>)
 80002e8:	4829      	ldr	r0, [pc, #164]	; (8000390 <Task_mustiSensorScan+0x100>)
 80002ea:	f006 feb1 	bl	8007050 <siprintf>
	ucg_DrawString(&ucg, 0, 32, 0, src1);
 80002ee:	4b28      	ldr	r3, [pc, #160]	; (8000390 <Task_mustiSensorScan+0x100>)
 80002f0:	9300      	str	r3, [sp, #0]
 80002f2:	2300      	movs	r3, #0
 80002f4:	2220      	movs	r2, #32
 80002f6:	2100      	movs	r1, #0
 80002f8:	4820      	ldr	r0, [pc, #128]	; (800037c <Task_mustiSensorScan+0xec>)
 80002fa:	f003 feeb 	bl	80040d4 <ucg_DrawString>

	memset(src2, 0, sizeof(src2));
 80002fe:	2214      	movs	r2, #20
 8000300:	2100      	movs	r1, #0
 8000302:	4825      	ldr	r0, [pc, #148]	; (8000398 <Task_mustiSensorScan+0x108>)
 8000304:	f006 fe9c 	bl	8007040 <memset>
	sprintf(src2, "Humi = %ld %%", humidity);
 8000308:	4b1f      	ldr	r3, [pc, #124]	; (8000388 <Task_mustiSensorScan+0xf8>)
 800030a:	681b      	ldr	r3, [r3, #0]
 800030c:	461a      	mov	r2, r3
 800030e:	4923      	ldr	r1, [pc, #140]	; (800039c <Task_mustiSensorScan+0x10c>)
 8000310:	4821      	ldr	r0, [pc, #132]	; (8000398 <Task_mustiSensorScan+0x108>)
 8000312:	f006 fe9d 	bl	8007050 <siprintf>
	ucg_DrawString(&ucg, 0, 52, 0, src2);
 8000316:	4b20      	ldr	r3, [pc, #128]	; (8000398 <Task_mustiSensorScan+0x108>)
 8000318:	9300      	str	r3, [sp, #0]
 800031a:	2300      	movs	r3, #0
 800031c:	2234      	movs	r2, #52	; 0x34
 800031e:	2100      	movs	r1, #0
 8000320:	4816      	ldr	r0, [pc, #88]	; (800037c <Task_mustiSensorScan+0xec>)
 8000322:	f003 fed7 	bl	80040d4 <ucg_DrawString>

	memset(src3, 0 , sizeof(src3));
 8000326:	2214      	movs	r2, #20
 8000328:	2100      	movs	r1, #0
 800032a:	481d      	ldr	r0, [pc, #116]	; (80003a0 <Task_mustiSensorScan+0x110>)
 800032c:	f006 fe88 	bl	8007040 <memset>
	sprintf(src3, "Light = %ld lux", light);
 8000330:	4b16      	ldr	r3, [pc, #88]	; (800038c <Task_mustiSensorScan+0xfc>)
 8000332:	681b      	ldr	r3, [r3, #0]
 8000334:	461a      	mov	r2, r3
 8000336:	491b      	ldr	r1, [pc, #108]	; (80003a4 <Task_mustiSensorScan+0x114>)
 8000338:	4819      	ldr	r0, [pc, #100]	; (80003a0 <Task_mustiSensorScan+0x110>)
 800033a:	f006 fe89 	bl	8007050 <siprintf>
	ucg_DrawString(&ucg, 0, 72, 0, src3);
 800033e:	4b18      	ldr	r3, [pc, #96]	; (80003a0 <Task_mustiSensorScan+0x110>)
 8000340:	9300      	str	r3, [sp, #0]
 8000342:	2300      	movs	r3, #0
 8000344:	2248      	movs	r2, #72	; 0x48
 8000346:	2100      	movs	r1, #0
 8000348:	480c      	ldr	r0, [pc, #48]	; (800037c <Task_mustiSensorScan+0xec>)
 800034a:	f003 fec3 	bl	80040d4 <ucg_DrawString>
	LightSensor_SendPacketRespond(light);
 800034e:	4b0f      	ldr	r3, [pc, #60]	; (800038c <Task_mustiSensorScan+0xfc>)
 8000350:	681b      	ldr	r3, [r3, #0]
 8000352:	b29b      	uxth	r3, r3
 8000354:	4618      	mov	r0, r3
 8000356:	f001 fe2d 	bl	8001fb4 <LightSensor_SendPacketRespond>
	TempSensor_SendPacketRespond(temperature);
 800035a:	4b0a      	ldr	r3, [pc, #40]	; (8000384 <Task_mustiSensorScan+0xf4>)
 800035c:	681b      	ldr	r3, [r3, #0]
 800035e:	b29b      	uxth	r3, r3
 8000360:	4618      	mov	r0, r3
 8000362:	f001 fe48 	bl	8001ff6 <TempSensor_SendPacketRespond>
	HumiSensor_SendPacketRespond(humidity);
 8000366:	4b08      	ldr	r3, [pc, #32]	; (8000388 <Task_mustiSensorScan+0xf8>)
 8000368:	681b      	ldr	r3, [r3, #0]
 800036a:	b29b      	uxth	r3, r3
 800036c:	4618      	mov	r0, r3
 800036e:	f001 fe5d 	bl	800202c <HumiSensor_SendPacketRespond>
}
 8000372:	bf00      	nop
 8000374:	46bd      	mov	sp, r7
 8000376:	bd80      	pop	{r7, pc}
 8000378:	08007a88 	.word	0x08007a88
 800037c:	200000ec 	.word	0x200000ec
 8000380:	51eb851f 	.word	0x51eb851f
 8000384:	200001ac 	.word	0x200001ac
 8000388:	200001b0 	.word	0x200001b0
 800038c:	200001a8 	.word	0x200001a8
 8000390:	200001b4 	.word	0x200001b4
 8000394:	080078c4 	.word	0x080078c4
 8000398:	200001c8 	.word	0x200001c8
 800039c:	080078d4 	.word	0x080078d4
 80003a0:	200001dc 	.word	0x200001dc
 80003a4:	080078e4 	.word	0x080078e4

080003a8 <LedCmdSetState>:
		 uint8_t led_color, \
		 uint8_t led_num_blink, \
		 uint8_t led_interval, \
		 uint8_t led_last_state
)
{
 80003a8:	b590      	push	{r4, r7, lr}
 80003aa:	b085      	sub	sp, #20
 80003ac:	af02      	add	r7, sp, #8
 80003ae:	4604      	mov	r4, r0
 80003b0:	4608      	mov	r0, r1
 80003b2:	4611      	mov	r1, r2
 80003b4:	461a      	mov	r2, r3
 80003b6:	4623      	mov	r3, r4
 80003b8:	71fb      	strb	r3, [r7, #7]
 80003ba:	4603      	mov	r3, r0
 80003bc:	71bb      	strb	r3, [r7, #6]
 80003be:	460b      	mov	r3, r1
 80003c0:	717b      	strb	r3, [r7, #5]
 80003c2:	4613      	mov	r3, r2
 80003c4:	713b      	strb	r3, [r7, #4]
	if(led_color == LED_COLOR_RED)
 80003c6:	79bb      	ldrb	r3, [r7, #6]
 80003c8:	2b00      	cmp	r3, #0
 80003ca:	d12c      	bne.n	8000426 <LedCmdSetState+0x7e>
	{
		lux_red = 50 - lux_red;
 80003cc:	4b65      	ldr	r3, [pc, #404]	; (8000564 <LedCmdSetState+0x1bc>)
 80003ce:	781b      	ldrb	r3, [r3, #0]
 80003d0:	f1c3 0332 	rsb	r3, r3, #50	; 0x32
 80003d4:	b2da      	uxtb	r2, r3
 80003d6:	4b63      	ldr	r3, [pc, #396]	; (8000564 <LedCmdSetState+0x1bc>)
 80003d8:	701a      	strb	r2, [r3, #0]
		// set off all led
		lux_blue = lux_white = lux_green = 0;
 80003da:	4b63      	ldr	r3, [pc, #396]	; (8000568 <LedCmdSetState+0x1c0>)
 80003dc:	2200      	movs	r2, #0
 80003de:	701a      	strb	r2, [r3, #0]
 80003e0:	4b61      	ldr	r3, [pc, #388]	; (8000568 <LedCmdSetState+0x1c0>)
 80003e2:	781a      	ldrb	r2, [r3, #0]
 80003e4:	4b61      	ldr	r3, [pc, #388]	; (800056c <LedCmdSetState+0x1c4>)
 80003e6:	701a      	strb	r2, [r3, #0]
 80003e8:	4b60      	ldr	r3, [pc, #384]	; (800056c <LedCmdSetState+0x1c4>)
 80003ea:	781a      	ldrb	r2, [r3, #0]
 80003ec:	4b60      	ldr	r3, [pc, #384]	; (8000570 <LedCmdSetState+0x1c8>)
 80003ee:	701a      	strb	r2, [r3, #0]
		///////////////////////////////////////
		LedControl_SetAllColor(LED_COLOR_RED, lux_red);
 80003f0:	4b5c      	ldr	r3, [pc, #368]	; (8000564 <LedCmdSetState+0x1bc>)
 80003f2:	781b      	ldrb	r3, [r3, #0]
 80003f4:	4619      	mov	r1, r3
 80003f6:	2000      	movs	r0, #0
 80003f8:	f001 f9a6 	bl	8001748 <LedControl_SetAllColor>
		BuzzerControl_SendPacketRespond(1);
 80003fc:	2001      	movs	r0, #1
 80003fe:	f000 feaf 	bl	8001160 <BuzzerControl_SendPacketRespond>
		BuzzerControl_SetMelody(pbeep);
 8000402:	485c      	ldr	r0, [pc, #368]	; (8000574 <LedCmdSetState+0x1cc>)
 8000404:	f000 fe8e 	bl	8001124 <BuzzerControl_SetMelody>
		LedControl_SendPacketRespond(LED_KIT_ID0, LED_COLOR_RED, lux_red);
 8000408:	4b56      	ldr	r3, [pc, #344]	; (8000564 <LedCmdSetState+0x1bc>)
 800040a:	781b      	ldrb	r3, [r3, #0]
 800040c:	461a      	mov	r2, r3
 800040e:	2100      	movs	r1, #0
 8000410:	2001      	movs	r0, #1
 8000412:	f001 f9b4 	bl	800177e <LedControl_SendPacketRespond>
		LedControl_SendPacketRespond(LED_KIT_ID1, LED_COLOR_RED, lux_red);
 8000416:	4b53      	ldr	r3, [pc, #332]	; (8000564 <LedCmdSetState+0x1bc>)
 8000418:	781b      	ldrb	r3, [r3, #0]
 800041a:	461a      	mov	r2, r3
 800041c:	2100      	movs	r1, #0
 800041e:	2002      	movs	r0, #2
 8000420:	f001 f9ad 	bl	800177e <LedControl_SendPacketRespond>
		LedControl_SendPacketRespond(LED_KIT_ID0, LED_COLOR_BLUE, lux_blue);
		LedControl_SendPacketRespond(LED_KIT_ID1, LED_COLOR_BLUE, lux_blue);
	}
	else
		LedControl_BlinkStart(led_id, led_color, led_num_blink, led_interval, led_last_state);
}
 8000424:	e099      	b.n	800055a <LedCmdSetState+0x1b2>
	else if(led_color == LED_COLOR_GREEN)
 8000426:	79bb      	ldrb	r3, [r7, #6]
 8000428:	2b01      	cmp	r3, #1
 800042a:	d12c      	bne.n	8000486 <LedCmdSetState+0xde>
		lux_green = 50 - lux_green;
 800042c:	4b4e      	ldr	r3, [pc, #312]	; (8000568 <LedCmdSetState+0x1c0>)
 800042e:	781b      	ldrb	r3, [r3, #0]
 8000430:	f1c3 0332 	rsb	r3, r3, #50	; 0x32
 8000434:	b2da      	uxtb	r2, r3
 8000436:	4b4c      	ldr	r3, [pc, #304]	; (8000568 <LedCmdSetState+0x1c0>)
 8000438:	701a      	strb	r2, [r3, #0]
		lux_blue = lux_white = lux_red = 0;
 800043a:	4b4a      	ldr	r3, [pc, #296]	; (8000564 <LedCmdSetState+0x1bc>)
 800043c:	2200      	movs	r2, #0
 800043e:	701a      	strb	r2, [r3, #0]
 8000440:	4b48      	ldr	r3, [pc, #288]	; (8000564 <LedCmdSetState+0x1bc>)
 8000442:	781a      	ldrb	r2, [r3, #0]
 8000444:	4b49      	ldr	r3, [pc, #292]	; (800056c <LedCmdSetState+0x1c4>)
 8000446:	701a      	strb	r2, [r3, #0]
 8000448:	4b48      	ldr	r3, [pc, #288]	; (800056c <LedCmdSetState+0x1c4>)
 800044a:	781a      	ldrb	r2, [r3, #0]
 800044c:	4b48      	ldr	r3, [pc, #288]	; (8000570 <LedCmdSetState+0x1c8>)
 800044e:	701a      	strb	r2, [r3, #0]
		LedControl_SetAllColor(LED_COLOR_GREEN, lux_green);
 8000450:	4b45      	ldr	r3, [pc, #276]	; (8000568 <LedCmdSetState+0x1c0>)
 8000452:	781b      	ldrb	r3, [r3, #0]
 8000454:	4619      	mov	r1, r3
 8000456:	2001      	movs	r0, #1
 8000458:	f001 f976 	bl	8001748 <LedControl_SetAllColor>
		BuzzerControl_SendPacketRespond(1);
 800045c:	2001      	movs	r0, #1
 800045e:	f000 fe7f 	bl	8001160 <BuzzerControl_SendPacketRespond>
		BuzzerControl_SetMelody(pbeep);
 8000462:	4844      	ldr	r0, [pc, #272]	; (8000574 <LedCmdSetState+0x1cc>)
 8000464:	f000 fe5e 	bl	8001124 <BuzzerControl_SetMelody>
		LedControl_SendPacketRespond(LED_KIT_ID0, LED_COLOR_GREEN, lux_green);
 8000468:	4b3f      	ldr	r3, [pc, #252]	; (8000568 <LedCmdSetState+0x1c0>)
 800046a:	781b      	ldrb	r3, [r3, #0]
 800046c:	461a      	mov	r2, r3
 800046e:	2101      	movs	r1, #1
 8000470:	2001      	movs	r0, #1
 8000472:	f001 f984 	bl	800177e <LedControl_SendPacketRespond>
		LedControl_SendPacketRespond(LED_KIT_ID1, LED_COLOR_GREEN, lux_green);
 8000476:	4b3c      	ldr	r3, [pc, #240]	; (8000568 <LedCmdSetState+0x1c0>)
 8000478:	781b      	ldrb	r3, [r3, #0]
 800047a:	461a      	mov	r2, r3
 800047c:	2101      	movs	r1, #1
 800047e:	2002      	movs	r0, #2
 8000480:	f001 f97d 	bl	800177e <LedControl_SendPacketRespond>
}
 8000484:	e069      	b.n	800055a <LedCmdSetState+0x1b2>
	else if(led_color == LED_COLOR_WHITE)
 8000486:	79bb      	ldrb	r3, [r7, #6]
 8000488:	2b03      	cmp	r3, #3
 800048a:	d12c      	bne.n	80004e6 <LedCmdSetState+0x13e>
		lux_white = 50 - lux_white;
 800048c:	4b37      	ldr	r3, [pc, #220]	; (800056c <LedCmdSetState+0x1c4>)
 800048e:	781b      	ldrb	r3, [r3, #0]
 8000490:	f1c3 0332 	rsb	r3, r3, #50	; 0x32
 8000494:	b2da      	uxtb	r2, r3
 8000496:	4b35      	ldr	r3, [pc, #212]	; (800056c <LedCmdSetState+0x1c4>)
 8000498:	701a      	strb	r2, [r3, #0]
		lux_blue = lux_red = lux_green = 0;
 800049a:	4b33      	ldr	r3, [pc, #204]	; (8000568 <LedCmdSetState+0x1c0>)
 800049c:	2200      	movs	r2, #0
 800049e:	701a      	strb	r2, [r3, #0]
 80004a0:	4b31      	ldr	r3, [pc, #196]	; (8000568 <LedCmdSetState+0x1c0>)
 80004a2:	781a      	ldrb	r2, [r3, #0]
 80004a4:	4b2f      	ldr	r3, [pc, #188]	; (8000564 <LedCmdSetState+0x1bc>)
 80004a6:	701a      	strb	r2, [r3, #0]
 80004a8:	4b2e      	ldr	r3, [pc, #184]	; (8000564 <LedCmdSetState+0x1bc>)
 80004aa:	781a      	ldrb	r2, [r3, #0]
 80004ac:	4b30      	ldr	r3, [pc, #192]	; (8000570 <LedCmdSetState+0x1c8>)
 80004ae:	701a      	strb	r2, [r3, #0]
		LedControl_SetAllColor(LED_COLOR_WHITE, lux_white);
 80004b0:	4b2e      	ldr	r3, [pc, #184]	; (800056c <LedCmdSetState+0x1c4>)
 80004b2:	781b      	ldrb	r3, [r3, #0]
 80004b4:	4619      	mov	r1, r3
 80004b6:	2003      	movs	r0, #3
 80004b8:	f001 f946 	bl	8001748 <LedControl_SetAllColor>
		BuzzerControl_SendPacketRespond(1);
 80004bc:	2001      	movs	r0, #1
 80004be:	f000 fe4f 	bl	8001160 <BuzzerControl_SendPacketRespond>
		BuzzerControl_SetMelody(pbeep);
 80004c2:	482c      	ldr	r0, [pc, #176]	; (8000574 <LedCmdSetState+0x1cc>)
 80004c4:	f000 fe2e 	bl	8001124 <BuzzerControl_SetMelody>
		LedControl_SendPacketRespond(LED_KIT_ID0, LED_COLOR_WHITE, lux_white);
 80004c8:	4b28      	ldr	r3, [pc, #160]	; (800056c <LedCmdSetState+0x1c4>)
 80004ca:	781b      	ldrb	r3, [r3, #0]
 80004cc:	461a      	mov	r2, r3
 80004ce:	2103      	movs	r1, #3
 80004d0:	2001      	movs	r0, #1
 80004d2:	f001 f954 	bl	800177e <LedControl_SendPacketRespond>
		LedControl_SendPacketRespond(LED_KIT_ID1, LED_COLOR_WHITE, lux_white);
 80004d6:	4b25      	ldr	r3, [pc, #148]	; (800056c <LedCmdSetState+0x1c4>)
 80004d8:	781b      	ldrb	r3, [r3, #0]
 80004da:	461a      	mov	r2, r3
 80004dc:	2103      	movs	r1, #3
 80004de:	2002      	movs	r0, #2
 80004e0:	f001 f94d 	bl	800177e <LedControl_SendPacketRespond>
}
 80004e4:	e039      	b.n	800055a <LedCmdSetState+0x1b2>
	else if(led_color == LED_COLOR_BLUE)
 80004e6:	79bb      	ldrb	r3, [r7, #6]
 80004e8:	2b02      	cmp	r3, #2
 80004ea:	d12c      	bne.n	8000546 <LedCmdSetState+0x19e>
		lux_blue = 50 -lux_blue;
 80004ec:	4b20      	ldr	r3, [pc, #128]	; (8000570 <LedCmdSetState+0x1c8>)
 80004ee:	781b      	ldrb	r3, [r3, #0]
 80004f0:	f1c3 0332 	rsb	r3, r3, #50	; 0x32
 80004f4:	b2da      	uxtb	r2, r3
 80004f6:	4b1e      	ldr	r3, [pc, #120]	; (8000570 <LedCmdSetState+0x1c8>)
 80004f8:	701a      	strb	r2, [r3, #0]
		lux_red = lux_white = lux_green = 0;
 80004fa:	4b1b      	ldr	r3, [pc, #108]	; (8000568 <LedCmdSetState+0x1c0>)
 80004fc:	2200      	movs	r2, #0
 80004fe:	701a      	strb	r2, [r3, #0]
 8000500:	4b19      	ldr	r3, [pc, #100]	; (8000568 <LedCmdSetState+0x1c0>)
 8000502:	781a      	ldrb	r2, [r3, #0]
 8000504:	4b19      	ldr	r3, [pc, #100]	; (800056c <LedCmdSetState+0x1c4>)
 8000506:	701a      	strb	r2, [r3, #0]
 8000508:	4b18      	ldr	r3, [pc, #96]	; (800056c <LedCmdSetState+0x1c4>)
 800050a:	781a      	ldrb	r2, [r3, #0]
 800050c:	4b15      	ldr	r3, [pc, #84]	; (8000564 <LedCmdSetState+0x1bc>)
 800050e:	701a      	strb	r2, [r3, #0]
		LedControl_SetAllColor(LED_COLOR_BLUE, lux_blue);
 8000510:	4b17      	ldr	r3, [pc, #92]	; (8000570 <LedCmdSetState+0x1c8>)
 8000512:	781b      	ldrb	r3, [r3, #0]
 8000514:	4619      	mov	r1, r3
 8000516:	2002      	movs	r0, #2
 8000518:	f001 f916 	bl	8001748 <LedControl_SetAllColor>
		BuzzerControl_SendPacketRespond(1);
 800051c:	2001      	movs	r0, #1
 800051e:	f000 fe1f 	bl	8001160 <BuzzerControl_SendPacketRespond>
		BuzzerControl_SetMelody(pbeep);
 8000522:	4814      	ldr	r0, [pc, #80]	; (8000574 <LedCmdSetState+0x1cc>)
 8000524:	f000 fdfe 	bl	8001124 <BuzzerControl_SetMelody>
		LedControl_SendPacketRespond(LED_KIT_ID0, LED_COLOR_BLUE, lux_blue);
 8000528:	4b11      	ldr	r3, [pc, #68]	; (8000570 <LedCmdSetState+0x1c8>)
 800052a:	781b      	ldrb	r3, [r3, #0]
 800052c:	461a      	mov	r2, r3
 800052e:	2102      	movs	r1, #2
 8000530:	2001      	movs	r0, #1
 8000532:	f001 f924 	bl	800177e <LedControl_SendPacketRespond>
		LedControl_SendPacketRespond(LED_KIT_ID1, LED_COLOR_BLUE, lux_blue);
 8000536:	4b0e      	ldr	r3, [pc, #56]	; (8000570 <LedCmdSetState+0x1c8>)
 8000538:	781b      	ldrb	r3, [r3, #0]
 800053a:	461a      	mov	r2, r3
 800053c:	2102      	movs	r1, #2
 800053e:	2002      	movs	r0, #2
 8000540:	f001 f91d 	bl	800177e <LedControl_SendPacketRespond>
}
 8000544:	e009      	b.n	800055a <LedCmdSetState+0x1b2>
		LedControl_BlinkStart(led_id, led_color, led_num_blink, led_interval, led_last_state);
 8000546:	793b      	ldrb	r3, [r7, #4]
 8000548:	b29c      	uxth	r4, r3
 800054a:	797a      	ldrb	r2, [r7, #5]
 800054c:	79b9      	ldrb	r1, [r7, #6]
 800054e:	79f8      	ldrb	r0, [r7, #7]
 8000550:	7e3b      	ldrb	r3, [r7, #24]
 8000552:	9300      	str	r3, [sp, #0]
 8000554:	4623      	mov	r3, r4
 8000556:	f001 f8b9 	bl	80016cc <LedControl_BlinkStart>
}
 800055a:	bf00      	nop
 800055c:	370c      	adds	r7, #12
 800055e:	46bd      	mov	sp, r7
 8000560:	bd90      	pop	{r4, r7, pc}
 8000562:	bf00      	nop
 8000564:	200001a1 	.word	0x200001a1
 8000568:	200001a4 	.word	0x200001a4
 800056c:	200001a3 	.word	0x200001a3
 8000570:	200001a2 	.word	0x200001a2
 8000574:	2000001c 	.word	0x2000001c

08000578 <BuzzerCmdSetState>:
 * @brief			Set event buzzer with Uart
 * @param			uint8_t buzzer_state
 * */
void BuzzerCmdSetState(
		uint8_t buzzer_state
){
 8000578:	b580      	push	{r7, lr}
 800057a:	b082      	sub	sp, #8
 800057c:	af00      	add	r7, sp, #0
 800057e:	4603      	mov	r3, r0
 8000580:	71fb      	strb	r3, [r7, #7]
	BuzzerControl_SetMelody(pbeep);
 8000582:	4803      	ldr	r0, [pc, #12]	; (8000590 <BuzzerCmdSetState+0x18>)
 8000584:	f000 fdce 	bl	8001124 <BuzzerControl_SetMelody>
}
 8000588:	bf00      	nop
 800058a:	3708      	adds	r7, #8
 800058c:	46bd      	mov	sp, r7
 800058e:	bd80      	pop	{r7, pc}
 8000590:	2000001c 	.word	0x2000001c

08000594 <LcdCmdSetState>:
 * @brief			Set event lcd with Uart
 * @param			char*	text
 * */
void LcdCmdSetState(
		char *text
){
 8000594:	b580      	push	{r7, lr}
 8000596:	b084      	sub	sp, #16
 8000598:	af02      	add	r7, sp, #8
 800059a:	6078      	str	r0, [r7, #4]
	// Stop MultiSensorScan
	if(id_timer != NO_TIMER)
 800059c:	4b0d      	ldr	r3, [pc, #52]	; (80005d4 <LcdCmdSetState+0x40>)
 800059e:	781b      	ldrb	r3, [r3, #0]
 80005a0:	2bff      	cmp	r3, #255	; 0xff
 80005a2:	d007      	beq.n	80005b4 <LcdCmdSetState+0x20>
	{
		TimerStop(id_timer);
 80005a4:	4b0b      	ldr	r3, [pc, #44]	; (80005d4 <LcdCmdSetState+0x40>)
 80005a6:	781b      	ldrb	r3, [r3, #0]
 80005a8:	4618      	mov	r0, r3
 80005aa:	f001 faff 	bl	8001bac <TimerStop>
		id_timer = NO_TIMER;
 80005ae:	4b09      	ldr	r3, [pc, #36]	; (80005d4 <LcdCmdSetState+0x40>)
 80005b0:	22ff      	movs	r2, #255	; 0xff
 80005b2:	701a      	strb	r2, [r3, #0]
	}
	ucg_ClearScreen(&ucg);
 80005b4:	4808      	ldr	r0, [pc, #32]	; (80005d8 <LcdCmdSetState+0x44>)
 80005b6:	f002 fd38 	bl	800302a <ucg_ClearScreen>
	ucg_DrawString(&ucg, 20, 20, 0, text);
 80005ba:	687b      	ldr	r3, [r7, #4]
 80005bc:	9300      	str	r3, [sp, #0]
 80005be:	2300      	movs	r3, #0
 80005c0:	2214      	movs	r2, #20
 80005c2:	2114      	movs	r1, #20
 80005c4:	4804      	ldr	r0, [pc, #16]	; (80005d8 <LcdCmdSetState+0x44>)
 80005c6:	f003 fd85 	bl	80040d4 <ucg_DrawString>
}
 80005ca:	bf00      	nop
 80005cc:	3708      	adds	r7, #8
 80005ce:	46bd      	mov	sp, r7
 80005d0:	bd80      	pop	{r7, pc}
 80005d2:	bf00      	nop
 80005d4:	20000000 	.word	0x20000000
 80005d8:	200000ec 	.word	0x200000ec

080005dc <ButtonCmdSetState>:
 * 					uint8_t button_state
 */
void ButtonCmdSetState(
		uint8_t button_id,
		uint8_t button_state
){
 80005dc:	b580      	push	{r7, lr}
 80005de:	b084      	sub	sp, #16
 80005e0:	af02      	add	r7, sp, #8
 80005e2:	4603      	mov	r3, r0
 80005e4:	460a      	mov	r2, r1
 80005e6:	71fb      	strb	r3, [r7, #7]
 80005e8:	4613      	mov	r3, r2
 80005ea:	71bb      	strb	r3, [r7, #6]
	if(button_id == BUTTON_KIT_ID1)
 80005ec:	79fb      	ldrb	r3, [r7, #7]
 80005ee:	2b01      	cmp	r3, #1
 80005f0:	d12c      	bne.n	800064c <ButtonCmdSetState+0x70>
	{
		lux_red = 50 - lux_red;
 80005f2:	4b6b      	ldr	r3, [pc, #428]	; (80007a0 <ButtonCmdSetState+0x1c4>)
 80005f4:	781b      	ldrb	r3, [r3, #0]
 80005f6:	f1c3 0332 	rsb	r3, r3, #50	; 0x32
 80005fa:	b2da      	uxtb	r2, r3
 80005fc:	4b68      	ldr	r3, [pc, #416]	; (80007a0 <ButtonCmdSetState+0x1c4>)
 80005fe:	701a      	strb	r2, [r3, #0]
		// set off all led
		lux_blue = lux_white = lux_green = 0;
 8000600:	4b68      	ldr	r3, [pc, #416]	; (80007a4 <ButtonCmdSetState+0x1c8>)
 8000602:	2200      	movs	r2, #0
 8000604:	701a      	strb	r2, [r3, #0]
 8000606:	4b67      	ldr	r3, [pc, #412]	; (80007a4 <ButtonCmdSetState+0x1c8>)
 8000608:	781a      	ldrb	r2, [r3, #0]
 800060a:	4b67      	ldr	r3, [pc, #412]	; (80007a8 <ButtonCmdSetState+0x1cc>)
 800060c:	701a      	strb	r2, [r3, #0]
 800060e:	4b66      	ldr	r3, [pc, #408]	; (80007a8 <ButtonCmdSetState+0x1cc>)
 8000610:	781a      	ldrb	r2, [r3, #0]
 8000612:	4b66      	ldr	r3, [pc, #408]	; (80007ac <ButtonCmdSetState+0x1d0>)
 8000614:	701a      	strb	r2, [r3, #0]
		///////////////////////////////////////
		LedControl_SetAllColor(LED_COLOR_RED, lux_red);
 8000616:	4b62      	ldr	r3, [pc, #392]	; (80007a0 <ButtonCmdSetState+0x1c4>)
 8000618:	781b      	ldrb	r3, [r3, #0]
 800061a:	4619      	mov	r1, r3
 800061c:	2000      	movs	r0, #0
 800061e:	f001 f893 	bl	8001748 <LedControl_SetAllColor>
		BuzzerControl_SendPacketRespond(1);
 8000622:	2001      	movs	r0, #1
 8000624:	f000 fd9c 	bl	8001160 <BuzzerControl_SendPacketRespond>
		BuzzerControl_SetMelody(pbeep);
 8000628:	4861      	ldr	r0, [pc, #388]	; (80007b0 <ButtonCmdSetState+0x1d4>)
 800062a:	f000 fd7b 	bl	8001124 <BuzzerControl_SetMelody>
		LedControl_SendPacketRespond(LED_KIT_ID0, LED_COLOR_RED, lux_red);
 800062e:	4b5c      	ldr	r3, [pc, #368]	; (80007a0 <ButtonCmdSetState+0x1c4>)
 8000630:	781b      	ldrb	r3, [r3, #0]
 8000632:	461a      	mov	r2, r3
 8000634:	2100      	movs	r1, #0
 8000636:	2001      	movs	r0, #1
 8000638:	f001 f8a1 	bl	800177e <LedControl_SendPacketRespond>
		LedControl_SendPacketRespond(LED_KIT_ID1, LED_COLOR_RED, lux_red);
 800063c:	4b58      	ldr	r3, [pc, #352]	; (80007a0 <ButtonCmdSetState+0x1c4>)
 800063e:	781b      	ldrb	r3, [r3, #0]
 8000640:	461a      	mov	r2, r3
 8000642:	2100      	movs	r1, #0
 8000644:	2002      	movs	r0, #2
 8000646:	f001 f89a 	bl	800177e <LedControl_SendPacketRespond>
		ucg_ClearScreen(&ucg);
		Task_mustiSensorScan();
		if(id_timer == NO_TIMER)
		id_timer = TimerStart("EVENT_OF_BUTTON_3_PRESS_LOGIC", 6000, TIMER_REPEAT_FOREVER, Task_mustiSensorScan, NULL);
	}
}
 800064a:	e0a5      	b.n	8000798 <ButtonCmdSetState+0x1bc>
	else if(button_id == BUTTON_KIT_ID2)
 800064c:	79fb      	ldrb	r3, [r7, #7]
 800064e:	2b02      	cmp	r3, #2
 8000650:	d12c      	bne.n	80006ac <ButtonCmdSetState+0xd0>
		lux_green = 50 - lux_green;
 8000652:	4b54      	ldr	r3, [pc, #336]	; (80007a4 <ButtonCmdSetState+0x1c8>)
 8000654:	781b      	ldrb	r3, [r3, #0]
 8000656:	f1c3 0332 	rsb	r3, r3, #50	; 0x32
 800065a:	b2da      	uxtb	r2, r3
 800065c:	4b51      	ldr	r3, [pc, #324]	; (80007a4 <ButtonCmdSetState+0x1c8>)
 800065e:	701a      	strb	r2, [r3, #0]
		lux_blue = lux_white = lux_red = 0;
 8000660:	4b4f      	ldr	r3, [pc, #316]	; (80007a0 <ButtonCmdSetState+0x1c4>)
 8000662:	2200      	movs	r2, #0
 8000664:	701a      	strb	r2, [r3, #0]
 8000666:	4b4e      	ldr	r3, [pc, #312]	; (80007a0 <ButtonCmdSetState+0x1c4>)
 8000668:	781a      	ldrb	r2, [r3, #0]
 800066a:	4b4f      	ldr	r3, [pc, #316]	; (80007a8 <ButtonCmdSetState+0x1cc>)
 800066c:	701a      	strb	r2, [r3, #0]
 800066e:	4b4e      	ldr	r3, [pc, #312]	; (80007a8 <ButtonCmdSetState+0x1cc>)
 8000670:	781a      	ldrb	r2, [r3, #0]
 8000672:	4b4e      	ldr	r3, [pc, #312]	; (80007ac <ButtonCmdSetState+0x1d0>)
 8000674:	701a      	strb	r2, [r3, #0]
		LedControl_SetAllColor(LED_COLOR_GREEN, lux_green);
 8000676:	4b4b      	ldr	r3, [pc, #300]	; (80007a4 <ButtonCmdSetState+0x1c8>)
 8000678:	781b      	ldrb	r3, [r3, #0]
 800067a:	4619      	mov	r1, r3
 800067c:	2001      	movs	r0, #1
 800067e:	f001 f863 	bl	8001748 <LedControl_SetAllColor>
		BuzzerControl_SendPacketRespond(1);
 8000682:	2001      	movs	r0, #1
 8000684:	f000 fd6c 	bl	8001160 <BuzzerControl_SendPacketRespond>
		BuzzerControl_SetMelody(pbeep);
 8000688:	4849      	ldr	r0, [pc, #292]	; (80007b0 <ButtonCmdSetState+0x1d4>)
 800068a:	f000 fd4b 	bl	8001124 <BuzzerControl_SetMelody>
		LedControl_SendPacketRespond(LED_KIT_ID0, LED_COLOR_GREEN, lux_green);
 800068e:	4b45      	ldr	r3, [pc, #276]	; (80007a4 <ButtonCmdSetState+0x1c8>)
 8000690:	781b      	ldrb	r3, [r3, #0]
 8000692:	461a      	mov	r2, r3
 8000694:	2101      	movs	r1, #1
 8000696:	2001      	movs	r0, #1
 8000698:	f001 f871 	bl	800177e <LedControl_SendPacketRespond>
		LedControl_SendPacketRespond(LED_KIT_ID1, LED_COLOR_GREEN, lux_green);
 800069c:	4b41      	ldr	r3, [pc, #260]	; (80007a4 <ButtonCmdSetState+0x1c8>)
 800069e:	781b      	ldrb	r3, [r3, #0]
 80006a0:	461a      	mov	r2, r3
 80006a2:	2101      	movs	r1, #1
 80006a4:	2002      	movs	r0, #2
 80006a6:	f001 f86a 	bl	800177e <LedControl_SendPacketRespond>
}
 80006aa:	e075      	b.n	8000798 <ButtonCmdSetState+0x1bc>
	else if(button_id == BUTTON_KIT_ID4)
 80006ac:	79fb      	ldrb	r3, [r7, #7]
 80006ae:	2b04      	cmp	r3, #4
 80006b0:	d12c      	bne.n	800070c <ButtonCmdSetState+0x130>
		lux_white = 50 - lux_white;
 80006b2:	4b3d      	ldr	r3, [pc, #244]	; (80007a8 <ButtonCmdSetState+0x1cc>)
 80006b4:	781b      	ldrb	r3, [r3, #0]
 80006b6:	f1c3 0332 	rsb	r3, r3, #50	; 0x32
 80006ba:	b2da      	uxtb	r2, r3
 80006bc:	4b3a      	ldr	r3, [pc, #232]	; (80007a8 <ButtonCmdSetState+0x1cc>)
 80006be:	701a      	strb	r2, [r3, #0]
		lux_blue = lux_red = lux_green = 0;
 80006c0:	4b38      	ldr	r3, [pc, #224]	; (80007a4 <ButtonCmdSetState+0x1c8>)
 80006c2:	2200      	movs	r2, #0
 80006c4:	701a      	strb	r2, [r3, #0]
 80006c6:	4b37      	ldr	r3, [pc, #220]	; (80007a4 <ButtonCmdSetState+0x1c8>)
 80006c8:	781a      	ldrb	r2, [r3, #0]
 80006ca:	4b35      	ldr	r3, [pc, #212]	; (80007a0 <ButtonCmdSetState+0x1c4>)
 80006cc:	701a      	strb	r2, [r3, #0]
 80006ce:	4b34      	ldr	r3, [pc, #208]	; (80007a0 <ButtonCmdSetState+0x1c4>)
 80006d0:	781a      	ldrb	r2, [r3, #0]
 80006d2:	4b36      	ldr	r3, [pc, #216]	; (80007ac <ButtonCmdSetState+0x1d0>)
 80006d4:	701a      	strb	r2, [r3, #0]
		LedControl_SetAllColor(LED_COLOR_WHITE, lux_white);
 80006d6:	4b34      	ldr	r3, [pc, #208]	; (80007a8 <ButtonCmdSetState+0x1cc>)
 80006d8:	781b      	ldrb	r3, [r3, #0]
 80006da:	4619      	mov	r1, r3
 80006dc:	2003      	movs	r0, #3
 80006de:	f001 f833 	bl	8001748 <LedControl_SetAllColor>
		BuzzerControl_SendPacketRespond(1);
 80006e2:	2001      	movs	r0, #1
 80006e4:	f000 fd3c 	bl	8001160 <BuzzerControl_SendPacketRespond>
		BuzzerControl_SetMelody(pbeep);
 80006e8:	4831      	ldr	r0, [pc, #196]	; (80007b0 <ButtonCmdSetState+0x1d4>)
 80006ea:	f000 fd1b 	bl	8001124 <BuzzerControl_SetMelody>
		LedControl_SendPacketRespond(LED_KIT_ID0, LED_COLOR_WHITE, lux_white);
 80006ee:	4b2e      	ldr	r3, [pc, #184]	; (80007a8 <ButtonCmdSetState+0x1cc>)
 80006f0:	781b      	ldrb	r3, [r3, #0]
 80006f2:	461a      	mov	r2, r3
 80006f4:	2103      	movs	r1, #3
 80006f6:	2001      	movs	r0, #1
 80006f8:	f001 f841 	bl	800177e <LedControl_SendPacketRespond>
		LedControl_SendPacketRespond(LED_KIT_ID1, LED_COLOR_WHITE, lux_white);
 80006fc:	4b2a      	ldr	r3, [pc, #168]	; (80007a8 <ButtonCmdSetState+0x1cc>)
 80006fe:	781b      	ldrb	r3, [r3, #0]
 8000700:	461a      	mov	r2, r3
 8000702:	2103      	movs	r1, #3
 8000704:	2002      	movs	r0, #2
 8000706:	f001 f83a 	bl	800177e <LedControl_SendPacketRespond>
}
 800070a:	e045      	b.n	8000798 <ButtonCmdSetState+0x1bc>
	else if(button_id == BUTTON_KIT_ID5)
 800070c:	79fb      	ldrb	r3, [r7, #7]
 800070e:	2b05      	cmp	r3, #5
 8000710:	d12c      	bne.n	800076c <ButtonCmdSetState+0x190>
		lux_blue = 50 -lux_blue;
 8000712:	4b26      	ldr	r3, [pc, #152]	; (80007ac <ButtonCmdSetState+0x1d0>)
 8000714:	781b      	ldrb	r3, [r3, #0]
 8000716:	f1c3 0332 	rsb	r3, r3, #50	; 0x32
 800071a:	b2da      	uxtb	r2, r3
 800071c:	4b23      	ldr	r3, [pc, #140]	; (80007ac <ButtonCmdSetState+0x1d0>)
 800071e:	701a      	strb	r2, [r3, #0]
		lux_red = lux_white = lux_green = 0;
 8000720:	4b20      	ldr	r3, [pc, #128]	; (80007a4 <ButtonCmdSetState+0x1c8>)
 8000722:	2200      	movs	r2, #0
 8000724:	701a      	strb	r2, [r3, #0]
 8000726:	4b1f      	ldr	r3, [pc, #124]	; (80007a4 <ButtonCmdSetState+0x1c8>)
 8000728:	781a      	ldrb	r2, [r3, #0]
 800072a:	4b1f      	ldr	r3, [pc, #124]	; (80007a8 <ButtonCmdSetState+0x1cc>)
 800072c:	701a      	strb	r2, [r3, #0]
 800072e:	4b1e      	ldr	r3, [pc, #120]	; (80007a8 <ButtonCmdSetState+0x1cc>)
 8000730:	781a      	ldrb	r2, [r3, #0]
 8000732:	4b1b      	ldr	r3, [pc, #108]	; (80007a0 <ButtonCmdSetState+0x1c4>)
 8000734:	701a      	strb	r2, [r3, #0]
		LedControl_SetAllColor(LED_COLOR_BLUE, lux_blue);
 8000736:	4b1d      	ldr	r3, [pc, #116]	; (80007ac <ButtonCmdSetState+0x1d0>)
 8000738:	781b      	ldrb	r3, [r3, #0]
 800073a:	4619      	mov	r1, r3
 800073c:	2002      	movs	r0, #2
 800073e:	f001 f803 	bl	8001748 <LedControl_SetAllColor>
		BuzzerControl_SendPacketRespond(1);
 8000742:	2001      	movs	r0, #1
 8000744:	f000 fd0c 	bl	8001160 <BuzzerControl_SendPacketRespond>
		BuzzerControl_SetMelody(pbeep);
 8000748:	4819      	ldr	r0, [pc, #100]	; (80007b0 <ButtonCmdSetState+0x1d4>)
 800074a:	f000 fceb 	bl	8001124 <BuzzerControl_SetMelody>
		LedControl_SendPacketRespond(LED_KIT_ID0, LED_COLOR_BLUE, lux_blue);
 800074e:	4b17      	ldr	r3, [pc, #92]	; (80007ac <ButtonCmdSetState+0x1d0>)
 8000750:	781b      	ldrb	r3, [r3, #0]
 8000752:	461a      	mov	r2, r3
 8000754:	2102      	movs	r1, #2
 8000756:	2001      	movs	r0, #1
 8000758:	f001 f811 	bl	800177e <LedControl_SendPacketRespond>
		LedControl_SendPacketRespond(LED_KIT_ID1, LED_COLOR_BLUE, lux_blue);
 800075c:	4b13      	ldr	r3, [pc, #76]	; (80007ac <ButtonCmdSetState+0x1d0>)
 800075e:	781b      	ldrb	r3, [r3, #0]
 8000760:	461a      	mov	r2, r3
 8000762:	2102      	movs	r1, #2
 8000764:	2002      	movs	r0, #2
 8000766:	f001 f80a 	bl	800177e <LedControl_SendPacketRespond>
}
 800076a:	e015      	b.n	8000798 <ButtonCmdSetState+0x1bc>
		ucg_ClearScreen(&ucg);
 800076c:	4811      	ldr	r0, [pc, #68]	; (80007b4 <ButtonCmdSetState+0x1d8>)
 800076e:	f002 fc5c 	bl	800302a <ucg_ClearScreen>
		Task_mustiSensorScan();
 8000772:	f7ff fd8d 	bl	8000290 <Task_mustiSensorScan>
		if(id_timer == NO_TIMER)
 8000776:	4b10      	ldr	r3, [pc, #64]	; (80007b8 <ButtonCmdSetState+0x1dc>)
 8000778:	781b      	ldrb	r3, [r3, #0]
 800077a:	2bff      	cmp	r3, #255	; 0xff
 800077c:	d10c      	bne.n	8000798 <ButtonCmdSetState+0x1bc>
		id_timer = TimerStart("EVENT_OF_BUTTON_3_PRESS_LOGIC", 6000, TIMER_REPEAT_FOREVER, Task_mustiSensorScan, NULL);
 800077e:	2300      	movs	r3, #0
 8000780:	9300      	str	r3, [sp, #0]
 8000782:	4b0e      	ldr	r3, [pc, #56]	; (80007bc <ButtonCmdSetState+0x1e0>)
 8000784:	22ff      	movs	r2, #255	; 0xff
 8000786:	f241 7170 	movw	r1, #6000	; 0x1770
 800078a:	480d      	ldr	r0, [pc, #52]	; (80007c0 <ButtonCmdSetState+0x1e4>)
 800078c:	f001 f990 	bl	8001ab0 <TimerStart>
 8000790:	4603      	mov	r3, r0
 8000792:	461a      	mov	r2, r3
 8000794:	4b08      	ldr	r3, [pc, #32]	; (80007b8 <ButtonCmdSetState+0x1dc>)
 8000796:	701a      	strb	r2, [r3, #0]
}
 8000798:	bf00      	nop
 800079a:	3708      	adds	r7, #8
 800079c:	46bd      	mov	sp, r7
 800079e:	bd80      	pop	{r7, pc}
 80007a0:	200001a1 	.word	0x200001a1
 80007a4:	200001a4 	.word	0x200001a4
 80007a8:	200001a3 	.word	0x200001a3
 80007ac:	200001a2 	.word	0x200001a2
 80007b0:	2000001c 	.word	0x2000001c
 80007b4:	200000ec 	.word	0x200000ec
 80007b8:	20000000 	.word	0x20000000
 80007bc:	08000291 	.word	0x08000291
 80007c0:	080078f4 	.word	0x080078f4

080007c4 <SetStateApp>:
 * @retval        State of application
 * */
static void
SetStateApp(
		state_app_t state
){
 80007c4:	b480      	push	{r7}
 80007c6:	b083      	sub	sp, #12
 80007c8:	af00      	add	r7, sp, #0
 80007ca:	4603      	mov	r3, r0
 80007cc:	71fb      	strb	r3, [r7, #7]
	eCurrentState  = state;
 80007ce:	4a04      	ldr	r2, [pc, #16]	; (80007e0 <SetStateApp+0x1c>)
 80007d0:	79fb      	ldrb	r3, [r7, #7]
 80007d2:	7013      	strb	r3, [r2, #0]
}
 80007d4:	bf00      	nop
 80007d6:	370c      	adds	r7, #12
 80007d8:	46bd      	mov	sp, r7
 80007da:	f85d 7b04 	ldr.w	r7, [sp], #4
 80007de:	4770      	bx	lr
 80007e0:	200001a0 	.word	0x200001a0

080007e4 <GetStateApp>:
 * @param         None
 * @retval        State of application
 * */
static state_app_t
GetStateApp(void)
{
 80007e4:	b480      	push	{r7}
 80007e6:	af00      	add	r7, sp, #0
	return eCurrentState;
 80007e8:	4b03      	ldr	r3, [pc, #12]	; (80007f8 <GetStateApp+0x14>)
 80007ea:	781b      	ldrb	r3, [r3, #0]
}
 80007ec:	4618      	mov	r0, r3
 80007ee:	46bd      	mov	sp, r7
 80007f0:	f85d 7b04 	ldr.w	r7, [sp], #4
 80007f4:	4770      	bx	lr
 80007f6:	bf00      	nop
 80007f8:	200001a0 	.word	0x200001a0

080007fc <LoadConfiguration>:
 * param           None
 * retval          None
 * */
static void
LoadConfiguration(void)
{
 80007fc:	b5b0      	push	{r4, r5, r7, lr}
 80007fe:	b08c      	sub	sp, #48	; 0x30
 8000800:	af02      	add	r7, sp, #8
	ucg_ClearScreen(&ucg);
 8000802:	481c      	ldr	r0, [pc, #112]	; (8000874 <LoadConfiguration+0x78>)
 8000804:	f002 fc11 	bl	800302a <ucg_ClearScreen>
	ucg_DrawString(&ucg, 52, 32, 0,"IOT");
 8000808:	4b1b      	ldr	r3, [pc, #108]	; (8000878 <LoadConfiguration+0x7c>)
 800080a:	9300      	str	r3, [sp, #0]
 800080c:	2300      	movs	r3, #0
 800080e:	2220      	movs	r2, #32
 8000810:	2134      	movs	r1, #52	; 0x34
 8000812:	4818      	ldr	r0, [pc, #96]	; (8000874 <LoadConfiguration+0x78>)
 8000814:	f003 fc5e 	bl	80040d4 <ucg_DrawString>
	ucg_DrawString(&ucg, 0, 53, 0,"Programming by");
 8000818:	4b18      	ldr	r3, [pc, #96]	; (800087c <LoadConfiguration+0x80>)
 800081a:	9300      	str	r3, [sp, #0]
 800081c:	2300      	movs	r3, #0
 800081e:	2235      	movs	r2, #53	; 0x35
 8000820:	2100      	movs	r1, #0
 8000822:	4814      	ldr	r0, [pc, #80]	; (8000874 <LoadConfiguration+0x78>)
 8000824:	f003 fc56 	bl	80040d4 <ucg_DrawString>
	ucg_DrawString(&ucg, 52, 72, 0,"Lumi");
 8000828:	4b15      	ldr	r3, [pc, #84]	; (8000880 <LoadConfiguration+0x84>)
 800082a:	9300      	str	r3, [sp, #0]
 800082c:	2300      	movs	r3, #0
 800082e:	2248      	movs	r2, #72	; 0x48
 8000830:	2134      	movs	r1, #52	; 0x34
 8000832:	4810      	ldr	r0, [pc, #64]	; (8000874 <LoadConfiguration+0x78>)
 8000834:	f003 fc4e 	bl	80040d4 <ucg_DrawString>
	ucg_DrawString(&ucg, 20, 92, 0,"SmartHome");
 8000838:	4b12      	ldr	r3, [pc, #72]	; (8000884 <LoadConfiguration+0x88>)
 800083a:	9300      	str	r3, [sp, #0]
 800083c:	2300      	movs	r3, #0
 800083e:	225c      	movs	r2, #92	; 0x5c
 8000840:	2114      	movs	r1, #20
 8000842:	480c      	ldr	r0, [pc, #48]	; (8000874 <LoadConfiguration+0x78>)
 8000844:	f003 fc46 	bl	80040d4 <ucg_DrawString>
	char infor[] = "Device board: STM32F401RE Nucleo";
 8000848:	4b0f      	ldr	r3, [pc, #60]	; (8000888 <LoadConfiguration+0x8c>)
 800084a:	1d3c      	adds	r4, r7, #4
 800084c:	461d      	mov	r5, r3
 800084e:	cd0f      	ldmia	r5!, {r0, r1, r2, r3}
 8000850:	c40f      	stmia	r4!, {r0, r1, r2, r3}
 8000852:	cd0f      	ldmia	r5!, {r0, r1, r2, r3}
 8000854:	c40f      	stmia	r4!, {r0, r1, r2, r3}
 8000856:	682b      	ldr	r3, [r5, #0]
 8000858:	7023      	strb	r3, [r4, #0]
	Serial_SendPacket(CMD_OPT_NOT_USE, CMD_ID_LCD, CMD_TYPE_RES,(uint8_t*)infor,sizeof(infor));
 800085a:	1d3b      	adds	r3, r7, #4
 800085c:	2221      	movs	r2, #33	; 0x21
 800085e:	9200      	str	r2, [sp, #0]
 8000860:	2201      	movs	r2, #1
 8000862:	2187      	movs	r1, #135	; 0x87
 8000864:	2000      	movs	r0, #0
 8000866:	f001 ff3b 	bl	80026e0 <Serial_SendPacket>
}
 800086a:	bf00      	nop
 800086c:	3728      	adds	r7, #40	; 0x28
 800086e:	46bd      	mov	sp, r7
 8000870:	bdb0      	pop	{r4, r5, r7, pc}
 8000872:	bf00      	nop
 8000874:	200000ec 	.word	0x200000ec
 8000878:	08007914 	.word	0x08007914
 800087c:	08007918 	.word	0x08007918
 8000880:	08007928 	.word	0x08007928
 8000884:	08007930 	.word	0x08007930
 8000888:	0800793c 	.word	0x0800793c

0800088c <DeviceStateMachine>:
 * @retval			None
 * */
void
DeviceStateMachine(
		uint8_t event
){
 800088c:	b580      	push	{r7, lr}
 800088e:	b084      	sub	sp, #16
 8000890:	af02      	add	r7, sp, #8
 8000892:	4603      	mov	r3, r0
 8000894:	71fb      	strb	r3, [r7, #7]
	switch(event){
 8000896:	79fb      	ldrb	r3, [r7, #7]
 8000898:	3b01      	subs	r3, #1
 800089a:	2b04      	cmp	r3, #4
 800089c:	f200 80da 	bhi.w	8000a54 <DeviceStateMachine+0x1c8>
 80008a0:	a201      	add	r2, pc, #4	; (adr r2, 80008a8 <DeviceStateMachine+0x1c>)
 80008a2:	f852 f023 	ldr.w	pc, [r2, r3, lsl #2]
 80008a6:	bf00      	nop
 80008a8:	080008ed 	.word	0x080008ed
 80008ac:	08000947 	.word	0x08000947
 80008b0:	080008bd 	.word	0x080008bd
 80008b4:	080009a1 	.word	0x080009a1
 80008b8:	080009fb 	.word	0x080009fb
		case EVENT_OF_BUTTON_3_PRESS_LOGIC:
		{
		ucg_ClearScreen(&ucg);
 80008bc:	4869      	ldr	r0, [pc, #420]	; (8000a64 <DeviceStateMachine+0x1d8>)
 80008be:	f002 fbb4 	bl	800302a <ucg_ClearScreen>
		Task_mustiSensorScan();
 80008c2:	f7ff fce5 	bl	8000290 <Task_mustiSensorScan>
		if(id_timer == NO_TIMER)
 80008c6:	4b68      	ldr	r3, [pc, #416]	; (8000a68 <DeviceStateMachine+0x1dc>)
 80008c8:	781b      	ldrb	r3, [r3, #0]
 80008ca:	2bff      	cmp	r3, #255	; 0xff
 80008cc:	f040 80c4 	bne.w	8000a58 <DeviceStateMachine+0x1cc>
		id_timer = TimerStart("EVENT_OF_BUTTON_3_PRESS_LOGIC", 6000, TIMER_REPEAT_FOREVER, Task_mustiSensorScan, NULL);
 80008d0:	2300      	movs	r3, #0
 80008d2:	9300      	str	r3, [sp, #0]
 80008d4:	4b65      	ldr	r3, [pc, #404]	; (8000a6c <DeviceStateMachine+0x1e0>)
 80008d6:	22ff      	movs	r2, #255	; 0xff
 80008d8:	f241 7170 	movw	r1, #6000	; 0x1770
 80008dc:	4864      	ldr	r0, [pc, #400]	; (8000a70 <DeviceStateMachine+0x1e4>)
 80008de:	f001 f8e7 	bl	8001ab0 <TimerStart>
 80008e2:	4603      	mov	r3, r0
 80008e4:	461a      	mov	r2, r3
 80008e6:	4b60      	ldr	r3, [pc, #384]	; (8000a68 <DeviceStateMachine+0x1dc>)
 80008e8:	701a      	strb	r2, [r3, #0]
		break;
 80008ea:	e0b5      	b.n	8000a58 <DeviceStateMachine+0x1cc>
		}
		case EVENT_OF_BUTTON_1_PRESS_LOGIC:
		{
			lux_red = 50 - lux_red;
 80008ec:	4b61      	ldr	r3, [pc, #388]	; (8000a74 <DeviceStateMachine+0x1e8>)
 80008ee:	781b      	ldrb	r3, [r3, #0]
 80008f0:	f1c3 0332 	rsb	r3, r3, #50	; 0x32
 80008f4:	b2da      	uxtb	r2, r3
 80008f6:	4b5f      	ldr	r3, [pc, #380]	; (8000a74 <DeviceStateMachine+0x1e8>)
 80008f8:	701a      	strb	r2, [r3, #0]
			// set off all led
			lux_blue = lux_white = lux_green = 0;
 80008fa:	4b5f      	ldr	r3, [pc, #380]	; (8000a78 <DeviceStateMachine+0x1ec>)
 80008fc:	2200      	movs	r2, #0
 80008fe:	701a      	strb	r2, [r3, #0]
 8000900:	4b5d      	ldr	r3, [pc, #372]	; (8000a78 <DeviceStateMachine+0x1ec>)
 8000902:	781a      	ldrb	r2, [r3, #0]
 8000904:	4b5d      	ldr	r3, [pc, #372]	; (8000a7c <DeviceStateMachine+0x1f0>)
 8000906:	701a      	strb	r2, [r3, #0]
 8000908:	4b5c      	ldr	r3, [pc, #368]	; (8000a7c <DeviceStateMachine+0x1f0>)
 800090a:	781a      	ldrb	r2, [r3, #0]
 800090c:	4b5c      	ldr	r3, [pc, #368]	; (8000a80 <DeviceStateMachine+0x1f4>)
 800090e:	701a      	strb	r2, [r3, #0]
			///////////////////////////////////////
			LedControl_SetAllColor(LED_COLOR_RED, lux_red);
 8000910:	4b58      	ldr	r3, [pc, #352]	; (8000a74 <DeviceStateMachine+0x1e8>)
 8000912:	781b      	ldrb	r3, [r3, #0]
 8000914:	4619      	mov	r1, r3
 8000916:	2000      	movs	r0, #0
 8000918:	f000 ff16 	bl	8001748 <LedControl_SetAllColor>
			BuzzerControl_SendPacketRespond(1);
 800091c:	2001      	movs	r0, #1
 800091e:	f000 fc1f 	bl	8001160 <BuzzerControl_SendPacketRespond>
			BuzzerControl_SetMelody(pbeep);
 8000922:	4858      	ldr	r0, [pc, #352]	; (8000a84 <DeviceStateMachine+0x1f8>)
 8000924:	f000 fbfe 	bl	8001124 <BuzzerControl_SetMelody>
			LedControl_SendPacketRespond(LED_KIT_ID0, LED_COLOR_RED, lux_red);
 8000928:	4b52      	ldr	r3, [pc, #328]	; (8000a74 <DeviceStateMachine+0x1e8>)
 800092a:	781b      	ldrb	r3, [r3, #0]
 800092c:	461a      	mov	r2, r3
 800092e:	2100      	movs	r1, #0
 8000930:	2001      	movs	r0, #1
 8000932:	f000 ff24 	bl	800177e <LedControl_SendPacketRespond>
			LedControl_SendPacketRespond(LED_KIT_ID1, LED_COLOR_RED, lux_red);
 8000936:	4b4f      	ldr	r3, [pc, #316]	; (8000a74 <DeviceStateMachine+0x1e8>)
 8000938:	781b      	ldrb	r3, [r3, #0]
 800093a:	461a      	mov	r2, r3
 800093c:	2100      	movs	r1, #0
 800093e:	2002      	movs	r0, #2
 8000940:	f000 ff1d 	bl	800177e <LedControl_SendPacketRespond>
			break;
 8000944:	e089      	b.n	8000a5a <DeviceStateMachine+0x1ce>
		}
		case EVENT_OF_BUTTON_2_PRESS_LOGIC:
		{
			lux_green = 50 - lux_green;
 8000946:	4b4c      	ldr	r3, [pc, #304]	; (8000a78 <DeviceStateMachine+0x1ec>)
 8000948:	781b      	ldrb	r3, [r3, #0]
 800094a:	f1c3 0332 	rsb	r3, r3, #50	; 0x32
 800094e:	b2da      	uxtb	r2, r3
 8000950:	4b49      	ldr	r3, [pc, #292]	; (8000a78 <DeviceStateMachine+0x1ec>)
 8000952:	701a      	strb	r2, [r3, #0]
			// set off all led
			lux_blue = lux_white = lux_red = 0;
 8000954:	4b47      	ldr	r3, [pc, #284]	; (8000a74 <DeviceStateMachine+0x1e8>)
 8000956:	2200      	movs	r2, #0
 8000958:	701a      	strb	r2, [r3, #0]
 800095a:	4b46      	ldr	r3, [pc, #280]	; (8000a74 <DeviceStateMachine+0x1e8>)
 800095c:	781a      	ldrb	r2, [r3, #0]
 800095e:	4b47      	ldr	r3, [pc, #284]	; (8000a7c <DeviceStateMachine+0x1f0>)
 8000960:	701a      	strb	r2, [r3, #0]
 8000962:	4b46      	ldr	r3, [pc, #280]	; (8000a7c <DeviceStateMachine+0x1f0>)
 8000964:	781a      	ldrb	r2, [r3, #0]
 8000966:	4b46      	ldr	r3, [pc, #280]	; (8000a80 <DeviceStateMachine+0x1f4>)
 8000968:	701a      	strb	r2, [r3, #0]

			LedControl_SetAllColor(LED_COLOR_GREEN, lux_green);
 800096a:	4b43      	ldr	r3, [pc, #268]	; (8000a78 <DeviceStateMachine+0x1ec>)
 800096c:	781b      	ldrb	r3, [r3, #0]
 800096e:	4619      	mov	r1, r3
 8000970:	2001      	movs	r0, #1
 8000972:	f000 fee9 	bl	8001748 <LedControl_SetAllColor>
			BuzzerControl_SendPacketRespond(1);
 8000976:	2001      	movs	r0, #1
 8000978:	f000 fbf2 	bl	8001160 <BuzzerControl_SendPacketRespond>
			BuzzerControl_SetMelody(pbeep);
 800097c:	4841      	ldr	r0, [pc, #260]	; (8000a84 <DeviceStateMachine+0x1f8>)
 800097e:	f000 fbd1 	bl	8001124 <BuzzerControl_SetMelody>
			LedControl_SendPacketRespond(LED_KIT_ID0, LED_COLOR_GREEN, lux_green);
 8000982:	4b3d      	ldr	r3, [pc, #244]	; (8000a78 <DeviceStateMachine+0x1ec>)
 8000984:	781b      	ldrb	r3, [r3, #0]
 8000986:	461a      	mov	r2, r3
 8000988:	2101      	movs	r1, #1
 800098a:	2001      	movs	r0, #1
 800098c:	f000 fef7 	bl	800177e <LedControl_SendPacketRespond>
			LedControl_SendPacketRespond(LED_KIT_ID1, LED_COLOR_GREEN, lux_green);
 8000990:	4b39      	ldr	r3, [pc, #228]	; (8000a78 <DeviceStateMachine+0x1ec>)
 8000992:	781b      	ldrb	r3, [r3, #0]
 8000994:	461a      	mov	r2, r3
 8000996:	2101      	movs	r1, #1
 8000998:	2002      	movs	r0, #2
 800099a:	f000 fef0 	bl	800177e <LedControl_SendPacketRespond>
			break;
 800099e:	e05c      	b.n	8000a5a <DeviceStateMachine+0x1ce>
		}
		case EVENT_OF_BUTTON_4_PRESS_LOGIC:
		{
			lux_white = 50 - lux_white;
 80009a0:	4b36      	ldr	r3, [pc, #216]	; (8000a7c <DeviceStateMachine+0x1f0>)
 80009a2:	781b      	ldrb	r3, [r3, #0]
 80009a4:	f1c3 0332 	rsb	r3, r3, #50	; 0x32
 80009a8:	b2da      	uxtb	r2, r3
 80009aa:	4b34      	ldr	r3, [pc, #208]	; (8000a7c <DeviceStateMachine+0x1f0>)
 80009ac:	701a      	strb	r2, [r3, #0]
			// set off all led
			lux_blue = lux_red = lux_green = 0;
 80009ae:	4b32      	ldr	r3, [pc, #200]	; (8000a78 <DeviceStateMachine+0x1ec>)
 80009b0:	2200      	movs	r2, #0
 80009b2:	701a      	strb	r2, [r3, #0]
 80009b4:	4b30      	ldr	r3, [pc, #192]	; (8000a78 <DeviceStateMachine+0x1ec>)
 80009b6:	781a      	ldrb	r2, [r3, #0]
 80009b8:	4b2e      	ldr	r3, [pc, #184]	; (8000a74 <DeviceStateMachine+0x1e8>)
 80009ba:	701a      	strb	r2, [r3, #0]
 80009bc:	4b2d      	ldr	r3, [pc, #180]	; (8000a74 <DeviceStateMachine+0x1e8>)
 80009be:	781a      	ldrb	r2, [r3, #0]
 80009c0:	4b2f      	ldr	r3, [pc, #188]	; (8000a80 <DeviceStateMachine+0x1f4>)
 80009c2:	701a      	strb	r2, [r3, #0]

			LedControl_SetAllColor(LED_COLOR_WHITE, lux_white);
 80009c4:	4b2d      	ldr	r3, [pc, #180]	; (8000a7c <DeviceStateMachine+0x1f0>)
 80009c6:	781b      	ldrb	r3, [r3, #0]
 80009c8:	4619      	mov	r1, r3
 80009ca:	2003      	movs	r0, #3
 80009cc:	f000 febc 	bl	8001748 <LedControl_SetAllColor>
			BuzzerControl_SendPacketRespond(1);
 80009d0:	2001      	movs	r0, #1
 80009d2:	f000 fbc5 	bl	8001160 <BuzzerControl_SendPacketRespond>
			BuzzerControl_SetMelody(pbeep);
 80009d6:	482b      	ldr	r0, [pc, #172]	; (8000a84 <DeviceStateMachine+0x1f8>)
 80009d8:	f000 fba4 	bl	8001124 <BuzzerControl_SetMelody>
			LedControl_SendPacketRespond(LED_KIT_ID0, LED_COLOR_WHITE, lux_white);
 80009dc:	4b27      	ldr	r3, [pc, #156]	; (8000a7c <DeviceStateMachine+0x1f0>)
 80009de:	781b      	ldrb	r3, [r3, #0]
 80009e0:	461a      	mov	r2, r3
 80009e2:	2103      	movs	r1, #3
 80009e4:	2001      	movs	r0, #1
 80009e6:	f000 feca 	bl	800177e <LedControl_SendPacketRespond>
			LedControl_SendPacketRespond(LED_KIT_ID1, LED_COLOR_WHITE, lux_white);
 80009ea:	4b24      	ldr	r3, [pc, #144]	; (8000a7c <DeviceStateMachine+0x1f0>)
 80009ec:	781b      	ldrb	r3, [r3, #0]
 80009ee:	461a      	mov	r2, r3
 80009f0:	2103      	movs	r1, #3
 80009f2:	2002      	movs	r0, #2
 80009f4:	f000 fec3 	bl	800177e <LedControl_SendPacketRespond>
			break;
 80009f8:	e02f      	b.n	8000a5a <DeviceStateMachine+0x1ce>
		}
		case EVENT_OF_BUTTON_5_PRESS_LOGIC:
		{
			lux_blue = 50 -lux_blue;
 80009fa:	4b21      	ldr	r3, [pc, #132]	; (8000a80 <DeviceStateMachine+0x1f4>)
 80009fc:	781b      	ldrb	r3, [r3, #0]
 80009fe:	f1c3 0332 	rsb	r3, r3, #50	; 0x32
 8000a02:	b2da      	uxtb	r2, r3
 8000a04:	4b1e      	ldr	r3, [pc, #120]	; (8000a80 <DeviceStateMachine+0x1f4>)
 8000a06:	701a      	strb	r2, [r3, #0]
			// set off all led
			lux_red = lux_white = lux_green = 0;
 8000a08:	4b1b      	ldr	r3, [pc, #108]	; (8000a78 <DeviceStateMachine+0x1ec>)
 8000a0a:	2200      	movs	r2, #0
 8000a0c:	701a      	strb	r2, [r3, #0]
 8000a0e:	4b1a      	ldr	r3, [pc, #104]	; (8000a78 <DeviceStateMachine+0x1ec>)
 8000a10:	781a      	ldrb	r2, [r3, #0]
 8000a12:	4b1a      	ldr	r3, [pc, #104]	; (8000a7c <DeviceStateMachine+0x1f0>)
 8000a14:	701a      	strb	r2, [r3, #0]
 8000a16:	4b19      	ldr	r3, [pc, #100]	; (8000a7c <DeviceStateMachine+0x1f0>)
 8000a18:	781a      	ldrb	r2, [r3, #0]
 8000a1a:	4b16      	ldr	r3, [pc, #88]	; (8000a74 <DeviceStateMachine+0x1e8>)
 8000a1c:	701a      	strb	r2, [r3, #0]

			LedControl_SetAllColor(LED_COLOR_BLUE, lux_blue);
 8000a1e:	4b18      	ldr	r3, [pc, #96]	; (8000a80 <DeviceStateMachine+0x1f4>)
 8000a20:	781b      	ldrb	r3, [r3, #0]
 8000a22:	4619      	mov	r1, r3
 8000a24:	2002      	movs	r0, #2
 8000a26:	f000 fe8f 	bl	8001748 <LedControl_SetAllColor>
			BuzzerControl_SendPacketRespond(1);
 8000a2a:	2001      	movs	r0, #1
 8000a2c:	f000 fb98 	bl	8001160 <BuzzerControl_SendPacketRespond>
			BuzzerControl_SetMelody(pbeep);
 8000a30:	4814      	ldr	r0, [pc, #80]	; (8000a84 <DeviceStateMachine+0x1f8>)
 8000a32:	f000 fb77 	bl	8001124 <BuzzerControl_SetMelody>
			LedControl_SendPacketRespond(LED_KIT_ID0, LED_COLOR_BLUE, lux_blue);
 8000a36:	4b12      	ldr	r3, [pc, #72]	; (8000a80 <DeviceStateMachine+0x1f4>)
 8000a38:	781b      	ldrb	r3, [r3, #0]
 8000a3a:	461a      	mov	r2, r3
 8000a3c:	2102      	movs	r1, #2
 8000a3e:	2001      	movs	r0, #1
 8000a40:	f000 fe9d 	bl	800177e <LedControl_SendPacketRespond>
			LedControl_SendPacketRespond(LED_KIT_ID1, LED_COLOR_BLUE, lux_blue);
 8000a44:	4b0e      	ldr	r3, [pc, #56]	; (8000a80 <DeviceStateMachine+0x1f4>)
 8000a46:	781b      	ldrb	r3, [r3, #0]
 8000a48:	461a      	mov	r2, r3
 8000a4a:	2102      	movs	r1, #2
 8000a4c:	2002      	movs	r0, #2
 8000a4e:	f000 fe96 	bl	800177e <LedControl_SendPacketRespond>
			break;
 8000a52:	e002      	b.n	8000a5a <DeviceStateMachine+0x1ce>
		}

		break;
		default:
			break;
 8000a54:	bf00      	nop
 8000a56:	e000      	b.n	8000a5a <DeviceStateMachine+0x1ce>
		break;
 8000a58:	bf00      	nop
	}
}
 8000a5a:	bf00      	nop
 8000a5c:	3708      	adds	r7, #8
 8000a5e:	46bd      	mov	sp, r7
 8000a60:	bd80      	pop	{r7, pc}
 8000a62:	bf00      	nop
 8000a64:	200000ec 	.word	0x200000ec
 8000a68:	20000000 	.word	0x20000000
 8000a6c:	08000291 	.word	0x08000291
 8000a70:	080078f4 	.word	0x080078f4
 8000a74:	200001a1 	.word	0x200001a1
 8000a78:	200001a4 	.word	0x200001a4
 8000a7c:	200001a3 	.word	0x200001a3
 8000a80:	200001a2 	.word	0x200001a2
 8000a84:	2000001c 	.word	0x2000001c

08000a88 <AppStateManager>:
 * @retval        None
 * */
static void
AppStateManager(
		uint8_t event
){
 8000a88:	b580      	push	{r7, lr}
 8000a8a:	b082      	sub	sp, #8
 8000a8c:	af00      	add	r7, sp, #0
 8000a8e:	4603      	mov	r3, r0
 8000a90:	71fb      	strb	r3, [r7, #7]
	switch(GetStateApp())
 8000a92:	f7ff fea7 	bl	80007e4 <GetStateApp>
 8000a96:	4603      	mov	r3, r0
 8000a98:	2b02      	cmp	r3, #2
 8000a9a:	d014      	beq.n	8000ac6 <AppStateManager+0x3e>
 8000a9c:	2b02      	cmp	r3, #2
 8000a9e:	dc14      	bgt.n	8000aca <AppStateManager+0x42>
 8000aa0:	2b00      	cmp	r3, #0
 8000aa2:	d002      	beq.n	8000aaa <AppStateManager+0x22>
 8000aa4:	2b01      	cmp	r3, #1
 8000aa6:	d009      	beq.n	8000abc <AppStateManager+0x34>
		DeviceStateMachine(event);
		break;
	case STATE_APP_RESET:
		break;
	default:
		break;
 8000aa8:	e00f      	b.n	8000aca <AppStateManager+0x42>
		if(event == EVENT_APP_INIT)
 8000aaa:	79fb      	ldrb	r3, [r7, #7]
 8000aac:	2b01      	cmp	r3, #1
 8000aae:	d10e      	bne.n	8000ace <AppStateManager+0x46>
			LoadConfiguration();
 8000ab0:	f7ff fea4 	bl	80007fc <LoadConfiguration>
			SetStateApp(STATE_APP_IDLE);
 8000ab4:	2001      	movs	r0, #1
 8000ab6:	f7ff fe85 	bl	80007c4 <SetStateApp>
		break;
 8000aba:	e008      	b.n	8000ace <AppStateManager+0x46>
		DeviceStateMachine(event);
 8000abc:	79fb      	ldrb	r3, [r7, #7]
 8000abe:	4618      	mov	r0, r3
 8000ac0:	f7ff fee4 	bl	800088c <DeviceStateMachine>
		break;
 8000ac4:	e004      	b.n	8000ad0 <AppStateManager+0x48>
		break;
 8000ac6:	bf00      	nop
 8000ac8:	e002      	b.n	8000ad0 <AppStateManager+0x48>
		break;
 8000aca:	bf00      	nop
 8000acc:	e000      	b.n	8000ad0 <AppStateManager+0x48>
		break;
 8000ace:	bf00      	nop
	}
}
 8000ad0:	bf00      	nop
 8000ad2:	3708      	adds	r7, #8
 8000ad4:	46bd      	mov	sp, r7
 8000ad6:	bd80      	pop	{r7, pc}

08000ad8 <AppInitCommon>:
 * @brief          Init
 * param           None
 * retval          None
 * */
void AppInitCommon()
{
 8000ad8:	b580      	push	{r7, lr}
 8000ada:	b082      	sub	sp, #8
 8000adc:	af02      	add	r7, sp, #8
	SystemCoreClockUpdate();
 8000ade:	f000 f8f5 	bl	8000ccc <SystemCoreClockUpdate>
	TimerInit();
 8000ae2:	f000 ffc3 	bl	8001a6c <TimerInit>
	EventSerial_Init();
 8000ae6:	f001 ff93 	bl	8002a10 <EventSerial_Init>
	EventSchedulerInit(AppStateManager);
 8000aea:	481d      	ldr	r0, [pc, #116]	; (8000b60 <AppInitCommon+0x88>)
 8000aec:	f000 ff24 	bl	8001938 <EventSchedulerInit>
	EventSerial_SetEventLedCallback(LedCmdSetState);
 8000af0:	481c      	ldr	r0, [pc, #112]	; (8000b64 <AppInitCommon+0x8c>)
 8000af2:	f001 ff99 	bl	8002a28 <EventSerial_SetEventLedCallback>
	EventSerial_SetEventBuzzerCallback(BuzzerCmdSetState);
 8000af6:	481c      	ldr	r0, [pc, #112]	; (8000b68 <AppInitCommon+0x90>)
 8000af8:	f001 ffb6 	bl	8002a68 <EventSerial_SetEventBuzzerCallback>
	EventSerial_SetEventButtonCallback(ButtonCmdSetState);
 8000afc:	481b      	ldr	r0, [pc, #108]	; (8000b6c <AppInitCommon+0x94>)
 8000afe:	f001 ffa3 	bl	8002a48 <EventSerial_SetEventButtonCallback>
	EventSerial_SetEventLcdCallback(LcdCmdSetState);
 8000b02:	481b      	ldr	r0, [pc, #108]	; (8000b70 <AppInitCommon+0x98>)
 8000b04:	f001 ffc0 	bl	8002a88 <EventSerial_SetEventLcdCallback>
	EventButton_Init();
 8000b08:	f000 f9ac 	bl	8000e64 <EventButton_Init>
	BuzzerControl_Init();
 8000b0c:	f000 fa7c 	bl	8001008 <BuzzerControl_Init>
	LedControl_Init();
 8000b10:	f000 fbda 	bl	80012c8 <LedControl_Init>
	LightSensor_Init(ADC_READ_MODE_DMA);
 8000b14:	2000      	movs	r0, #0
 8000b16:	f001 f991 	bl	8001e3c <LightSensor_Init>
	TemHumSensor_Init();
 8000b1a:	f001 fa66 	bl	8001fea <TemHumSensor_Init>
	Ucglib4WireSWSPI_begin(&ucg,UCG_FONT_MODE_SOLID);
 8000b1e:	2100      	movs	r1, #0
 8000b20:	4814      	ldr	r0, [pc, #80]	; (8000b74 <AppInitCommon+0x9c>)
 8000b22:	f002 fa3b 	bl	8002f9c <Ucglib4WireSWSPI_begin>
	ucg_ClearScreen(&ucg);
 8000b26:	4813      	ldr	r0, [pc, #76]	; (8000b74 <AppInitCommon+0x9c>)
 8000b28:	f002 fa7f 	bl	800302a <ucg_ClearScreen>
	ucg_SetFont(&ucg, ucg_font_ncenR12_hr);
 8000b2c:	4912      	ldr	r1, [pc, #72]	; (8000b78 <AppInitCommon+0xa0>)
 8000b2e:	4811      	ldr	r0, [pc, #68]	; (8000b74 <AppInitCommon+0x9c>)
 8000b30:	f003 fb94 	bl	800425c <ucg_SetFont>
	ucg_SetColor(&ucg, 0, 255, 255, 255);
 8000b34:	23ff      	movs	r3, #255	; 0xff
 8000b36:	9300      	str	r3, [sp, #0]
 8000b38:	23ff      	movs	r3, #255	; 0xff
 8000b3a:	22ff      	movs	r2, #255	; 0xff
 8000b3c:	2100      	movs	r1, #0
 8000b3e:	480d      	ldr	r0, [pc, #52]	; (8000b74 <AppInitCommon+0x9c>)
 8000b40:	f003 fc6b 	bl	800441a <ucg_SetColor>
	ucg_SetColor(&ucg, 1, 0, 0, 0);
 8000b44:	2300      	movs	r3, #0
 8000b46:	9300      	str	r3, [sp, #0]
 8000b48:	2300      	movs	r3, #0
 8000b4a:	2200      	movs	r2, #0
 8000b4c:	2101      	movs	r1, #1
 8000b4e:	4809      	ldr	r0, [pc, #36]	; (8000b74 <AppInitCommon+0x9c>)
 8000b50:	f003 fc63 	bl	800441a <ucg_SetColor>
	ucg_SetRotate180(&ucg);
 8000b54:	4807      	ldr	r0, [pc, #28]	; (8000b74 <AppInitCommon+0x9c>)
 8000b56:	f003 fd5b 	bl	8004610 <ucg_SetRotate180>
}
 8000b5a:	bf00      	nop
 8000b5c:	46bd      	mov	sp, r7
 8000b5e:	bd80      	pop	{r7, pc}
 8000b60:	08000a89 	.word	0x08000a89
 8000b64:	080003a9 	.word	0x080003a9
 8000b68:	08000579 	.word	0x08000579
 8000b6c:	080005dd 	.word	0x080005dd
 8000b70:	08000595 	.word	0x08000595
 8000b74:	200000ec 	.word	0x200000ec
 8000b78:	08007a88 	.word	0x08007a88

08000b7c <main>:

int main(void)
{
 8000b7c:	b580      	push	{r7, lr}
 8000b7e:	af00      	add	r7, sp, #0
	AppInitCommon();
 8000b80:	f7ff ffaa 	bl	8000ad8 <AppInitCommon>
	SetStateApp(STATE_APP_STARTUP);
 8000b84:	2000      	movs	r0, #0
 8000b86:	f7ff fe1d 	bl	80007c4 <SetStateApp>
	EventSchedulerAdd(EVENT_APP_INIT);
 8000b8a:	2001      	movs	r0, #1
 8000b8c:	f000 fef0 	bl	8001970 <EventSchedulerAdd>
	while(1)
	{
		processTimerScheduler();
 8000b90:	f001 f868 	bl	8001c64 <processTimerScheduler>
		processEventScheduler();
 8000b94:	f000 ff02 	bl	800199c <processEventScheduler>
		processSerialReceiver();
 8000b98:	f001 fd66 	bl	8002668 <processSerialReceiver>
		processTimerScheduler();
 8000b9c:	e7f8      	b.n	8000b90 <main+0x14>
	...

08000ba0 <_sbrk>:
 8000ba0:	b580      	push	{r7, lr}
 8000ba2:	b086      	sub	sp, #24
 8000ba4:	af00      	add	r7, sp, #0
 8000ba6:	6078      	str	r0, [r7, #4]
 8000ba8:	4a14      	ldr	r2, [pc, #80]	; (8000bfc <_sbrk+0x5c>)
 8000baa:	4b15      	ldr	r3, [pc, #84]	; (8000c00 <_sbrk+0x60>)
 8000bac:	1ad3      	subs	r3, r2, r3
 8000bae:	617b      	str	r3, [r7, #20]
 8000bb0:	697b      	ldr	r3, [r7, #20]
 8000bb2:	613b      	str	r3, [r7, #16]
 8000bb4:	4b13      	ldr	r3, [pc, #76]	; (8000c04 <_sbrk+0x64>)
 8000bb6:	681b      	ldr	r3, [r3, #0]
 8000bb8:	2b00      	cmp	r3, #0
 8000bba:	d102      	bne.n	8000bc2 <_sbrk+0x22>
 8000bbc:	4b11      	ldr	r3, [pc, #68]	; (8000c04 <_sbrk+0x64>)
 8000bbe:	4a12      	ldr	r2, [pc, #72]	; (8000c08 <_sbrk+0x68>)
 8000bc0:	601a      	str	r2, [r3, #0]
 8000bc2:	4b10      	ldr	r3, [pc, #64]	; (8000c04 <_sbrk+0x64>)
 8000bc4:	681a      	ldr	r2, [r3, #0]
 8000bc6:	687b      	ldr	r3, [r7, #4]
 8000bc8:	4413      	add	r3, r2
 8000bca:	693a      	ldr	r2, [r7, #16]
 8000bcc:	429a      	cmp	r2, r3
 8000bce:	d207      	bcs.n	8000be0 <_sbrk+0x40>
 8000bd0:	f006 fa0c 	bl	8006fec <__errno>
 8000bd4:	4603      	mov	r3, r0
 8000bd6:	220c      	movs	r2, #12
 8000bd8:	601a      	str	r2, [r3, #0]
 8000bda:	f04f 33ff 	mov.w	r3, #4294967295
 8000bde:	e009      	b.n	8000bf4 <_sbrk+0x54>
 8000be0:	4b08      	ldr	r3, [pc, #32]	; (8000c04 <_sbrk+0x64>)
 8000be2:	681b      	ldr	r3, [r3, #0]
 8000be4:	60fb      	str	r3, [r7, #12]
 8000be6:	4b07      	ldr	r3, [pc, #28]	; (8000c04 <_sbrk+0x64>)
 8000be8:	681a      	ldr	r2, [r3, #0]
 8000bea:	687b      	ldr	r3, [r7, #4]
 8000bec:	4413      	add	r3, r2
 8000bee:	4a05      	ldr	r2, [pc, #20]	; (8000c04 <_sbrk+0x64>)
 8000bf0:	6013      	str	r3, [r2, #0]
 8000bf2:	68fb      	ldr	r3, [r7, #12]
 8000bf4:	4618      	mov	r0, r3
 8000bf6:	3718      	adds	r7, #24
 8000bf8:	46bd      	mov	sp, r7
 8000bfa:	bd80      	pop	{r7, pc}
 8000bfc:	20018000 	.word	0x20018000
 8000c00:	00000400 	.word	0x00000400
 8000c04:	200001f0 	.word	0x200001f0
 8000c08:	200016d8 	.word	0x200016d8

08000c0c <Reset_Handler>:
 8000c0c:	480d      	ldr	r0, [pc, #52]	; (8000c44 <LoopForever+0x2>)
 8000c0e:	4685      	mov	sp, r0
 8000c10:	480d      	ldr	r0, [pc, #52]	; (8000c48 <LoopForever+0x6>)
 8000c12:	490e      	ldr	r1, [pc, #56]	; (8000c4c <LoopForever+0xa>)
 8000c14:	4a0e      	ldr	r2, [pc, #56]	; (8000c50 <LoopForever+0xe>)
 8000c16:	2300      	movs	r3, #0
 8000c18:	e002      	b.n	8000c20 <LoopCopyDataInit>

08000c1a <CopyDataInit>:
 8000c1a:	58d4      	ldr	r4, [r2, r3]
 8000c1c:	50c4      	str	r4, [r0, r3]
 8000c1e:	3304      	adds	r3, #4

08000c20 <LoopCopyDataInit>:
 8000c20:	18c4      	adds	r4, r0, r3
 8000c22:	428c      	cmp	r4, r1
 8000c24:	d3f9      	bcc.n	8000c1a <CopyDataInit>
 8000c26:	4a0b      	ldr	r2, [pc, #44]	; (8000c54 <LoopForever+0x12>)
 8000c28:	4c0b      	ldr	r4, [pc, #44]	; (8000c58 <LoopForever+0x16>)
 8000c2a:	2300      	movs	r3, #0
 8000c2c:	e001      	b.n	8000c32 <LoopFillZerobss>

08000c2e <FillZerobss>:
 8000c2e:	6013      	str	r3, [r2, #0]
 8000c30:	3204      	adds	r2, #4

08000c32 <LoopFillZerobss>:
 8000c32:	42a2      	cmp	r2, r4
 8000c34:	d3fb      	bcc.n	8000c2e <FillZerobss>
 8000c36:	f000 f813 	bl	8000c60 <SystemInit>
 8000c3a:	f006 f9dd 	bl	8006ff8 <__libc_init_array>
 8000c3e:	f7ff ff9d 	bl	8000b7c <main>

08000c42 <LoopForever>:
 8000c42:	e7fe      	b.n	8000c42 <LoopForever>
 8000c44:	20018000 	.word	0x20018000
 8000c48:	20000000 	.word	0x20000000
 8000c4c:	200000d0 	.word	0x200000d0
 8000c50:	0800826c 	.word	0x0800826c
 8000c54:	200000d0 	.word	0x200000d0
 8000c58:	200016d4 	.word	0x200016d4

08000c5c <ADC_IRQHandler>:
 8000c5c:	e7fe      	b.n	8000c5c <ADC_IRQHandler>
	...

08000c60 <SystemInit>:
 8000c60:	b580      	push	{r7, lr}
 8000c62:	af00      	add	r7, sp, #0
 8000c64:	4b16      	ldr	r3, [pc, #88]	; (8000cc0 <SystemInit+0x60>)
 8000c66:	f8d3 3088 	ldr.w	r3, [r3, #136]	; 0x88
 8000c6a:	4a15      	ldr	r2, [pc, #84]	; (8000cc0 <SystemInit+0x60>)
 8000c6c:	f443 0370 	orr.w	r3, r3, #15728640	; 0xf00000
 8000c70:	f8c2 3088 	str.w	r3, [r2, #136]	; 0x88
 8000c74:	4b13      	ldr	r3, [pc, #76]	; (8000cc4 <SystemInit+0x64>)
 8000c76:	681b      	ldr	r3, [r3, #0]
 8000c78:	4a12      	ldr	r2, [pc, #72]	; (8000cc4 <SystemInit+0x64>)
 8000c7a:	f043 0301 	orr.w	r3, r3, #1
 8000c7e:	6013      	str	r3, [r2, #0]
 8000c80:	4b10      	ldr	r3, [pc, #64]	; (8000cc4 <SystemInit+0x64>)
 8000c82:	2200      	movs	r2, #0
 8000c84:	609a      	str	r2, [r3, #8]
 8000c86:	4b0f      	ldr	r3, [pc, #60]	; (8000cc4 <SystemInit+0x64>)
 8000c88:	681b      	ldr	r3, [r3, #0]
 8000c8a:	4a0e      	ldr	r2, [pc, #56]	; (8000cc4 <SystemInit+0x64>)
 8000c8c:	f023 7384 	bic.w	r3, r3, #17301504	; 0x1080000
 8000c90:	f423 3380 	bic.w	r3, r3, #65536	; 0x10000
 8000c94:	6013      	str	r3, [r2, #0]
 8000c96:	4b0b      	ldr	r3, [pc, #44]	; (8000cc4 <SystemInit+0x64>)
 8000c98:	4a0b      	ldr	r2, [pc, #44]	; (8000cc8 <SystemInit+0x68>)
 8000c9a:	605a      	str	r2, [r3, #4]
 8000c9c:	4b09      	ldr	r3, [pc, #36]	; (8000cc4 <SystemInit+0x64>)
 8000c9e:	681b      	ldr	r3, [r3, #0]
 8000ca0:	4a08      	ldr	r2, [pc, #32]	; (8000cc4 <SystemInit+0x64>)
 8000ca2:	f423 2380 	bic.w	r3, r3, #262144	; 0x40000
 8000ca6:	6013      	str	r3, [r2, #0]
 8000ca8:	4b06      	ldr	r3, [pc, #24]	; (8000cc4 <SystemInit+0x64>)
 8000caa:	2200      	movs	r2, #0
 8000cac:	60da      	str	r2, [r3, #12]
 8000cae:	f000 f889 	bl	8000dc4 <SetSysClock>
 8000cb2:	4b03      	ldr	r3, [pc, #12]	; (8000cc0 <SystemInit+0x60>)
 8000cb4:	f04f 6200 	mov.w	r2, #134217728	; 0x8000000
 8000cb8:	609a      	str	r2, [r3, #8]
 8000cba:	bf00      	nop
 8000cbc:	bd80      	pop	{r7, pc}
 8000cbe:	bf00      	nop
 8000cc0:	e000ed00 	.word	0xe000ed00
 8000cc4:	40023800 	.word	0x40023800
 8000cc8:	24003010 	.word	0x24003010

08000ccc <SystemCoreClockUpdate>:
 8000ccc:	b480      	push	{r7}
 8000cce:	b087      	sub	sp, #28
 8000cd0:	af00      	add	r7, sp, #0
 8000cd2:	2300      	movs	r3, #0
 8000cd4:	613b      	str	r3, [r7, #16]
 8000cd6:	2300      	movs	r3, #0
 8000cd8:	617b      	str	r3, [r7, #20]
 8000cda:	2302      	movs	r3, #2
 8000cdc:	60fb      	str	r3, [r7, #12]
 8000cde:	2300      	movs	r3, #0
 8000ce0:	60bb      	str	r3, [r7, #8]
 8000ce2:	2302      	movs	r3, #2
 8000ce4:	607b      	str	r3, [r7, #4]
 8000ce6:	4b32      	ldr	r3, [pc, #200]	; (8000db0 <SystemCoreClockUpdate+0xe4>)
 8000ce8:	689b      	ldr	r3, [r3, #8]
 8000cea:	f003 030c 	and.w	r3, r3, #12
 8000cee:	613b      	str	r3, [r7, #16]
 8000cf0:	693b      	ldr	r3, [r7, #16]
 8000cf2:	2b04      	cmp	r3, #4
 8000cf4:	d007      	beq.n	8000d06 <SystemCoreClockUpdate+0x3a>
 8000cf6:	2b08      	cmp	r3, #8
 8000cf8:	d009      	beq.n	8000d0e <SystemCoreClockUpdate+0x42>
 8000cfa:	2b00      	cmp	r3, #0
 8000cfc:	d13d      	bne.n	8000d7a <SystemCoreClockUpdate+0xae>
 8000cfe:	4b2d      	ldr	r3, [pc, #180]	; (8000db4 <SystemCoreClockUpdate+0xe8>)
 8000d00:	4a2d      	ldr	r2, [pc, #180]	; (8000db8 <SystemCoreClockUpdate+0xec>)
 8000d02:	601a      	str	r2, [r3, #0]
 8000d04:	e03d      	b.n	8000d82 <SystemCoreClockUpdate+0xb6>
 8000d06:	4b2b      	ldr	r3, [pc, #172]	; (8000db4 <SystemCoreClockUpdate+0xe8>)
 8000d08:	4a2c      	ldr	r2, [pc, #176]	; (8000dbc <SystemCoreClockUpdate+0xf0>)
 8000d0a:	601a      	str	r2, [r3, #0]
 8000d0c:	e039      	b.n	8000d82 <SystemCoreClockUpdate+0xb6>
 8000d0e:	4b28      	ldr	r3, [pc, #160]	; (8000db0 <SystemCoreClockUpdate+0xe4>)
 8000d10:	685b      	ldr	r3, [r3, #4]
 8000d12:	0d9b      	lsrs	r3, r3, #22
 8000d14:	f003 0301 	and.w	r3, r3, #1
 8000d18:	60bb      	str	r3, [r7, #8]
 8000d1a:	4b25      	ldr	r3, [pc, #148]	; (8000db0 <SystemCoreClockUpdate+0xe4>)
 8000d1c:	685b      	ldr	r3, [r3, #4]
 8000d1e:	f003 033f 	and.w	r3, r3, #63	; 0x3f
 8000d22:	607b      	str	r3, [r7, #4]
 8000d24:	68bb      	ldr	r3, [r7, #8]
 8000d26:	2b00      	cmp	r3, #0
 8000d28:	d00c      	beq.n	8000d44 <SystemCoreClockUpdate+0x78>
 8000d2a:	4a24      	ldr	r2, [pc, #144]	; (8000dbc <SystemCoreClockUpdate+0xf0>)
 8000d2c:	687b      	ldr	r3, [r7, #4]
 8000d2e:	fbb2 f3f3 	udiv	r3, r2, r3
 8000d32:	4a1f      	ldr	r2, [pc, #124]	; (8000db0 <SystemCoreClockUpdate+0xe4>)
 8000d34:	6852      	ldr	r2, [r2, #4]
 8000d36:	0992      	lsrs	r2, r2, #6
 8000d38:	f3c2 0208 	ubfx	r2, r2, #0, #9
 8000d3c:	fb02 f303 	mul.w	r3, r2, r3
 8000d40:	617b      	str	r3, [r7, #20]
 8000d42:	e00b      	b.n	8000d5c <SystemCoreClockUpdate+0x90>
 8000d44:	4a1c      	ldr	r2, [pc, #112]	; (8000db8 <SystemCoreClockUpdate+0xec>)
 8000d46:	687b      	ldr	r3, [r7, #4]
 8000d48:	fbb2 f3f3 	udiv	r3, r2, r3
 8000d4c:	4a18      	ldr	r2, [pc, #96]	; (8000db0 <SystemCoreClockUpdate+0xe4>)
 8000d4e:	6852      	ldr	r2, [r2, #4]
 8000d50:	0992      	lsrs	r2, r2, #6
 8000d52:	f3c2 0208 	ubfx	r2, r2, #0, #9
 8000d56:	fb02 f303 	mul.w	r3, r2, r3
 8000d5a:	617b      	str	r3, [r7, #20]
 8000d5c:	4b14      	ldr	r3, [pc, #80]	; (8000db0 <SystemCoreClockUpdate+0xe4>)
 8000d5e:	685b      	ldr	r3, [r3, #4]
 8000d60:	0c1b      	lsrs	r3, r3, #16
 8000d62:	f003 0303 	and.w	r3, r3, #3
 8000d66:	3301      	adds	r3, #1
 8000d68:	005b      	lsls	r3, r3, #1
 8000d6a:	60fb      	str	r3, [r7, #12]
 8000d6c:	697a      	ldr	r2, [r7, #20]
 8000d6e:	68fb      	ldr	r3, [r7, #12]
 8000d70:	fbb2 f3f3 	udiv	r3, r2, r3
 8000d74:	4a0f      	ldr	r2, [pc, #60]	; (8000db4 <SystemCoreClockUpdate+0xe8>)
 8000d76:	6013      	str	r3, [r2, #0]
 8000d78:	e003      	b.n	8000d82 <SystemCoreClockUpdate+0xb6>
 8000d7a:	4b0e      	ldr	r3, [pc, #56]	; (8000db4 <SystemCoreClockUpdate+0xe8>)
 8000d7c:	4a0e      	ldr	r2, [pc, #56]	; (8000db8 <SystemCoreClockUpdate+0xec>)
 8000d7e:	601a      	str	r2, [r3, #0]
 8000d80:	bf00      	nop
 8000d82:	4b0b      	ldr	r3, [pc, #44]	; (8000db0 <SystemCoreClockUpdate+0xe4>)
 8000d84:	689b      	ldr	r3, [r3, #8]
 8000d86:	091b      	lsrs	r3, r3, #4
 8000d88:	f003 030f 	and.w	r3, r3, #15
 8000d8c:	4a0c      	ldr	r2, [pc, #48]	; (8000dc0 <SystemCoreClockUpdate+0xf4>)
 8000d8e:	5cd3      	ldrb	r3, [r2, r3]
 8000d90:	b2db      	uxtb	r3, r3
 8000d92:	613b      	str	r3, [r7, #16]
 8000d94:	4b07      	ldr	r3, [pc, #28]	; (8000db4 <SystemCoreClockUpdate+0xe8>)
 8000d96:	681a      	ldr	r2, [r3, #0]
 8000d98:	693b      	ldr	r3, [r7, #16]
 8000d9a:	fa22 f303 	lsr.w	r3, r2, r3
 8000d9e:	4a05      	ldr	r2, [pc, #20]	; (8000db4 <SystemCoreClockUpdate+0xe8>)
 8000da0:	6013      	str	r3, [r2, #0]
 8000da2:	bf00      	nop
 8000da4:	371c      	adds	r7, #28
 8000da6:	46bd      	mov	sp, r7
 8000da8:	f85d 7b04 	ldr.w	r7, [sp], #4
 8000dac:	4770      	bx	lr
 8000dae:	bf00      	nop
 8000db0:	40023800 	.word	0x40023800
 8000db4:	20000004 	.word	0x20000004
 8000db8:	00f42400 	.word	0x00f42400
 8000dbc:	017d7840 	.word	0x017d7840
 8000dc0:	20000008 	.word	0x20000008

08000dc4 <SetSysClock>:
 8000dc4:	b480      	push	{r7}
 8000dc6:	af00      	add	r7, sp, #0
 8000dc8:	4b22      	ldr	r3, [pc, #136]	; (8000e54 <SetSysClock+0x90>)
 8000dca:	6c1b      	ldr	r3, [r3, #64]	; 0x40
 8000dcc:	4a21      	ldr	r2, [pc, #132]	; (8000e54 <SetSysClock+0x90>)
 8000dce:	f043 5380 	orr.w	r3, r3, #268435456	; 0x10000000
 8000dd2:	6413      	str	r3, [r2, #64]	; 0x40
 8000dd4:	4b20      	ldr	r3, [pc, #128]	; (8000e58 <SetSysClock+0x94>)
 8000dd6:	681b      	ldr	r3, [r3, #0]
 8000dd8:	4a1f      	ldr	r2, [pc, #124]	; (8000e58 <SetSysClock+0x94>)
 8000dda:	f443 4340 	orr.w	r3, r3, #49152	; 0xc000
 8000dde:	6013      	str	r3, [r2, #0]
 8000de0:	4b1c      	ldr	r3, [pc, #112]	; (8000e54 <SetSysClock+0x90>)
 8000de2:	4a1c      	ldr	r2, [pc, #112]	; (8000e54 <SetSysClock+0x90>)
 8000de4:	689b      	ldr	r3, [r3, #8]
 8000de6:	6093      	str	r3, [r2, #8]
 8000de8:	4b1a      	ldr	r3, [pc, #104]	; (8000e54 <SetSysClock+0x90>)
 8000dea:	4a1a      	ldr	r2, [pc, #104]	; (8000e54 <SetSysClock+0x90>)
 8000dec:	689b      	ldr	r3, [r3, #8]
 8000dee:	6093      	str	r3, [r2, #8]
 8000df0:	4b18      	ldr	r3, [pc, #96]	; (8000e54 <SetSysClock+0x90>)
 8000df2:	689b      	ldr	r3, [r3, #8]
 8000df4:	4a17      	ldr	r2, [pc, #92]	; (8000e54 <SetSysClock+0x90>)
 8000df6:	f443 5380 	orr.w	r3, r3, #4096	; 0x1000
 8000dfa:	6093      	str	r3, [r2, #8]
 8000dfc:	4b15      	ldr	r3, [pc, #84]	; (8000e54 <SetSysClock+0x90>)
 8000dfe:	4a17      	ldr	r2, [pc, #92]	; (8000e5c <SetSysClock+0x98>)
 8000e00:	605a      	str	r2, [r3, #4]
 8000e02:	4b14      	ldr	r3, [pc, #80]	; (8000e54 <SetSysClock+0x90>)
 8000e04:	681b      	ldr	r3, [r3, #0]
 8000e06:	4a13      	ldr	r2, [pc, #76]	; (8000e54 <SetSysClock+0x90>)
 8000e08:	f043 7380 	orr.w	r3, r3, #16777216	; 0x1000000
 8000e0c:	6013      	str	r3, [r2, #0]
 8000e0e:	bf00      	nop
 8000e10:	4b10      	ldr	r3, [pc, #64]	; (8000e54 <SetSysClock+0x90>)
 8000e12:	681b      	ldr	r3, [r3, #0]
 8000e14:	f003 7300 	and.w	r3, r3, #33554432	; 0x2000000
 8000e18:	2b00      	cmp	r3, #0
 8000e1a:	d0f9      	beq.n	8000e10 <SetSysClock+0x4c>
 8000e1c:	4b10      	ldr	r3, [pc, #64]	; (8000e60 <SetSysClock+0x9c>)
 8000e1e:	f240 6202 	movw	r2, #1538	; 0x602
 8000e22:	601a      	str	r2, [r3, #0]
 8000e24:	4b0b      	ldr	r3, [pc, #44]	; (8000e54 <SetSysClock+0x90>)
 8000e26:	689b      	ldr	r3, [r3, #8]
 8000e28:	4a0a      	ldr	r2, [pc, #40]	; (8000e54 <SetSysClock+0x90>)
 8000e2a:	f023 0303 	bic.w	r3, r3, #3
 8000e2e:	6093      	str	r3, [r2, #8]
 8000e30:	4b08      	ldr	r3, [pc, #32]	; (8000e54 <SetSysClock+0x90>)
 8000e32:	689b      	ldr	r3, [r3, #8]
 8000e34:	4a07      	ldr	r2, [pc, #28]	; (8000e54 <SetSysClock+0x90>)
 8000e36:	f043 0302 	orr.w	r3, r3, #2
 8000e3a:	6093      	str	r3, [r2, #8]
 8000e3c:	bf00      	nop
 8000e3e:	4b05      	ldr	r3, [pc, #20]	; (8000e54 <SetSysClock+0x90>)
 8000e40:	689b      	ldr	r3, [r3, #8]
 8000e42:	f003 030c 	and.w	r3, r3, #12
 8000e46:	2b08      	cmp	r3, #8
 8000e48:	d1f9      	bne.n	8000e3e <SetSysClock+0x7a>
 8000e4a:	bf00      	nop
 8000e4c:	46bd      	mov	sp, r7
 8000e4e:	f85d 7b04 	ldr.w	r7, [sp], #4
 8000e52:	4770      	bx	lr
 8000e54:	40023800 	.word	0x40023800
 8000e58:	40007000 	.word	0x40007000
 8000e5c:	08015410 	.word	0x08015410
 8000e60:	40023c00 	.word	0x40023c00

08000e64 <EventButton_Init>:
 8000e64:	b580      	push	{r7, lr}
 8000e66:	af00      	add	r7, sp, #0
 8000e68:	4915      	ldr	r1, [pc, #84]	; (8000ec0 <EventButton_Init+0x5c>)
 8000e6a:	2000      	movs	r0, #0
 8000e6c:	f005 fa48 	bl	8006300 <Button_RegisterEventCallback>
 8000e70:	4914      	ldr	r1, [pc, #80]	; (8000ec4 <EventButton_Init+0x60>)
 8000e72:	2001      	movs	r0, #1
 8000e74:	f005 fa44 	bl	8006300 <Button_RegisterEventCallback>
 8000e78:	4913      	ldr	r1, [pc, #76]	; (8000ec8 <EventButton_Init+0x64>)
 8000e7a:	2002      	movs	r0, #2
 8000e7c:	f005 fa40 	bl	8006300 <Button_RegisterEventCallback>
 8000e80:	4912      	ldr	r1, [pc, #72]	; (8000ecc <EventButton_Init+0x68>)
 8000e82:	2003      	movs	r0, #3
 8000e84:	f005 fa3c 	bl	8006300 <Button_RegisterEventCallback>
 8000e88:	2101      	movs	r1, #1
 8000e8a:	2000      	movs	r0, #0
 8000e8c:	f005 fa1a 	bl	80062c4 <Button_SetMode>
 8000e90:	2101      	movs	r1, #1
 8000e92:	2001      	movs	r0, #1
 8000e94:	f005 fa16 	bl	80062c4 <Button_SetMode>
 8000e98:	2101      	movs	r1, #1
 8000e9a:	2002      	movs	r0, #2
 8000e9c:	f005 fa12 	bl	80062c4 <Button_SetMode>
 8000ea0:	2101      	movs	r1, #1
 8000ea2:	2003      	movs	r0, #3
 8000ea4:	f005 fa0e 	bl	80062c4 <Button_SetMode>
 8000ea8:	2101      	movs	r1, #1
 8000eaa:	2004      	movs	r0, #4
 8000eac:	f005 fa0a 	bl	80062c4 <Button_SetMode>
 8000eb0:	2101      	movs	r1, #1
 8000eb2:	2005      	movs	r0, #5
 8000eb4:	f005 fa06 	bl	80062c4 <Button_SetMode>
 8000eb8:	f005 f9a6 	bl	8006208 <Button_Init>
 8000ebc:	bf00      	nop
 8000ebe:	bd80      	pop	{r7, pc}
 8000ec0:	08000ed1 	.word	0x08000ed1
 8000ec4:	08000f05 	.word	0x08000f05
 8000ec8:	08000f4d 	.word	0x08000f4d
 8000ecc:	08000fab 	.word	0x08000fab

08000ed0 <ButtonProcessEventEdge>:
 8000ed0:	b580      	push	{r7, lr}
 8000ed2:	b084      	sub	sp, #16
 8000ed4:	af00      	add	r7, sp, #0
 8000ed6:	4603      	mov	r3, r0
 8000ed8:	460a      	mov	r2, r1
 8000eda:	71fb      	strb	r3, [r7, #7]
 8000edc:	4613      	mov	r3, r2
 8000ede:	80bb      	strh	r3, [r7, #4]
 8000ee0:	88bb      	ldrh	r3, [r7, #4]
 8000ee2:	2b00      	cmp	r3, #0
 8000ee4:	d103      	bne.n	8000eee <ButtonProcessEventEdge+0x1e>
 8000ee6:	79fb      	ldrb	r3, [r7, #7]
 8000ee8:	3306      	adds	r3, #6
 8000eea:	73fb      	strb	r3, [r7, #15]
 8000eec:	e002      	b.n	8000ef4 <ButtonProcessEventEdge+0x24>
 8000eee:	79fb      	ldrb	r3, [r7, #7]
 8000ef0:	330c      	adds	r3, #12
 8000ef2:	73fb      	strb	r3, [r7, #15]
 8000ef4:	7bfb      	ldrb	r3, [r7, #15]
 8000ef6:	4618      	mov	r0, r3
 8000ef8:	f000 fd3a 	bl	8001970 <EventSchedulerAdd>
 8000efc:	bf00      	nop
 8000efe:	3710      	adds	r7, #16
 8000f00:	46bd      	mov	sp, r7
 8000f02:	bd80      	pop	{r7, pc}

08000f04 <ButtonProcessEventPress>:
 8000f04:	b580      	push	{r7, lr}
 8000f06:	b084      	sub	sp, #16
 8000f08:	af00      	add	r7, sp, #0
 8000f0a:	4603      	mov	r3, r0
 8000f0c:	460a      	mov	r2, r1
 8000f0e:	71fb      	strb	r3, [r7, #7]
 8000f10:	4613      	mov	r3, r2
 8000f12:	80bb      	strh	r3, [r7, #4]
 8000f14:	88bb      	ldrh	r3, [r7, #4]
 8000f16:	2b01      	cmp	r3, #1
 8000f18:	d102      	bne.n	8000f20 <ButtonProcessEventPress+0x1c>
 8000f1a:	79fb      	ldrb	r3, [r7, #7]
 8000f1c:	73fb      	strb	r3, [r7, #15]
 8000f1e:	e00c      	b.n	8000f3a <ButtonProcessEventPress+0x36>
 8000f20:	88bb      	ldrh	r3, [r7, #4]
 8000f22:	2b02      	cmp	r3, #2
 8000f24:	d103      	bne.n	8000f2e <ButtonProcessEventPress+0x2a>
 8000f26:	79fb      	ldrb	r3, [r7, #7]
 8000f28:	3312      	adds	r3, #18
 8000f2a:	73fb      	strb	r3, [r7, #15]
 8000f2c:	e005      	b.n	8000f3a <ButtonProcessEventPress+0x36>
 8000f2e:	88bb      	ldrh	r3, [r7, #4]
 8000f30:	2b05      	cmp	r3, #5
 8000f32:	d107      	bne.n	8000f44 <ButtonProcessEventPress+0x40>
 8000f34:	79fb      	ldrb	r3, [r7, #7]
 8000f36:	3318      	adds	r3, #24
 8000f38:	73fb      	strb	r3, [r7, #15]
 8000f3a:	7bfb      	ldrb	r3, [r7, #15]
 8000f3c:	4618      	mov	r0, r3
 8000f3e:	f000 fd17 	bl	8001970 <EventSchedulerAdd>
 8000f42:	e000      	b.n	8000f46 <ButtonProcessEventPress+0x42>
 8000f44:	bf00      	nop
 8000f46:	3710      	adds	r7, #16
 8000f48:	46bd      	mov	sp, r7
 8000f4a:	bd80      	pop	{r7, pc}

08000f4c <ButtonProcessEventHold>:
 8000f4c:	b580      	push	{r7, lr}
 8000f4e:	b084      	sub	sp, #16
 8000f50:	af00      	add	r7, sp, #0
 8000f52:	4603      	mov	r3, r0
 8000f54:	460a      	mov	r2, r1
 8000f56:	71fb      	strb	r3, [r7, #7]
 8000f58:	4613      	mov	r3, r2
 8000f5a:	80bb      	strh	r3, [r7, #4]
 8000f5c:	88bb      	ldrh	r3, [r7, #4]
 8000f5e:	f5b3 6ffa 	cmp.w	r3, #2000	; 0x7d0
 8000f62:	d103      	bne.n	8000f6c <ButtonProcessEventHold+0x20>
 8000f64:	79fb      	ldrb	r3, [r7, #7]
 8000f66:	3330      	adds	r3, #48	; 0x30
 8000f68:	73fb      	strb	r3, [r7, #15]
 8000f6a:	e015      	b.n	8000f98 <ButtonProcessEventHold+0x4c>
 8000f6c:	88bb      	ldrh	r3, [r7, #4]
 8000f6e:	f5b3 7f7a 	cmp.w	r3, #1000	; 0x3e8
 8000f72:	d103      	bne.n	8000f7c <ButtonProcessEventHold+0x30>
 8000f74:	79fb      	ldrb	r3, [r7, #7]
 8000f76:	332a      	adds	r3, #42	; 0x2a
 8000f78:	73fb      	strb	r3, [r7, #15]
 8000f7a:	e00d      	b.n	8000f98 <ButtonProcessEventHold+0x4c>
 8000f7c:	88bb      	ldrh	r3, [r7, #4]
 8000f7e:	f5b3 7f16 	cmp.w	r3, #600	; 0x258
 8000f82:	d103      	bne.n	8000f8c <ButtonProcessEventHold+0x40>
 8000f84:	79fb      	ldrb	r3, [r7, #7]
 8000f86:	3324      	adds	r3, #36	; 0x24
 8000f88:	73fb      	strb	r3, [r7, #15]
 8000f8a:	e005      	b.n	8000f98 <ButtonProcessEventHold+0x4c>
 8000f8c:	88bb      	ldrh	r3, [r7, #4]
 8000f8e:	2bc8      	cmp	r3, #200	; 0xc8
 8000f90:	d107      	bne.n	8000fa2 <ButtonProcessEventHold+0x56>
 8000f92:	79fb      	ldrb	r3, [r7, #7]
 8000f94:	331e      	adds	r3, #30
 8000f96:	73fb      	strb	r3, [r7, #15]
 8000f98:	7bfb      	ldrb	r3, [r7, #15]
 8000f9a:	4618      	mov	r0, r3
 8000f9c:	f000 fce8 	bl	8001970 <EventSchedulerAdd>
 8000fa0:	e000      	b.n	8000fa4 <ButtonProcessEventHold+0x58>
 8000fa2:	bf00      	nop
 8000fa4:	3710      	adds	r7, #16
 8000fa6:	46bd      	mov	sp, r7
 8000fa8:	bd80      	pop	{r7, pc}

08000faa <ButtonProcessEventRelease>:
 8000faa:	b580      	push	{r7, lr}
 8000fac:	b084      	sub	sp, #16
 8000fae:	af00      	add	r7, sp, #0
 8000fb0:	4603      	mov	r3, r0
 8000fb2:	460a      	mov	r2, r1
 8000fb4:	71fb      	strb	r3, [r7, #7]
 8000fb6:	4613      	mov	r3, r2
 8000fb8:	80bb      	strh	r3, [r7, #4]
 8000fba:	88bb      	ldrh	r3, [r7, #4]
 8000fbc:	f5b3 6ffa 	cmp.w	r3, #2000	; 0x7d0
 8000fc0:	d303      	bcc.n	8000fca <ButtonProcessEventRelease+0x20>
 8000fc2:	79fb      	ldrb	r3, [r7, #7]
 8000fc4:	3348      	adds	r3, #72	; 0x48
 8000fc6:	73fb      	strb	r3, [r7, #15]
 8000fc8:	e015      	b.n	8000ff6 <ButtonProcessEventRelease+0x4c>
 8000fca:	88bb      	ldrh	r3, [r7, #4]
 8000fcc:	f5b3 7f7a 	cmp.w	r3, #1000	; 0x3e8
 8000fd0:	d303      	bcc.n	8000fda <ButtonProcessEventRelease+0x30>
 8000fd2:	79fb      	ldrb	r3, [r7, #7]
 8000fd4:	3342      	adds	r3, #66	; 0x42
 8000fd6:	73fb      	strb	r3, [r7, #15]
 8000fd8:	e00d      	b.n	8000ff6 <ButtonProcessEventRelease+0x4c>
 8000fda:	88bb      	ldrh	r3, [r7, #4]
 8000fdc:	f5b3 7f16 	cmp.w	r3, #600	; 0x258
 8000fe0:	d303      	bcc.n	8000fea <ButtonProcessEventRelease+0x40>
 8000fe2:	79fb      	ldrb	r3, [r7, #7]
 8000fe4:	333c      	adds	r3, #60	; 0x3c
 8000fe6:	73fb      	strb	r3, [r7, #15]
 8000fe8:	e005      	b.n	8000ff6 <ButtonProcessEventRelease+0x4c>
 8000fea:	88bb      	ldrh	r3, [r7, #4]
 8000fec:	2bc7      	cmp	r3, #199	; 0xc7
 8000fee:	d907      	bls.n	8001000 <ButtonProcessEventRelease+0x56>
 8000ff0:	79fb      	ldrb	r3, [r7, #7]
 8000ff2:	3336      	adds	r3, #54	; 0x36
 8000ff4:	73fb      	strb	r3, [r7, #15]
 8000ff6:	7bfb      	ldrb	r3, [r7, #15]
 8000ff8:	4618      	mov	r0, r3
 8000ffa:	f000 fcb9 	bl	8001970 <EventSchedulerAdd>
 8000ffe:	e000      	b.n	8001002 <ButtonProcessEventRelease+0x58>
 8001000:	bf00      	nop
 8001002:	3710      	adds	r7, #16
 8001004:	46bd      	mov	sp, r7
 8001006:	bd80      	pop	{r7, pc}

08001008 <BuzzerControl_Init>:
 8001008:	b580      	push	{r7, lr}
 800100a:	af00      	add	r7, sp, #0
 800100c:	f241 3288 	movw	r2, #5000	; 0x1388
 8001010:	2120      	movs	r1, #32
 8001012:	2000      	movs	r0, #0
 8001014:	f000 f8ba 	bl	800118c <BUZZTIM_InitTimer>
 8001018:	4b04      	ldr	r3, [pc, #16]	; (800102c <BuzzerControl_Init+0x24>)
 800101a:	e893 0003 	ldmia.w	r3, {r0, r1}
 800101e:	f000 f8dd 	bl	80011dc <BUZZTIM_InitPWMChannel>
 8001022:	4b03      	ldr	r3, [pc, #12]	; (8001030 <BuzzerControl_Init+0x28>)
 8001024:	2201      	movs	r2, #1
 8001026:	701a      	strb	r2, [r3, #0]
 8001028:	bf00      	nop
 800102a:	bd80      	pop	{r7, pc}
 800102c:	080079a0 	.word	0x080079a0
 8001030:	200001f4 	.word	0x200001f4

08001034 <BuzzOff>:
 8001034:	b580      	push	{r7, lr}
 8001036:	b082      	sub	sp, #8
 8001038:	af00      	add	r7, sp, #0
 800103a:	6078      	str	r0, [r7, #4]
 800103c:	4b11      	ldr	r3, [pc, #68]	; (8001084 <BuzzOff+0x50>)
 800103e:	22ff      	movs	r2, #255	; 0xff
 8001040:	701a      	strb	r2, [r3, #0]
 8001042:	4b11      	ldr	r3, [pc, #68]	; (8001088 <BuzzOff+0x54>)
 8001044:	681b      	ldr	r3, [r3, #0]
 8001046:	3304      	adds	r3, #4
 8001048:	4a0f      	ldr	r2, [pc, #60]	; (8001088 <BuzzOff+0x54>)
 800104a:	6013      	str	r3, [r2, #0]
 800104c:	4b0e      	ldr	r3, [pc, #56]	; (8001088 <BuzzOff+0x54>)
 800104e:	681b      	ldr	r3, [r3, #0]
 8001050:	881b      	ldrh	r3, [r3, #0]
 8001052:	2b00      	cmp	r3, #0
 8001054:	d108      	bne.n	8001068 <BuzzOff+0x34>
 8001056:	4b0c      	ldr	r3, [pc, #48]	; (8001088 <BuzzOff+0x54>)
 8001058:	681b      	ldr	r3, [r3, #0]
 800105a:	885b      	ldrh	r3, [r3, #2]
 800105c:	2b00      	cmp	r3, #0
 800105e:	d103      	bne.n	8001068 <BuzzOff+0x34>
 8001060:	2000      	movs	r0, #0
 8001062:	f000 f903 	bl	800126c <BuzzerControl_SetDutyCycle>
 8001066:	e009      	b.n	800107c <BuzzOff+0x48>
 8001068:	4b07      	ldr	r3, [pc, #28]	; (8001088 <BuzzOff+0x54>)
 800106a:	681b      	ldr	r3, [r3, #0]
 800106c:	881a      	ldrh	r2, [r3, #0]
 800106e:	4b06      	ldr	r3, [pc, #24]	; (8001088 <BuzzOff+0x54>)
 8001070:	681b      	ldr	r3, [r3, #0]
 8001072:	885b      	ldrh	r3, [r3, #2]
 8001074:	4619      	mov	r1, r3
 8001076:	4610      	mov	r0, r2
 8001078:	f000 f808 	bl	800108c <BuzzPlay>
 800107c:	bf00      	nop
 800107e:	3708      	adds	r7, #8
 8001080:	46bd      	mov	sp, r7
 8001082:	bd80      	pop	{r7, pc}
 8001084:	20000018 	.word	0x20000018
 8001088:	200001f8 	.word	0x200001f8

0800108c <BuzzPlay>:
 800108c:	b580      	push	{r7, lr}
 800108e:	b086      	sub	sp, #24
 8001090:	af02      	add	r7, sp, #8
 8001092:	4603      	mov	r3, r0
 8001094:	460a      	mov	r2, r1
 8001096:	80fb      	strh	r3, [r7, #6]
 8001098:	4613      	mov	r3, r2
 800109a:	80bb      	strh	r3, [r7, #4]
 800109c:	88fb      	ldrh	r3, [r7, #6]
 800109e:	2b00      	cmp	r3, #0
 80010a0:	d103      	bne.n	80010aa <BuzzPlay+0x1e>
 80010a2:	2000      	movs	r0, #0
 80010a4:	f000 f8e2 	bl	800126c <BuzzerControl_SetDutyCycle>
 80010a8:	e017      	b.n	80010da <BuzzPlay+0x4e>
 80010aa:	88fb      	ldrh	r3, [r7, #6]
 80010ac:	f64f 72ff 	movw	r2, #65535	; 0xffff
 80010b0:	4293      	cmp	r3, r2
 80010b2:	d107      	bne.n	80010c4 <BuzzPlay+0x38>
 80010b4:	f241 3088 	movw	r0, #5000	; 0x1388
 80010b8:	f000 f8f6 	bl	80012a8 <BuzzerControl_SetPreriod>
 80010bc:	2065      	movs	r0, #101	; 0x65
 80010be:	f000 f8d5 	bl	800126c <BuzzerControl_SetDutyCycle>
 80010c2:	e00a      	b.n	80010da <BuzzPlay+0x4e>
 80010c4:	88fb      	ldrh	r3, [r7, #6]
 80010c6:	4a13      	ldr	r2, [pc, #76]	; (8001114 <BuzzPlay+0x88>)
 80010c8:	fb92 f3f3 	sdiv	r3, r2, r3
 80010cc:	60fb      	str	r3, [r7, #12]
 80010ce:	68f8      	ldr	r0, [r7, #12]
 80010d0:	f000 f8ea 	bl	80012a8 <BuzzerControl_SetPreriod>
 80010d4:	2005      	movs	r0, #5
 80010d6:	f000 f8c9 	bl	800126c <BuzzerControl_SetDutyCycle>
 80010da:	4b0f      	ldr	r3, [pc, #60]	; (8001118 <BuzzPlay+0x8c>)
 80010dc:	781b      	ldrb	r3, [r3, #0]
 80010de:	2bff      	cmp	r3, #255	; 0xff
 80010e0:	d007      	beq.n	80010f2 <BuzzPlay+0x66>
 80010e2:	4b0d      	ldr	r3, [pc, #52]	; (8001118 <BuzzPlay+0x8c>)
 80010e4:	781b      	ldrb	r3, [r3, #0]
 80010e6:	4618      	mov	r0, r3
 80010e8:	f000 fd60 	bl	8001bac <TimerStop>
 80010ec:	4b0a      	ldr	r3, [pc, #40]	; (8001118 <BuzzPlay+0x8c>)
 80010ee:	22ff      	movs	r2, #255	; 0xff
 80010f0:	701a      	strb	r2, [r3, #0]
 80010f2:	88b9      	ldrh	r1, [r7, #4]
 80010f4:	2300      	movs	r3, #0
 80010f6:	9300      	str	r3, [sp, #0]
 80010f8:	4b08      	ldr	r3, [pc, #32]	; (800111c <BuzzPlay+0x90>)
 80010fa:	2200      	movs	r2, #0
 80010fc:	4808      	ldr	r0, [pc, #32]	; (8001120 <BuzzPlay+0x94>)
 80010fe:	f000 fcd7 	bl	8001ab0 <TimerStart>
 8001102:	4603      	mov	r3, r0
 8001104:	461a      	mov	r2, r3
 8001106:	4b04      	ldr	r3, [pc, #16]	; (8001118 <BuzzPlay+0x8c>)
 8001108:	701a      	strb	r2, [r3, #0]
 800110a:	bf00      	nop
 800110c:	3710      	adds	r7, #16
 800110e:	46bd      	mov	sp, r7
 8001110:	bd80      	pop	{r7, pc}
 8001112:	bf00      	nop
 8001114:	000b71b0 	.word	0x000b71b0
 8001118:	20000018 	.word	0x20000018
 800111c:	08001035 	.word	0x08001035
 8001120:	08007960 	.word	0x08007960

08001124 <BuzzerControl_SetMelody>:
 8001124:	b580      	push	{r7, lr}
 8001126:	b082      	sub	sp, #8
 8001128:	af00      	add	r7, sp, #0
 800112a:	6078      	str	r0, [r7, #4]
 800112c:	4b0a      	ldr	r3, [pc, #40]	; (8001158 <BuzzerControl_SetMelody+0x34>)
 800112e:	781b      	ldrb	r3, [r3, #0]
 8001130:	2b00      	cmp	r3, #0
 8001132:	d00d      	beq.n	8001150 <BuzzerControl_SetMelody+0x2c>
 8001134:	4a09      	ldr	r2, [pc, #36]	; (800115c <BuzzerControl_SetMelody+0x38>)
 8001136:	687b      	ldr	r3, [r7, #4]
 8001138:	6013      	str	r3, [r2, #0]
 800113a:	4b08      	ldr	r3, [pc, #32]	; (800115c <BuzzerControl_SetMelody+0x38>)
 800113c:	681b      	ldr	r3, [r3, #0]
 800113e:	881a      	ldrh	r2, [r3, #0]
 8001140:	4b06      	ldr	r3, [pc, #24]	; (800115c <BuzzerControl_SetMelody+0x38>)
 8001142:	681b      	ldr	r3, [r3, #0]
 8001144:	885b      	ldrh	r3, [r3, #2]
 8001146:	4619      	mov	r1, r3
 8001148:	4610      	mov	r0, r2
 800114a:	f7ff ff9f 	bl	800108c <BuzzPlay>
 800114e:	e000      	b.n	8001152 <BuzzerControl_SetMelody+0x2e>
 8001150:	bf00      	nop
 8001152:	3708      	adds	r7, #8
 8001154:	46bd      	mov	sp, r7
 8001156:	bd80      	pop	{r7, pc}
 8001158:	200001f4 	.word	0x200001f4
 800115c:	200001f8 	.word	0x200001f8

08001160 <BuzzerControl_SendPacketRespond>:
 8001160:	b580      	push	{r7, lr}
 8001162:	b086      	sub	sp, #24
 8001164:	af02      	add	r7, sp, #8
 8001166:	4603      	mov	r3, r0
 8001168:	71fb      	strb	r3, [r7, #7]
 800116a:	79fb      	ldrb	r3, [r7, #7]
 800116c:	733b      	strb	r3, [r7, #12]
 800116e:	f107 020c 	add.w	r2, r7, #12
 8001172:	2301      	movs	r3, #1
 8001174:	9300      	str	r3, [sp, #0]
 8001176:	4613      	mov	r3, r2
 8001178:	2201      	movs	r2, #1
 800117a:	2104      	movs	r1, #4
 800117c:	2000      	movs	r0, #0
 800117e:	f001 faaf 	bl	80026e0 <Serial_SendPacket>
 8001182:	bf00      	nop
 8001184:	3710      	adds	r7, #16
 8001186:	46bd      	mov	sp, r7
 8001188:	bd80      	pop	{r7, pc}
	...

0800118c <BUZZTIM_InitTimer>:
 800118c:	b580      	push	{r7, lr}
 800118e:	b088      	sub	sp, #32
 8001190:	af00      	add	r7, sp, #0
 8001192:	4603      	mov	r3, r0
 8001194:	60b9      	str	r1, [r7, #8]
 8001196:	607a      	str	r2, [r7, #4]
 8001198:	73fb      	strb	r3, [r7, #15]
 800119a:	2101      	movs	r1, #1
 800119c:	2002      	movs	r0, #2
 800119e:	f004 fb21 	bl	80057e4 <RCC_APB1PeriphClockCmd>
 80011a2:	68bb      	ldr	r3, [r7, #8]
 80011a4:	b29b      	uxth	r3, r3
 80011a6:	3b01      	subs	r3, #1
 80011a8:	b29b      	uxth	r3, r3
 80011aa:	82bb      	strh	r3, [r7, #20]
 80011ac:	687b      	ldr	r3, [r7, #4]
 80011ae:	3b01      	subs	r3, #1
 80011b0:	61bb      	str	r3, [r7, #24]
 80011b2:	2300      	movs	r3, #0
 80011b4:	83bb      	strh	r3, [r7, #28]
 80011b6:	2300      	movs	r3, #0
 80011b8:	82fb      	strh	r3, [r7, #22]
 80011ba:	f107 0314 	add.w	r3, r7, #20
 80011be:	4619      	mov	r1, r3
 80011c0:	4805      	ldr	r0, [pc, #20]	; (80011d8 <BUZZTIM_InitTimer+0x4c>)
 80011c2:	f004 fb6f 	bl	80058a4 <TIM_TimeBaseInit>
 80011c6:	2101      	movs	r1, #1
 80011c8:	4803      	ldr	r0, [pc, #12]	; (80011d8 <BUZZTIM_InitTimer+0x4c>)
 80011ca:	f004 fbd7 	bl	800597c <TIM_Cmd>
 80011ce:	bf00      	nop
 80011d0:	3720      	adds	r7, #32
 80011d2:	46bd      	mov	sp, r7
 80011d4:	bd80      	pop	{r7, pc}
 80011d6:	bf00      	nop
 80011d8:	40000400 	.word	0x40000400

080011dc <BUZZTIM_InitPWMChannel>:
 80011dc:	b580      	push	{r7, lr}
 80011de:	b08a      	sub	sp, #40	; 0x28
 80011e0:	af00      	add	r7, sp, #0
 80011e2:	463b      	mov	r3, r7
 80011e4:	e883 0003 	stmia.w	r3, {r0, r1}
 80011e8:	2101      	movs	r1, #1
 80011ea:	2004      	movs	r0, #4
 80011ec:	f004 fada 	bl	80057a4 <RCC_AHB1PeriphClockCmd>
 80011f0:	f44f 7300 	mov.w	r3, #512	; 0x200
 80011f4:	623b      	str	r3, [r7, #32]
 80011f6:	2302      	movs	r3, #2
 80011f8:	f887 3025 	strb.w	r3, [r7, #37]	; 0x25
 80011fc:	2302      	movs	r3, #2
 80011fe:	f887 3024 	strb.w	r3, [r7, #36]	; 0x24
 8001202:	2300      	movs	r3, #0
 8001204:	f887 3026 	strb.w	r3, [r7, #38]	; 0x26
 8001208:	2301      	movs	r3, #1
 800120a:	f887 3027 	strb.w	r3, [r7, #39]	; 0x27
 800120e:	f107 0320 	add.w	r3, r7, #32
 8001212:	4619      	mov	r1, r3
 8001214:	4813      	ldr	r0, [pc, #76]	; (8001264 <BUZZTIM_InitPWMChannel+0x88>)
 8001216:	f003 ff13 	bl	8005040 <GPIO_Init>
 800121a:	2202      	movs	r2, #2
 800121c:	2109      	movs	r1, #9
 800121e:	4811      	ldr	r0, [pc, #68]	; (8001264 <BUZZTIM_InitPWMChannel+0x88>)
 8001220:	f003 ffec 	bl	80051fc <GPIO_PinAFConfig>
 8001224:	2360      	movs	r3, #96	; 0x60
 8001226:	81bb      	strh	r3, [r7, #12]
 8001228:	2301      	movs	r3, #1
 800122a:	81fb      	strh	r3, [r7, #14]
 800122c:	2304      	movs	r3, #4
 800122e:	823b      	strh	r3, [r7, #16]
 8001230:	2300      	movs	r3, #0
 8001232:	833b      	strh	r3, [r7, #24]
 8001234:	2308      	movs	r3, #8
 8001236:	837b      	strh	r3, [r7, #26]
 8001238:	f44f 7380 	mov.w	r3, #256	; 0x100
 800123c:	83bb      	strh	r3, [r7, #28]
 800123e:	2300      	movs	r3, #0
 8001240:	83fb      	strh	r3, [r7, #30]
 8001242:	2300      	movs	r3, #0
 8001244:	617b      	str	r3, [r7, #20]
 8001246:	f107 030c 	add.w	r3, r7, #12
 800124a:	4619      	mov	r1, r3
 800124c:	4806      	ldr	r0, [pc, #24]	; (8001268 <BUZZTIM_InitPWMChannel+0x8c>)
 800124e:	f004 fd3d 	bl	8005ccc <TIM_OC4Init>
 8001252:	2101      	movs	r1, #1
 8001254:	4804      	ldr	r0, [pc, #16]	; (8001268 <BUZZTIM_InitPWMChannel+0x8c>)
 8001256:	f004 fdd9 	bl	8005e0c <TIM_CtrlPWMOutputs>
 800125a:	bf00      	nop
 800125c:	3728      	adds	r7, #40	; 0x28
 800125e:	46bd      	mov	sp, r7
 8001260:	bd80      	pop	{r7, pc}
 8001262:	bf00      	nop
 8001264:	40020800 	.word	0x40020800
 8001268:	40000400 	.word	0x40000400

0800126c <BuzzerControl_SetDutyCycle>:
 800126c:	b580      	push	{r7, lr}
 800126e:	b084      	sub	sp, #16
 8001270:	af00      	add	r7, sp, #0
 8001272:	4603      	mov	r3, r0
 8001274:	71fb      	strb	r3, [r7, #7]
 8001276:	4b0a      	ldr	r3, [pc, #40]	; (80012a0 <BuzzerControl_SetDutyCycle+0x34>)
 8001278:	6adb      	ldr	r3, [r3, #44]	; 0x2c
 800127a:	60fb      	str	r3, [r7, #12]
 800127c:	79fb      	ldrb	r3, [r7, #7]
 800127e:	68fa      	ldr	r2, [r7, #12]
 8001280:	fb02 f303 	mul.w	r3, r2, r3
 8001284:	4a07      	ldr	r2, [pc, #28]	; (80012a4 <BuzzerControl_SetDutyCycle+0x38>)
 8001286:	fba2 2303 	umull	r2, r3, r2, r3
 800128a:	095b      	lsrs	r3, r3, #5
 800128c:	60bb      	str	r3, [r7, #8]
 800128e:	68b9      	ldr	r1, [r7, #8]
 8001290:	4803      	ldr	r0, [pc, #12]	; (80012a0 <BuzzerControl_SetDutyCycle+0x34>)
 8001292:	f004 fdad 	bl	8005df0 <TIM_SetCompare4>
 8001296:	bf00      	nop
 8001298:	3710      	adds	r7, #16
 800129a:	46bd      	mov	sp, r7
 800129c:	bd80      	pop	{r7, pc}
 800129e:	bf00      	nop
 80012a0:	40000400 	.word	0x40000400
 80012a4:	51eb851f 	.word	0x51eb851f

080012a8 <BuzzerControl_SetPreriod>:
 80012a8:	b480      	push	{r7}
 80012aa:	b083      	sub	sp, #12
 80012ac:	af00      	add	r7, sp, #0
 80012ae:	6078      	str	r0, [r7, #4]
 80012b0:	4a04      	ldr	r2, [pc, #16]	; (80012c4 <BuzzerControl_SetPreriod+0x1c>)
 80012b2:	687b      	ldr	r3, [r7, #4]
 80012b4:	3b01      	subs	r3, #1
 80012b6:	62d3      	str	r3, [r2, #44]	; 0x2c
 80012b8:	bf00      	nop
 80012ba:	370c      	adds	r7, #12
 80012bc:	46bd      	mov	sp, r7
 80012be:	f85d 7b04 	ldr.w	r7, [sp], #4
 80012c2:	4770      	bx	lr
 80012c4:	40000400 	.word	0x40000400

080012c8 <LedControl_Init>:
 80012c8:	b580      	push	{r7, lr}
 80012ca:	af00      	add	r7, sp, #0
 80012cc:	f000 fa74 	bl	80017b8 <LEDGPIO_Config>
 80012d0:	f000 fabc 	bl	800184c <LEDTIM_Config>
 80012d4:	bf00      	nop
 80012d6:	bd80      	pop	{r7, pc}

080012d8 <LedControl_SetColorIndividual>:
 80012d8:	b580      	push	{r7, lr}
 80012da:	b084      	sub	sp, #16
 80012dc:	af00      	add	r7, sp, #0
 80012de:	4603      	mov	r3, r0
 80012e0:	71fb      	strb	r3, [r7, #7]
 80012e2:	460b      	mov	r3, r1
 80012e4:	71bb      	strb	r3, [r7, #6]
 80012e6:	4613      	mov	r3, r2
 80012e8:	717b      	strb	r3, [r7, #5]
 80012ea:	79fb      	ldrb	r3, [r7, #7]
 80012ec:	2b02      	cmp	r3, #2
 80012ee:	d85e      	bhi.n	80013ae <LedControl_SetColorIndividual+0xd6>
 80012f0:	79bb      	ldrb	r3, [r7, #6]
 80012f2:	2b00      	cmp	r3, #0
 80012f4:	d005      	beq.n	8001302 <LedControl_SetColorIndividual+0x2a>
 80012f6:	79bb      	ldrb	r3, [r7, #6]
 80012f8:	2b01      	cmp	r3, #1
 80012fa:	d002      	beq.n	8001302 <LedControl_SetColorIndividual+0x2a>
 80012fc:	79bb      	ldrb	r3, [r7, #6]
 80012fe:	2b02      	cmp	r3, #2
 8001300:	d155      	bne.n	80013ae <LedControl_SetColorIndividual+0xd6>
 8001302:	797b      	ldrb	r3, [r7, #5]
 8001304:	2b64      	cmp	r3, #100	; 0x64
 8001306:	d852      	bhi.n	80013ae <LedControl_SetColorIndividual+0xd6>
 8001308:	797b      	ldrb	r3, [r7, #5]
 800130a:	2b00      	cmp	r3, #0
 800130c:	d103      	bne.n	8001316 <LedControl_SetColorIndividual+0x3e>
 800130e:	4b2a      	ldr	r3, [pc, #168]	; (80013b8 <LedControl_SetColorIndividual+0xe0>)
 8001310:	2264      	movs	r2, #100	; 0x64
 8001312:	701a      	strb	r2, [r3, #0]
 8001314:	e002      	b.n	800131c <LedControl_SetColorIndividual+0x44>
 8001316:	4a28      	ldr	r2, [pc, #160]	; (80013b8 <LedControl_SetColorIndividual+0xe0>)
 8001318:	797b      	ldrb	r3, [r7, #5]
 800131a:	7013      	strb	r3, [r2, #0]
 800131c:	797b      	ldrb	r3, [r7, #5]
 800131e:	4a27      	ldr	r2, [pc, #156]	; (80013bc <LedControl_SetColorIndividual+0xe4>)
 8001320:	6812      	ldr	r2, [r2, #0]
 8001322:	4927      	ldr	r1, [pc, #156]	; (80013c0 <LedControl_SetColorIndividual+0xe8>)
 8001324:	fba1 1202 	umull	r1, r2, r1, r2
 8001328:	0b92      	lsrs	r2, r2, #14
 800132a:	3a02      	subs	r2, #2
 800132c:	fb02 f303 	mul.w	r3, r2, r3
 8001330:	4a24      	ldr	r2, [pc, #144]	; (80013c4 <LedControl_SetColorIndividual+0xec>)
 8001332:	fba2 2303 	umull	r2, r3, r2, r3
 8001336:	095b      	lsrs	r3, r3, #5
 8001338:	60fb      	str	r3, [r7, #12]
 800133a:	79fb      	ldrb	r3, [r7, #7]
 800133c:	2b00      	cmp	r3, #0
 800133e:	d10c      	bne.n	800135a <LedControl_SetColorIndividual+0x82>
 8001340:	797b      	ldrb	r3, [r7, #5]
 8001342:	2b00      	cmp	r3, #0
 8001344:	d004      	beq.n	8001350 <LedControl_SetColorIndividual+0x78>
 8001346:	2120      	movs	r1, #32
 8001348:	481f      	ldr	r0, [pc, #124]	; (80013c8 <LedControl_SetColorIndividual+0xf0>)
 800134a:	f003 ff21 	bl	8005190 <GPIO_SetBits>
 800134e:	e02f      	b.n	80013b0 <LedControl_SetColorIndividual+0xd8>
 8001350:	2120      	movs	r1, #32
 8001352:	481d      	ldr	r0, [pc, #116]	; (80013c8 <LedControl_SetColorIndividual+0xf0>)
 8001354:	f003 ff2b 	bl	80051ae <GPIO_ResetBits>
 8001358:	e02a      	b.n	80013b0 <LedControl_SetColorIndividual+0xd8>
 800135a:	79fb      	ldrb	r3, [r7, #7]
 800135c:	2b01      	cmp	r3, #1
 800135e:	d114      	bne.n	800138a <LedControl_SetColorIndividual+0xb2>
 8001360:	79bb      	ldrb	r3, [r7, #6]
 8001362:	2b00      	cmp	r3, #0
 8001364:	d104      	bne.n	8001370 <LedControl_SetColorIndividual+0x98>
 8001366:	68f9      	ldr	r1, [r7, #12]
 8001368:	4818      	ldr	r0, [pc, #96]	; (80013cc <LedControl_SetColorIndividual+0xf4>)
 800136a:	f004 fd17 	bl	8005d9c <TIM_SetCompare1>
 800136e:	e01f      	b.n	80013b0 <LedControl_SetColorIndividual+0xd8>
 8001370:	79bb      	ldrb	r3, [r7, #6]
 8001372:	2b01      	cmp	r3, #1
 8001374:	d104      	bne.n	8001380 <LedControl_SetColorIndividual+0xa8>
 8001376:	68f9      	ldr	r1, [r7, #12]
 8001378:	4814      	ldr	r0, [pc, #80]	; (80013cc <LedControl_SetColorIndividual+0xf4>)
 800137a:	f004 fd39 	bl	8005df0 <TIM_SetCompare4>
 800137e:	e017      	b.n	80013b0 <LedControl_SetColorIndividual+0xd8>
 8001380:	68f9      	ldr	r1, [r7, #12]
 8001382:	4812      	ldr	r0, [pc, #72]	; (80013cc <LedControl_SetColorIndividual+0xf4>)
 8001384:	f004 fd26 	bl	8005dd4 <TIM_SetCompare3>
 8001388:	e012      	b.n	80013b0 <LedControl_SetColorIndividual+0xd8>
 800138a:	79bb      	ldrb	r3, [r7, #6]
 800138c:	2b00      	cmp	r3, #0
 800138e:	d105      	bne.n	800139c <LedControl_SetColorIndividual+0xc4>
 8001390:	68f9      	ldr	r1, [r7, #12]
 8001392:	f04f 4080 	mov.w	r0, #1073741824	; 0x40000000
 8001396:	f004 fd0f 	bl	8005db8 <TIM_SetCompare2>
 800139a:	e009      	b.n	80013b0 <LedControl_SetColorIndividual+0xd8>
 800139c:	79bb      	ldrb	r3, [r7, #6]
 800139e:	2b01      	cmp	r3, #1
 80013a0:	d106      	bne.n	80013b0 <LedControl_SetColorIndividual+0xd8>
 80013a2:	68f9      	ldr	r1, [r7, #12]
 80013a4:	f04f 4080 	mov.w	r0, #1073741824	; 0x40000000
 80013a8:	f004 fcf8 	bl	8005d9c <TIM_SetCompare1>
 80013ac:	e000      	b.n	80013b0 <LedControl_SetColorIndividual+0xd8>
 80013ae:	bf00      	nop
 80013b0:	3710      	adds	r7, #16
 80013b2:	46bd      	mov	sp, r7
 80013b4:	bd80      	pop	{r7, pc}
 80013b6:	bf00      	nop
 80013b8:	20000204 	.word	0x20000204
 80013bc:	20000004 	.word	0x20000004
 80013c0:	eeb83a0d 	.word	0xeeb83a0d
 80013c4:	51eb851f 	.word	0x51eb851f
 80013c8:	40020000 	.word	0x40020000
 80013cc:	40010000 	.word	0x40010000

080013d0 <LedControl_SetColorGeneral>:
 80013d0:	b580      	push	{r7, lr}
 80013d2:	b082      	sub	sp, #8
 80013d4:	af00      	add	r7, sp, #0
 80013d6:	4603      	mov	r3, r0
 80013d8:	71fb      	strb	r3, [r7, #7]
 80013da:	460b      	mov	r3, r1
 80013dc:	71bb      	strb	r3, [r7, #6]
 80013de:	4613      	mov	r3, r2
 80013e0:	717b      	strb	r3, [r7, #5]
 80013e2:	79bb      	ldrb	r3, [r7, #6]
 80013e4:	2b05      	cmp	r3, #5
 80013e6:	f200 8081 	bhi.w	80014ec <LedControl_SetColorGeneral+0x11c>
 80013ea:	a201      	add	r2, pc, #4	; (adr r2, 80013f0 <LedControl_SetColorGeneral+0x20>)
 80013ec:	f852 f023 	ldr.w	pc, [r2, r3, lsl #2]
 80013f0:	08001409 	.word	0x08001409
 80013f4:	0800142f 	.word	0x0800142f
 80013f8:	08001455 	.word	0x08001455
 80013fc:	0800147b 	.word	0x0800147b
 8001400:	080014c7 	.word	0x080014c7
 8001404:	080014a1 	.word	0x080014a1
 8001408:	797a      	ldrb	r2, [r7, #5]
 800140a:	79fb      	ldrb	r3, [r7, #7]
 800140c:	2100      	movs	r1, #0
 800140e:	4618      	mov	r0, r3
 8001410:	f7ff ff62 	bl	80012d8 <LedControl_SetColorIndividual>
 8001414:	79fb      	ldrb	r3, [r7, #7]
 8001416:	2200      	movs	r2, #0
 8001418:	2102      	movs	r1, #2
 800141a:	4618      	mov	r0, r3
 800141c:	f7ff ff5c 	bl	80012d8 <LedControl_SetColorIndividual>
 8001420:	79fb      	ldrb	r3, [r7, #7]
 8001422:	2200      	movs	r2, #0
 8001424:	2101      	movs	r1, #1
 8001426:	4618      	mov	r0, r3
 8001428:	f7ff ff56 	bl	80012d8 <LedControl_SetColorIndividual>
 800142c:	e05f      	b.n	80014ee <LedControl_SetColorGeneral+0x11e>
 800142e:	797a      	ldrb	r2, [r7, #5]
 8001430:	79fb      	ldrb	r3, [r7, #7]
 8001432:	2101      	movs	r1, #1
 8001434:	4618      	mov	r0, r3
 8001436:	f7ff ff4f 	bl	80012d8 <LedControl_SetColorIndividual>
 800143a:	79fb      	ldrb	r3, [r7, #7]
 800143c:	2200      	movs	r2, #0
 800143e:	2100      	movs	r1, #0
 8001440:	4618      	mov	r0, r3
 8001442:	f7ff ff49 	bl	80012d8 <LedControl_SetColorIndividual>
 8001446:	79fb      	ldrb	r3, [r7, #7]
 8001448:	2200      	movs	r2, #0
 800144a:	2102      	movs	r1, #2
 800144c:	4618      	mov	r0, r3
 800144e:	f7ff ff43 	bl	80012d8 <LedControl_SetColorIndividual>
 8001452:	e04c      	b.n	80014ee <LedControl_SetColorGeneral+0x11e>
 8001454:	797a      	ldrb	r2, [r7, #5]
 8001456:	79fb      	ldrb	r3, [r7, #7]
 8001458:	2102      	movs	r1, #2
 800145a:	4618      	mov	r0, r3
 800145c:	f7ff ff3c 	bl	80012d8 <LedControl_SetColorIndividual>
 8001460:	79fb      	ldrb	r3, [r7, #7]
 8001462:	2200      	movs	r2, #0
 8001464:	2100      	movs	r1, #0
 8001466:	4618      	mov	r0, r3
 8001468:	f7ff ff36 	bl	80012d8 <LedControl_SetColorIndividual>
 800146c:	79fb      	ldrb	r3, [r7, #7]
 800146e:	2200      	movs	r2, #0
 8001470:	2101      	movs	r1, #1
 8001472:	4618      	mov	r0, r3
 8001474:	f7ff ff30 	bl	80012d8 <LedControl_SetColorIndividual>
 8001478:	e039      	b.n	80014ee <LedControl_SetColorGeneral+0x11e>
 800147a:	797a      	ldrb	r2, [r7, #5]
 800147c:	79fb      	ldrb	r3, [r7, #7]
 800147e:	2102      	movs	r1, #2
 8001480:	4618      	mov	r0, r3
 8001482:	f7ff ff29 	bl	80012d8 <LedControl_SetColorIndividual>
 8001486:	797a      	ldrb	r2, [r7, #5]
 8001488:	79fb      	ldrb	r3, [r7, #7]
 800148a:	2100      	movs	r1, #0
 800148c:	4618      	mov	r0, r3
 800148e:	f7ff ff23 	bl	80012d8 <LedControl_SetColorIndividual>
 8001492:	797a      	ldrb	r2, [r7, #5]
 8001494:	79fb      	ldrb	r3, [r7, #7]
 8001496:	2101      	movs	r1, #1
 8001498:	4618      	mov	r0, r3
 800149a:	f7ff ff1d 	bl	80012d8 <LedControl_SetColorIndividual>
 800149e:	e026      	b.n	80014ee <LedControl_SetColorGeneral+0x11e>
 80014a0:	79fb      	ldrb	r3, [r7, #7]
 80014a2:	2200      	movs	r2, #0
 80014a4:	2102      	movs	r1, #2
 80014a6:	4618      	mov	r0, r3
 80014a8:	f7ff ff16 	bl	80012d8 <LedControl_SetColorIndividual>
 80014ac:	797a      	ldrb	r2, [r7, #5]
 80014ae:	79fb      	ldrb	r3, [r7, #7]
 80014b0:	2100      	movs	r1, #0
 80014b2:	4618      	mov	r0, r3
 80014b4:	f7ff ff10 	bl	80012d8 <LedControl_SetColorIndividual>
 80014b8:	797a      	ldrb	r2, [r7, #5]
 80014ba:	79fb      	ldrb	r3, [r7, #7]
 80014bc:	2101      	movs	r1, #1
 80014be:	4618      	mov	r0, r3
 80014c0:	f7ff ff0a 	bl	80012d8 <LedControl_SetColorIndividual>
 80014c4:	e013      	b.n	80014ee <LedControl_SetColorGeneral+0x11e>
 80014c6:	79fb      	ldrb	r3, [r7, #7]
 80014c8:	2200      	movs	r2, #0
 80014ca:	2102      	movs	r1, #2
 80014cc:	4618      	mov	r0, r3
 80014ce:	f7ff ff03 	bl	80012d8 <LedControl_SetColorIndividual>
 80014d2:	79fb      	ldrb	r3, [r7, #7]
 80014d4:	2200      	movs	r2, #0
 80014d6:	2100      	movs	r1, #0
 80014d8:	4618      	mov	r0, r3
 80014da:	f7ff fefd 	bl	80012d8 <LedControl_SetColorIndividual>
 80014de:	79fb      	ldrb	r3, [r7, #7]
 80014e0:	2200      	movs	r2, #0
 80014e2:	2101      	movs	r1, #1
 80014e4:	4618      	mov	r0, r3
 80014e6:	f7ff fef7 	bl	80012d8 <LedControl_SetColorIndividual>
 80014ea:	e000      	b.n	80014ee <LedControl_SetColorGeneral+0x11e>
 80014ec:	bf00      	nop
 80014ee:	bf00      	nop
 80014f0:	3708      	adds	r7, #8
 80014f2:	46bd      	mov	sp, r7
 80014f4:	bd80      	pop	{r7, pc}
 80014f6:	bf00      	nop

080014f8 <LedGetAllLastState>:
 80014f8:	b480      	push	{r7}
 80014fa:	af00      	add	r7, sp, #0
 80014fc:	bf00      	nop
 80014fe:	46bd      	mov	sp, r7
 8001500:	f85d 7b04 	ldr.w	r7, [sp], #4
 8001504:	4770      	bx	lr
	...

08001508 <LedToggle>:
 8001508:	b580      	push	{r7, lr}
 800150a:	b084      	sub	sp, #16
 800150c:	af00      	add	r7, sp, #0
 800150e:	4603      	mov	r3, r0
 8001510:	460a      	mov	r2, r1
 8001512:	71fb      	strb	r3, [r7, #7]
 8001514:	4613      	mov	r3, r2
 8001516:	71bb      	strb	r3, [r7, #6]
 8001518:	79fb      	ldrb	r3, [r7, #7]
 800151a:	2b03      	cmp	r3, #3
 800151c:	d838      	bhi.n	8001590 <LedToggle+0x88>
 800151e:	79fb      	ldrb	r3, [r7, #7]
 8001520:	2b03      	cmp	r3, #3
 8001522:	d11a      	bne.n	800155a <LedToggle+0x52>
 8001524:	4b1c      	ldr	r3, [pc, #112]	; (8001598 <LedToggle+0x90>)
 8001526:	781b      	ldrb	r3, [r3, #0]
 8001528:	2b00      	cmp	r3, #0
 800152a:	d103      	bne.n	8001534 <LedToggle+0x2c>
 800152c:	4b1b      	ldr	r3, [pc, #108]	; (800159c <LedToggle+0x94>)
 800152e:	781b      	ldrb	r3, [r3, #0]
 8001530:	73fb      	strb	r3, [r7, #15]
 8001532:	e001      	b.n	8001538 <LedToggle+0x30>
 8001534:	2300      	movs	r3, #0
 8001536:	73fb      	strb	r3, [r7, #15]
 8001538:	4b17      	ldr	r3, [pc, #92]	; (8001598 <LedToggle+0x90>)
 800153a:	781b      	ldrb	r3, [r3, #0]
 800153c:	2b00      	cmp	r3, #0
 800153e:	bf0c      	ite	eq
 8001540:	2301      	moveq	r3, #1
 8001542:	2300      	movne	r3, #0
 8001544:	b2db      	uxtb	r3, r3
 8001546:	461a      	mov	r2, r3
 8001548:	4b13      	ldr	r3, [pc, #76]	; (8001598 <LedToggle+0x90>)
 800154a:	701a      	strb	r2, [r3, #0]
 800154c:	7bfa      	ldrb	r2, [r7, #15]
 800154e:	79bb      	ldrb	r3, [r7, #6]
 8001550:	4611      	mov	r1, r2
 8001552:	4618      	mov	r0, r3
 8001554:	f000 f8f8 	bl	8001748 <LedControl_SetAllColor>
 8001558:	e01b      	b.n	8001592 <LedToggle+0x8a>
 800155a:	4b11      	ldr	r3, [pc, #68]	; (80015a0 <LedToggle+0x98>)
 800155c:	781b      	ldrb	r3, [r3, #0]
 800155e:	2b00      	cmp	r3, #0
 8001560:	d103      	bne.n	800156a <LedToggle+0x62>
 8001562:	4b0e      	ldr	r3, [pc, #56]	; (800159c <LedToggle+0x94>)
 8001564:	781b      	ldrb	r3, [r3, #0]
 8001566:	73fb      	strb	r3, [r7, #15]
 8001568:	e001      	b.n	800156e <LedToggle+0x66>
 800156a:	2300      	movs	r3, #0
 800156c:	73fb      	strb	r3, [r7, #15]
 800156e:	4b0c      	ldr	r3, [pc, #48]	; (80015a0 <LedToggle+0x98>)
 8001570:	781b      	ldrb	r3, [r3, #0]
 8001572:	2b00      	cmp	r3, #0
 8001574:	bf0c      	ite	eq
 8001576:	2301      	moveq	r3, #1
 8001578:	2300      	movne	r3, #0
 800157a:	b2db      	uxtb	r3, r3
 800157c:	461a      	mov	r2, r3
 800157e:	4b08      	ldr	r3, [pc, #32]	; (80015a0 <LedToggle+0x98>)
 8001580:	701a      	strb	r2, [r3, #0]
 8001582:	7bfa      	ldrb	r2, [r7, #15]
 8001584:	79b9      	ldrb	r1, [r7, #6]
 8001586:	79fb      	ldrb	r3, [r7, #7]
 8001588:	4618      	mov	r0, r3
 800158a:	f7ff ff21 	bl	80013d0 <LedControl_SetColorGeneral>
 800158e:	e000      	b.n	8001592 <LedToggle+0x8a>
 8001590:	bf00      	nop
 8001592:	3710      	adds	r7, #16
 8001594:	46bd      	mov	sp, r7
 8001596:	bd80      	pop	{r7, pc}
 8001598:	20000205 	.word	0x20000205
 800159c:	20000204 	.word	0x20000204
 80015a0:	20000206 	.word	0x20000206

080015a4 <pFuncBlink>:
 80015a4:	b580      	push	{r7, lr}
 80015a6:	b084      	sub	sp, #16
 80015a8:	af00      	add	r7, sp, #0
 80015aa:	6078      	str	r0, [r7, #4]
 80015ac:	687b      	ldr	r3, [r7, #4]
 80015ae:	60fb      	str	r3, [r7, #12]
 80015b0:	68fb      	ldr	r3, [r7, #12]
 80015b2:	791b      	ldrb	r3, [r3, #4]
 80015b4:	2b00      	cmp	r3, #0
 80015b6:	d103      	bne.n	80015c0 <pFuncBlink+0x1c>
 80015b8:	68f8      	ldr	r0, [r7, #12]
 80015ba:	f000 f84b 	bl	8001654 <BlinkStop>
 80015be:	e043      	b.n	8001648 <pFuncBlink+0xa4>
 80015c0:	68fb      	ldr	r3, [r7, #12]
 80015c2:	791b      	ldrb	r3, [r3, #4]
 80015c4:	2bff      	cmp	r3, #255	; 0xff
 80015c6:	d009      	beq.n	80015dc <pFuncBlink+0x38>
 80015c8:	68fb      	ldr	r3, [r7, #12]
 80015ca:	791b      	ldrb	r3, [r3, #4]
 80015cc:	2b00      	cmp	r3, #0
 80015ce:	d005      	beq.n	80015dc <pFuncBlink+0x38>
 80015d0:	68fb      	ldr	r3, [r7, #12]
 80015d2:	791b      	ldrb	r3, [r3, #4]
 80015d4:	3b01      	subs	r3, #1
 80015d6:	b2da      	uxtb	r2, r3
 80015d8:	68fb      	ldr	r3, [r7, #12]
 80015da:	711a      	strb	r2, [r3, #4]
 80015dc:	68fb      	ldr	r3, [r7, #12]
 80015de:	78db      	ldrb	r3, [r3, #3]
 80015e0:	2b03      	cmp	r3, #3
 80015e2:	d830      	bhi.n	8001646 <pFuncBlink+0xa2>
 80015e4:	a201      	add	r2, pc, #4	; (adr r2, 80015ec <pFuncBlink+0x48>)
 80015e6:	f852 f023 	ldr.w	pc, [r2, r3, lsl #2]
 80015ea:	bf00      	nop
 80015ec:	080015fd 	.word	0x080015fd
 80015f0:	08001619 	.word	0x08001619
 80015f4:	0800160b 	.word	0x0800160b
 80015f8:	08001627 	.word	0x08001627
 80015fc:	68fb      	ldr	r3, [r7, #12]
 80015fe:	789b      	ldrb	r3, [r3, #2]
 8001600:	2100      	movs	r1, #0
 8001602:	4618      	mov	r0, r3
 8001604:	f7ff ff80 	bl	8001508 <LedToggle>
 8001608:	e014      	b.n	8001634 <pFuncBlink+0x90>
 800160a:	68fb      	ldr	r3, [r7, #12]
 800160c:	789b      	ldrb	r3, [r3, #2]
 800160e:	2101      	movs	r1, #1
 8001610:	4618      	mov	r0, r3
 8001612:	f7ff ff79 	bl	8001508 <LedToggle>
 8001616:	e00d      	b.n	8001634 <pFuncBlink+0x90>
 8001618:	68fb      	ldr	r3, [r7, #12]
 800161a:	789b      	ldrb	r3, [r3, #2]
 800161c:	2102      	movs	r1, #2
 800161e:	4618      	mov	r0, r3
 8001620:	f7ff ff72 	bl	8001508 <LedToggle>
 8001624:	e006      	b.n	8001634 <pFuncBlink+0x90>
 8001626:	68fb      	ldr	r3, [r7, #12]
 8001628:	789b      	ldrb	r3, [r3, #2]
 800162a:	2103      	movs	r1, #3
 800162c:	4618      	mov	r0, r3
 800162e:	f7ff ff6b 	bl	8001508 <LedToggle>
 8001632:	bf00      	nop
 8001634:	4b06      	ldr	r3, [pc, #24]	; (8001650 <pFuncBlink+0xac>)
 8001636:	781a      	ldrb	r2, [r3, #0]
 8001638:	68fb      	ldr	r3, [r7, #12]
 800163a:	795b      	ldrb	r3, [r3, #5]
 800163c:	4619      	mov	r1, r3
 800163e:	4610      	mov	r0, r2
 8001640:	f000 fa98 	bl	8001b74 <TimerChangePeriod>
 8001644:	e000      	b.n	8001648 <pFuncBlink+0xa4>
 8001646:	bf00      	nop
 8001648:	3710      	adds	r7, #16
 800164a:	46bd      	mov	sp, r7
 800164c:	bd80      	pop	{r7, pc}
 800164e:	bf00      	nop
 8001650:	20000024 	.word	0x20000024

08001654 <BlinkStop>:
 8001654:	b580      	push	{r7, lr}
 8001656:	b082      	sub	sp, #8
 8001658:	af00      	add	r7, sp, #0
 800165a:	6078      	str	r0, [r7, #4]
 800165c:	4b19      	ldr	r3, [pc, #100]	; (80016c4 <BlinkStop+0x70>)
 800165e:	781b      	ldrb	r3, [r3, #0]
 8001660:	2bff      	cmp	r3, #255	; 0xff
 8001662:	d007      	beq.n	8001674 <BlinkStop+0x20>
 8001664:	4b17      	ldr	r3, [pc, #92]	; (80016c4 <BlinkStop+0x70>)
 8001666:	781b      	ldrb	r3, [r3, #0]
 8001668:	4618      	mov	r0, r3
 800166a:	f000 fa9f 	bl	8001bac <TimerStop>
 800166e:	4b15      	ldr	r3, [pc, #84]	; (80016c4 <BlinkStop+0x70>)
 8001670:	22ff      	movs	r2, #255	; 0xff
 8001672:	701a      	strb	r2, [r3, #0]
 8001674:	687b      	ldr	r3, [r7, #4]
 8001676:	789b      	ldrb	r3, [r3, #2]
 8001678:	2b03      	cmp	r3, #3
 800167a:	d106      	bne.n	800168a <BlinkStop+0x36>
 800167c:	687b      	ldr	r3, [r7, #4]
 800167e:	799b      	ldrb	r3, [r3, #6]
 8001680:	2bff      	cmp	r3, #255	; 0xff
 8001682:	d112      	bne.n	80016aa <BlinkStop+0x56>
 8001684:	f7ff ff38 	bl	80014f8 <LedGetAllLastState>
 8001688:	e00f      	b.n	80016aa <BlinkStop+0x56>
 800168a:	687b      	ldr	r3, [r7, #4]
 800168c:	799b      	ldrb	r3, [r3, #6]
 800168e:	2bff      	cmp	r3, #255	; 0xff
 8001690:	d102      	bne.n	8001698 <BlinkStop+0x44>
 8001692:	f7ff ff31 	bl	80014f8 <LedGetAllLastState>
 8001696:	e008      	b.n	80016aa <BlinkStop+0x56>
 8001698:	687b      	ldr	r3, [r7, #4]
 800169a:	7898      	ldrb	r0, [r3, #2]
 800169c:	687b      	ldr	r3, [r7, #4]
 800169e:	7999      	ldrb	r1, [r3, #6]
 80016a0:	4b09      	ldr	r3, [pc, #36]	; (80016c8 <BlinkStop+0x74>)
 80016a2:	781b      	ldrb	r3, [r3, #0]
 80016a4:	461a      	mov	r2, r3
 80016a6:	f7ff fe93 	bl	80013d0 <LedControl_SetColorGeneral>
 80016aa:	687b      	ldr	r3, [r7, #4]
 80016ac:	2200      	movs	r2, #0
 80016ae:	711a      	strb	r2, [r3, #4]
 80016b0:	687b      	ldr	r3, [r7, #4]
 80016b2:	2204      	movs	r2, #4
 80016b4:	70da      	strb	r2, [r3, #3]
 80016b6:	687b      	ldr	r3, [r7, #4]
 80016b8:	2200      	movs	r2, #0
 80016ba:	715a      	strb	r2, [r3, #5]
 80016bc:	bf00      	nop
 80016be:	3708      	adds	r7, #8
 80016c0:	46bd      	mov	sp, r7
 80016c2:	bd80      	pop	{r7, pc}
 80016c4:	20000024 	.word	0x20000024
 80016c8:	20000204 	.word	0x20000204

080016cc <LedControl_BlinkStart>:
 80016cc:	b590      	push	{r4, r7, lr}
 80016ce:	b085      	sub	sp, #20
 80016d0:	af02      	add	r7, sp, #8
 80016d2:	4604      	mov	r4, r0
 80016d4:	4608      	mov	r0, r1
 80016d6:	4611      	mov	r1, r2
 80016d8:	461a      	mov	r2, r3
 80016da:	4623      	mov	r3, r4
 80016dc:	71fb      	strb	r3, [r7, #7]
 80016de:	4603      	mov	r3, r0
 80016e0:	71bb      	strb	r3, [r7, #6]
 80016e2:	460b      	mov	r3, r1
 80016e4:	717b      	strb	r3, [r7, #5]
 80016e6:	4613      	mov	r3, r2
 80016e8:	807b      	strh	r3, [r7, #2]
 80016ea:	79fb      	ldrb	r3, [r7, #7]
 80016ec:	2b03      	cmp	r3, #3
 80016ee:	d81f      	bhi.n	8001730 <LedControl_BlinkStart+0x64>
 80016f0:	79bb      	ldrb	r3, [r7, #6]
 80016f2:	2b03      	cmp	r3, #3
 80016f4:	d81c      	bhi.n	8001730 <LedControl_BlinkStart+0x64>
 80016f6:	4a10      	ldr	r2, [pc, #64]	; (8001738 <LedControl_BlinkStart+0x6c>)
 80016f8:	79fb      	ldrb	r3, [r7, #7]
 80016fa:	7093      	strb	r3, [r2, #2]
 80016fc:	4a0e      	ldr	r2, [pc, #56]	; (8001738 <LedControl_BlinkStart+0x6c>)
 80016fe:	79bb      	ldrb	r3, [r7, #6]
 8001700:	70d3      	strb	r3, [r2, #3]
 8001702:	4a0d      	ldr	r2, [pc, #52]	; (8001738 <LedControl_BlinkStart+0x6c>)
 8001704:	797b      	ldrb	r3, [r7, #5]
 8001706:	7113      	strb	r3, [r2, #4]
 8001708:	887b      	ldrh	r3, [r7, #2]
 800170a:	b2da      	uxtb	r2, r3
 800170c:	4b0a      	ldr	r3, [pc, #40]	; (8001738 <LedControl_BlinkStart+0x6c>)
 800170e:	715a      	strb	r2, [r3, #5]
 8001710:	4a09      	ldr	r2, [pc, #36]	; (8001738 <LedControl_BlinkStart+0x6c>)
 8001712:	7e3b      	ldrb	r3, [r7, #24]
 8001714:	7193      	strb	r3, [r2, #6]
 8001716:	4b08      	ldr	r3, [pc, #32]	; (8001738 <LedControl_BlinkStart+0x6c>)
 8001718:	9300      	str	r3, [sp, #0]
 800171a:	4b08      	ldr	r3, [pc, #32]	; (800173c <LedControl_BlinkStart+0x70>)
 800171c:	22ff      	movs	r2, #255	; 0xff
 800171e:	2101      	movs	r1, #1
 8001720:	4807      	ldr	r0, [pc, #28]	; (8001740 <LedControl_BlinkStart+0x74>)
 8001722:	f000 f9c5 	bl	8001ab0 <TimerStart>
 8001726:	4603      	mov	r3, r0
 8001728:	461a      	mov	r2, r3
 800172a:	4b06      	ldr	r3, [pc, #24]	; (8001744 <LedControl_BlinkStart+0x78>)
 800172c:	701a      	strb	r2, [r3, #0]
 800172e:	e000      	b.n	8001732 <LedControl_BlinkStart+0x66>
 8001730:	bf00      	nop
 8001732:	370c      	adds	r7, #12
 8001734:	46bd      	mov	sp, r7
 8001736:	bd90      	pop	{r4, r7, pc}
 8001738:	200001fc 	.word	0x200001fc
 800173c:	080015a5 	.word	0x080015a5
 8001740:	08007968 	.word	0x08007968
 8001744:	20000024 	.word	0x20000024

08001748 <LedControl_SetAllColor>:
 8001748:	b580      	push	{r7, lr}
 800174a:	b084      	sub	sp, #16
 800174c:	af00      	add	r7, sp, #0
 800174e:	4603      	mov	r3, r0
 8001750:	460a      	mov	r2, r1
 8001752:	71fb      	strb	r3, [r7, #7]
 8001754:	4613      	mov	r3, r2
 8001756:	71bb      	strb	r3, [r7, #6]
 8001758:	2300      	movs	r3, #0
 800175a:	73fb      	strb	r3, [r7, #15]
 800175c:	e008      	b.n	8001770 <LedControl_SetAllColor+0x28>
 800175e:	79ba      	ldrb	r2, [r7, #6]
 8001760:	79f9      	ldrb	r1, [r7, #7]
 8001762:	7bfb      	ldrb	r3, [r7, #15]
 8001764:	4618      	mov	r0, r3
 8001766:	f7ff fe33 	bl	80013d0 <LedControl_SetColorGeneral>
 800176a:	7bfb      	ldrb	r3, [r7, #15]
 800176c:	3301      	adds	r3, #1
 800176e:	73fb      	strb	r3, [r7, #15]
 8001770:	7bfb      	ldrb	r3, [r7, #15]
 8001772:	2b02      	cmp	r3, #2
 8001774:	d9f3      	bls.n	800175e <LedControl_SetAllColor+0x16>
 8001776:	bf00      	nop
 8001778:	3710      	adds	r7, #16
 800177a:	46bd      	mov	sp, r7
 800177c:	bd80      	pop	{r7, pc}

0800177e <LedControl_SendPacketRespond>:
 800177e:	b580      	push	{r7, lr}
 8001780:	b086      	sub	sp, #24
 8001782:	af02      	add	r7, sp, #8
 8001784:	4603      	mov	r3, r0
 8001786:	71fb      	strb	r3, [r7, #7]
 8001788:	460b      	mov	r3, r1
 800178a:	71bb      	strb	r3, [r7, #6]
 800178c:	4613      	mov	r3, r2
 800178e:	717b      	strb	r3, [r7, #5]
 8001790:	79fb      	ldrb	r3, [r7, #7]
 8001792:	733b      	strb	r3, [r7, #12]
 8001794:	79bb      	ldrb	r3, [r7, #6]
 8001796:	737b      	strb	r3, [r7, #13]
 8001798:	797b      	ldrb	r3, [r7, #5]
 800179a:	73bb      	strb	r3, [r7, #14]
 800179c:	f107 020c 	add.w	r2, r7, #12
 80017a0:	2303      	movs	r3, #3
 80017a2:	9300      	str	r3, [sp, #0]
 80017a4:	4613      	mov	r3, r2
 80017a6:	2202      	movs	r2, #2
 80017a8:	2101      	movs	r1, #1
 80017aa:	2000      	movs	r0, #0
 80017ac:	f000 ff98 	bl	80026e0 <Serial_SendPacket>
 80017b0:	bf00      	nop
 80017b2:	3710      	adds	r7, #16
 80017b4:	46bd      	mov	sp, r7
 80017b6:	bd80      	pop	{r7, pc}

080017b8 <LEDGPIO_Config>:
 80017b8:	b580      	push	{r7, lr}
 80017ba:	b082      	sub	sp, #8
 80017bc:	af00      	add	r7, sp, #0
 80017be:	2101      	movs	r1, #1
 80017c0:	2003      	movs	r0, #3
 80017c2:	f003 ffef 	bl	80057a4 <RCC_AHB1PeriphClockCmd>
 80017c6:	f640 4303 	movw	r3, #3075	; 0xc03
 80017ca:	603b      	str	r3, [r7, #0]
 80017cc:	2302      	movs	r3, #2
 80017ce:	713b      	strb	r3, [r7, #4]
 80017d0:	2303      	movs	r3, #3
 80017d2:	717b      	strb	r3, [r7, #5]
 80017d4:	2300      	movs	r3, #0
 80017d6:	71bb      	strb	r3, [r7, #6]
 80017d8:	2301      	movs	r3, #1
 80017da:	71fb      	strb	r3, [r7, #7]
 80017dc:	463b      	mov	r3, r7
 80017de:	4619      	mov	r1, r3
 80017e0:	4818      	ldr	r0, [pc, #96]	; (8001844 <LEDGPIO_Config+0x8c>)
 80017e2:	f003 fc2d 	bl	8005040 <GPIO_Init>
 80017e6:	2201      	movs	r2, #1
 80017e8:	2100      	movs	r1, #0
 80017ea:	4816      	ldr	r0, [pc, #88]	; (8001844 <LEDGPIO_Config+0x8c>)
 80017ec:	f003 fd06 	bl	80051fc <GPIO_PinAFConfig>
 80017f0:	2201      	movs	r2, #1
 80017f2:	2101      	movs	r1, #1
 80017f4:	4813      	ldr	r0, [pc, #76]	; (8001844 <LEDGPIO_Config+0x8c>)
 80017f6:	f003 fd01 	bl	80051fc <GPIO_PinAFConfig>
 80017fa:	2201      	movs	r2, #1
 80017fc:	210b      	movs	r1, #11
 80017fe:	4811      	ldr	r0, [pc, #68]	; (8001844 <LEDGPIO_Config+0x8c>)
 8001800:	f003 fcfc 	bl	80051fc <GPIO_PinAFConfig>
 8001804:	2201      	movs	r2, #1
 8001806:	210a      	movs	r1, #10
 8001808:	480e      	ldr	r0, [pc, #56]	; (8001844 <LEDGPIO_Config+0x8c>)
 800180a:	f003 fcf7 	bl	80051fc <GPIO_PinAFConfig>
 800180e:	f44f 5300 	mov.w	r3, #8192	; 0x2000
 8001812:	603b      	str	r3, [r7, #0]
 8001814:	463b      	mov	r3, r7
 8001816:	4619      	mov	r1, r3
 8001818:	480b      	ldr	r0, [pc, #44]	; (8001848 <LEDGPIO_Config+0x90>)
 800181a:	f003 fc11 	bl	8005040 <GPIO_Init>
 800181e:	2201      	movs	r2, #1
 8001820:	210d      	movs	r1, #13
 8001822:	4809      	ldr	r0, [pc, #36]	; (8001848 <LEDGPIO_Config+0x90>)
 8001824:	f003 fcea 	bl	80051fc <GPIO_PinAFConfig>
 8001828:	2320      	movs	r3, #32
 800182a:	603b      	str	r3, [r7, #0]
 800182c:	2301      	movs	r3, #1
 800182e:	713b      	strb	r3, [r7, #4]
 8001830:	463b      	mov	r3, r7
 8001832:	4619      	mov	r1, r3
 8001834:	4803      	ldr	r0, [pc, #12]	; (8001844 <LEDGPIO_Config+0x8c>)
 8001836:	f003 fc03 	bl	8005040 <GPIO_Init>
 800183a:	bf00      	nop
 800183c:	3708      	adds	r7, #8
 800183e:	46bd      	mov	sp, r7
 8001840:	bd80      	pop	{r7, pc}
 8001842:	bf00      	nop
 8001844:	40020000 	.word	0x40020000
 8001848:	40020400 	.word	0x40020400

0800184c <LEDTIM_Config>:
 800184c:	b580      	push	{r7, lr}
 800184e:	b08a      	sub	sp, #40	; 0x28
 8001850:	af00      	add	r7, sp, #0
 8001852:	2300      	movs	r3, #0
 8001854:	84fb      	strh	r3, [r7, #38]	; 0x26
 8001856:	2300      	movs	r3, #0
 8001858:	84fb      	strh	r3, [r7, #38]	; 0x26
 800185a:	2101      	movs	r1, #1
 800185c:	2001      	movs	r0, #1
 800185e:	f003 ffe1 	bl	8005824 <RCC_APB2PeriphClockCmd>
 8001862:	2101      	movs	r1, #1
 8001864:	2001      	movs	r0, #1
 8001866:	f003 ffbd 	bl	80057e4 <RCC_APB1PeriphClockCmd>
 800186a:	2300      	movs	r3, #0
 800186c:	833b      	strh	r3, [r7, #24]
 800186e:	2300      	movs	r3, #0
 8001870:	837b      	strh	r3, [r7, #26]
 8001872:	4b2e      	ldr	r3, [pc, #184]	; (800192c <LEDTIM_Config+0xe0>)
 8001874:	681b      	ldr	r3, [r3, #0]
 8001876:	4a2e      	ldr	r2, [pc, #184]	; (8001930 <LEDTIM_Config+0xe4>)
 8001878:	fba2 2303 	umull	r2, r3, r2, r3
 800187c:	0b9b      	lsrs	r3, r3, #14
 800187e:	3b01      	subs	r3, #1
 8001880:	61fb      	str	r3, [r7, #28]
 8001882:	2300      	movs	r3, #0
 8001884:	843b      	strh	r3, [r7, #32]
 8001886:	2300      	movs	r3, #0
 8001888:	f887 3022 	strb.w	r3, [r7, #34]	; 0x22
 800188c:	f107 0318 	add.w	r3, r7, #24
 8001890:	4619      	mov	r1, r3
 8001892:	4828      	ldr	r0, [pc, #160]	; (8001934 <LEDTIM_Config+0xe8>)
 8001894:	f004 f806 	bl	80058a4 <TIM_TimeBaseInit>
 8001898:	f107 0318 	add.w	r3, r7, #24
 800189c:	4619      	mov	r1, r3
 800189e:	f04f 4080 	mov.w	r0, #1073741824	; 0x40000000
 80018a2:	f003 ffff 	bl	80058a4 <TIM_TimeBaseInit>
 80018a6:	2370      	movs	r3, #112	; 0x70
 80018a8:	80bb      	strh	r3, [r7, #4]
 80018aa:	2301      	movs	r3, #1
 80018ac:	80fb      	strh	r3, [r7, #6]
 80018ae:	2304      	movs	r3, #4
 80018b0:	813b      	strh	r3, [r7, #8]
 80018b2:	8cfb      	ldrh	r3, [r7, #38]	; 0x26
 80018b4:	60fb      	str	r3, [r7, #12]
 80018b6:	2302      	movs	r3, #2
 80018b8:	823b      	strh	r3, [r7, #16]
 80018ba:	2300      	movs	r3, #0
 80018bc:	827b      	strh	r3, [r7, #18]
 80018be:	f44f 7380 	mov.w	r3, #256	; 0x100
 80018c2:	82bb      	strh	r3, [r7, #20]
 80018c4:	2300      	movs	r3, #0
 80018c6:	82fb      	strh	r3, [r7, #22]
 80018c8:	1d3b      	adds	r3, r7, #4
 80018ca:	4619      	mov	r1, r3
 80018cc:	4819      	ldr	r0, [pc, #100]	; (8001934 <LEDTIM_Config+0xe8>)
 80018ce:	f004 f875 	bl	80059bc <TIM_OC1Init>
 80018d2:	1d3b      	adds	r3, r7, #4
 80018d4:	4619      	mov	r1, r3
 80018d6:	4817      	ldr	r0, [pc, #92]	; (8001934 <LEDTIM_Config+0xe8>)
 80018d8:	f004 f972 	bl	8005bc0 <TIM_OC3Init>
 80018dc:	1d3b      	adds	r3, r7, #4
 80018de:	4619      	mov	r1, r3
 80018e0:	4814      	ldr	r0, [pc, #80]	; (8001934 <LEDTIM_Config+0xe8>)
 80018e2:	f004 f9f3 	bl	8005ccc <TIM_OC4Init>
 80018e6:	1d3b      	adds	r3, r7, #4
 80018e8:	4619      	mov	r1, r3
 80018ea:	f04f 4080 	mov.w	r0, #1073741824	; 0x40000000
 80018ee:	f004 f865 	bl	80059bc <TIM_OC1Init>
 80018f2:	1d3b      	adds	r3, r7, #4
 80018f4:	4619      	mov	r1, r3
 80018f6:	f04f 4080 	mov.w	r0, #1073741824	; 0x40000000
 80018fa:	f004 f8d9 	bl	8005ab0 <TIM_OC2Init>
 80018fe:	2101      	movs	r1, #1
 8001900:	480c      	ldr	r0, [pc, #48]	; (8001934 <LEDTIM_Config+0xe8>)
 8001902:	f004 f83b 	bl	800597c <TIM_Cmd>
 8001906:	2101      	movs	r1, #1
 8001908:	f04f 4080 	mov.w	r0, #1073741824	; 0x40000000
 800190c:	f004 f836 	bl	800597c <TIM_Cmd>
 8001910:	2101      	movs	r1, #1
 8001912:	4808      	ldr	r0, [pc, #32]	; (8001934 <LEDTIM_Config+0xe8>)
 8001914:	f004 fa7a 	bl	8005e0c <TIM_CtrlPWMOutputs>
 8001918:	2101      	movs	r1, #1
 800191a:	f04f 4080 	mov.w	r0, #1073741824	; 0x40000000
 800191e:	f004 fa75 	bl	8005e0c <TIM_CtrlPWMOutputs>
 8001922:	bf00      	nop
 8001924:	3728      	adds	r7, #40	; 0x28
 8001926:	46bd      	mov	sp, r7
 8001928:	bd80      	pop	{r7, pc}
 800192a:	bf00      	nop
 800192c:	20000004 	.word	0x20000004
 8001930:	eeb83a0d 	.word	0xeeb83a0d
 8001934:	40010000 	.word	0x40010000

08001938 <EventSchedulerInit>:
 8001938:	b580      	push	{r7, lr}
 800193a:	b082      	sub	sp, #8
 800193c:	af00      	add	r7, sp, #0
 800193e:	6078      	str	r0, [r7, #4]
 8001940:	687b      	ldr	r3, [r7, #4]
 8001942:	2b00      	cmp	r3, #0
 8001944:	d009      	beq.n	800195a <EventSchedulerInit+0x22>
 8001946:	4a07      	ldr	r2, [pc, #28]	; (8001964 <EventSchedulerInit+0x2c>)
 8001948:	687b      	ldr	r3, [r7, #4]
 800194a:	6013      	str	r3, [r2, #0]
 800194c:	f44f 7380 	mov.w	r3, #256	; 0x100
 8001950:	2201      	movs	r2, #1
 8001952:	4905      	ldr	r1, [pc, #20]	; (8001968 <EventSchedulerInit+0x30>)
 8001954:	4805      	ldr	r0, [pc, #20]	; (800196c <EventSchedulerInit+0x34>)
 8001956:	f002 fe75 	bl	8004644 <bufInit>
 800195a:	bf00      	nop
 800195c:	3708      	adds	r7, #8
 800195e:	46bd      	mov	sp, r7
 8001960:	bd80      	pop	{r7, pc}
 8001962:	bf00      	nop
 8001964:	20000208 	.word	0x20000208
 8001968:	2000030c 	.word	0x2000030c
 800196c:	2000020c 	.word	0x2000020c

08001970 <EventSchedulerAdd>:
 8001970:	b580      	push	{r7, lr}
 8001972:	b082      	sub	sp, #8
 8001974:	af00      	add	r7, sp, #0
 8001976:	4603      	mov	r3, r0
 8001978:	71fb      	strb	r3, [r7, #7]
 800197a:	1dfb      	adds	r3, r7, #7
 800197c:	4619      	mov	r1, r3
 800197e:	4806      	ldr	r0, [pc, #24]	; (8001998 <EventSchedulerAdd+0x28>)
 8001980:	f002 fec6 	bl	8004710 <bufEnDat>
 8001984:	4603      	mov	r3, r0
 8001986:	2b00      	cmp	r3, #0
 8001988:	d101      	bne.n	800198e <EventSchedulerAdd+0x1e>
 800198a:	2301      	movs	r3, #1
 800198c:	e000      	b.n	8001990 <EventSchedulerAdd+0x20>
 800198e:	2300      	movs	r3, #0
 8001990:	4618      	mov	r0, r3
 8001992:	3708      	adds	r7, #8
 8001994:	46bd      	mov	sp, r7
 8001996:	bd80      	pop	{r7, pc}
 8001998:	2000030c 	.word	0x2000030c

0800199c <processEventScheduler>:
 800199c:	b580      	push	{r7, lr}
 800199e:	b082      	sub	sp, #8
 80019a0:	af00      	add	r7, sp, #0
 80019a2:	4b0a      	ldr	r3, [pc, #40]	; (80019cc <processEventScheduler+0x30>)
 80019a4:	681b      	ldr	r3, [r3, #0]
 80019a6:	2b00      	cmp	r3, #0
 80019a8:	d00c      	beq.n	80019c4 <processEventScheduler+0x28>
 80019aa:	1dfb      	adds	r3, r7, #7
 80019ac:	4619      	mov	r1, r3
 80019ae:	4808      	ldr	r0, [pc, #32]	; (80019d0 <processEventScheduler+0x34>)
 80019b0:	f002 fefc 	bl	80047ac <bufDeDat>
 80019b4:	4603      	mov	r3, r0
 80019b6:	2b00      	cmp	r3, #0
 80019b8:	d104      	bne.n	80019c4 <processEventScheduler+0x28>
 80019ba:	4b04      	ldr	r3, [pc, #16]	; (80019cc <processEventScheduler+0x30>)
 80019bc:	681b      	ldr	r3, [r3, #0]
 80019be:	79fa      	ldrb	r2, [r7, #7]
 80019c0:	4610      	mov	r0, r2
 80019c2:	4798      	blx	r3
 80019c4:	bf00      	nop
 80019c6:	3708      	adds	r7, #8
 80019c8:	46bd      	mov	sp, r7
 80019ca:	bd80      	pop	{r7, pc}
 80019cc:	20000208 	.word	0x20000208
 80019d0:	2000030c 	.word	0x2000030c

080019d4 <NVIC_SetPriority>:
 80019d4:	b480      	push	{r7}
 80019d6:	b083      	sub	sp, #12
 80019d8:	af00      	add	r7, sp, #0
 80019da:	4603      	mov	r3, r0
 80019dc:	6039      	str	r1, [r7, #0]
 80019de:	71fb      	strb	r3, [r7, #7]
 80019e0:	f997 3007 	ldrsb.w	r3, [r7, #7]
 80019e4:	2b00      	cmp	r3, #0
 80019e6:	da0b      	bge.n	8001a00 <NVIC_SetPriority+0x2c>
 80019e8:	683b      	ldr	r3, [r7, #0]
 80019ea:	b2da      	uxtb	r2, r3
 80019ec:	490c      	ldr	r1, [pc, #48]	; (8001a20 <NVIC_SetPriority+0x4c>)
 80019ee:	79fb      	ldrb	r3, [r7, #7]
 80019f0:	f003 030f 	and.w	r3, r3, #15
 80019f4:	3b04      	subs	r3, #4
 80019f6:	0112      	lsls	r2, r2, #4
 80019f8:	b2d2      	uxtb	r2, r2
 80019fa:	440b      	add	r3, r1
 80019fc:	761a      	strb	r2, [r3, #24]
 80019fe:	e009      	b.n	8001a14 <NVIC_SetPriority+0x40>
 8001a00:	683b      	ldr	r3, [r7, #0]
 8001a02:	b2da      	uxtb	r2, r3
 8001a04:	4907      	ldr	r1, [pc, #28]	; (8001a24 <NVIC_SetPriority+0x50>)
 8001a06:	f997 3007 	ldrsb.w	r3, [r7, #7]
 8001a0a:	0112      	lsls	r2, r2, #4
 8001a0c:	b2d2      	uxtb	r2, r2
 8001a0e:	440b      	add	r3, r1
 8001a10:	f883 2300 	strb.w	r2, [r3, #768]	; 0x300
 8001a14:	bf00      	nop
 8001a16:	370c      	adds	r7, #12
 8001a18:	46bd      	mov	sp, r7
 8001a1a:	f85d 7b04 	ldr.w	r7, [sp], #4
 8001a1e:	4770      	bx	lr
 8001a20:	e000ed00 	.word	0xe000ed00
 8001a24:	e000e100 	.word	0xe000e100

08001a28 <SysTick_Config>:
 8001a28:	b580      	push	{r7, lr}
 8001a2a:	b082      	sub	sp, #8
 8001a2c:	af00      	add	r7, sp, #0
 8001a2e:	6078      	str	r0, [r7, #4]
 8001a30:	687b      	ldr	r3, [r7, #4]
 8001a32:	3b01      	subs	r3, #1
 8001a34:	f1b3 7f80 	cmp.w	r3, #16777216	; 0x1000000
 8001a38:	d301      	bcc.n	8001a3e <SysTick_Config+0x16>
 8001a3a:	2301      	movs	r3, #1
 8001a3c:	e00f      	b.n	8001a5e <SysTick_Config+0x36>
 8001a3e:	4a0a      	ldr	r2, [pc, #40]	; (8001a68 <SysTick_Config+0x40>)
 8001a40:	687b      	ldr	r3, [r7, #4]
 8001a42:	3b01      	subs	r3, #1
 8001a44:	6053      	str	r3, [r2, #4]
 8001a46:	210f      	movs	r1, #15
 8001a48:	f04f 30ff 	mov.w	r0, #4294967295
 8001a4c:	f7ff ffc2 	bl	80019d4 <NVIC_SetPriority>
 8001a50:	4b05      	ldr	r3, [pc, #20]	; (8001a68 <SysTick_Config+0x40>)
 8001a52:	2200      	movs	r2, #0
 8001a54:	609a      	str	r2, [r3, #8]
 8001a56:	4b04      	ldr	r3, [pc, #16]	; (8001a68 <SysTick_Config+0x40>)
 8001a58:	2207      	movs	r2, #7
 8001a5a:	601a      	str	r2, [r3, #0]
 8001a5c:	2300      	movs	r3, #0
 8001a5e:	4618      	mov	r0, r3
 8001a60:	3708      	adds	r7, #8
 8001a62:	46bd      	mov	sp, r7
 8001a64:	bd80      	pop	{r7, pc}
 8001a66:	bf00      	nop
 8001a68:	e000e010 	.word	0xe000e010

08001a6c <TimerInit>:
 8001a6c:	b580      	push	{r7, lr}
 8001a6e:	b084      	sub	sp, #16
 8001a70:	af00      	add	r7, sp, #0
 8001a72:	463b      	mov	r3, r7
 8001a74:	4618      	mov	r0, r3
 8001a76:	f003 fded 	bl	8005654 <RCC_GetClocksFreq>
 8001a7a:	683b      	ldr	r3, [r7, #0]
 8001a7c:	4a0a      	ldr	r2, [pc, #40]	; (8001aa8 <TimerInit+0x3c>)
 8001a7e:	fba2 2303 	umull	r2, r3, r2, r3
 8001a82:	099b      	lsrs	r3, r3, #6
 8001a84:	4618      	mov	r0, r3
 8001a86:	f7ff ffcf 	bl	8001a28 <SysTick_Config>
 8001a8a:	2101      	movs	r1, #1
 8001a8c:	f04f 30ff 	mov.w	r0, #4294967295
 8001a90:	f7ff ffa0 	bl	80019d4 <NVIC_SetPriority>
 8001a94:	f44f 72c0 	mov.w	r2, #384	; 0x180
 8001a98:	2100      	movs	r1, #0
 8001a9a:	4804      	ldr	r0, [pc, #16]	; (8001aac <TimerInit+0x40>)
 8001a9c:	f002 fec8 	bl	8004830 <memsetl>
 8001aa0:	bf00      	nop
 8001aa2:	3710      	adds	r7, #16
 8001aa4:	46bd      	mov	sp, r7
 8001aa6:	bd80      	pop	{r7, pc}
 8001aa8:	10624dd3 	.word	0x10624dd3
 8001aac:	2000031c 	.word	0x2000031c

08001ab0 <TimerStart>:
 8001ab0:	b590      	push	{r4, r7, lr}
 8001ab2:	b087      	sub	sp, #28
 8001ab4:	af00      	add	r7, sp, #0
 8001ab6:	60f8      	str	r0, [r7, #12]
 8001ab8:	60b9      	str	r1, [r7, #8]
 8001aba:	603b      	str	r3, [r7, #0]
 8001abc:	4613      	mov	r3, r2
 8001abe:	71fb      	strb	r3, [r7, #7]
 8001ac0:	2300      	movs	r3, #0
 8001ac2:	75fb      	strb	r3, [r7, #23]
 8001ac4:	e04c      	b.n	8001b60 <TimerStart+0xb0>
 8001ac6:	7dfa      	ldrb	r2, [r7, #23]
 8001ac8:	4929      	ldr	r1, [pc, #164]	; (8001b70 <TimerStart+0xc0>)
 8001aca:	4613      	mov	r3, r2
 8001acc:	005b      	lsls	r3, r3, #1
 8001ace:	4413      	add	r3, r2
 8001ad0:	00db      	lsls	r3, r3, #3
 8001ad2:	440b      	add	r3, r1
 8001ad4:	3310      	adds	r3, #16
 8001ad6:	681b      	ldr	r3, [r3, #0]
 8001ad8:	2b00      	cmp	r3, #0
 8001ada:	d13e      	bne.n	8001b5a <TimerStart+0xaa>
 8001adc:	7dfa      	ldrb	r2, [r7, #23]
 8001ade:	4924      	ldr	r1, [pc, #144]	; (8001b70 <TimerStart+0xc0>)
 8001ae0:	4613      	mov	r3, r2
 8001ae2:	005b      	lsls	r3, r3, #1
 8001ae4:	4413      	add	r3, r2
 8001ae6:	00db      	lsls	r3, r3, #3
 8001ae8:	440b      	add	r3, r1
 8001aea:	68fa      	ldr	r2, [r7, #12]
 8001aec:	601a      	str	r2, [r3, #0]
 8001aee:	7dfa      	ldrb	r2, [r7, #23]
 8001af0:	491f      	ldr	r1, [pc, #124]	; (8001b70 <TimerStart+0xc0>)
 8001af2:	4613      	mov	r3, r2
 8001af4:	005b      	lsls	r3, r3, #1
 8001af6:	4413      	add	r3, r2
 8001af8:	00db      	lsls	r3, r3, #3
 8001afa:	440b      	add	r3, r1
 8001afc:	3310      	adds	r3, #16
 8001afe:	683a      	ldr	r2, [r7, #0]
 8001b00:	601a      	str	r2, [r3, #0]
 8001b02:	7dfa      	ldrb	r2, [r7, #23]
 8001b04:	491a      	ldr	r1, [pc, #104]	; (8001b70 <TimerStart+0xc0>)
 8001b06:	4613      	mov	r3, r2
 8001b08:	005b      	lsls	r3, r3, #1
 8001b0a:	4413      	add	r3, r2
 8001b0c:	00db      	lsls	r3, r3, #3
 8001b0e:	440b      	add	r3, r1
 8001b10:	330c      	adds	r3, #12
 8001b12:	79fa      	ldrb	r2, [r7, #7]
 8001b14:	701a      	strb	r2, [r3, #0]
 8001b16:	7dfa      	ldrb	r2, [r7, #23]
 8001b18:	4915      	ldr	r1, [pc, #84]	; (8001b70 <TimerStart+0xc0>)
 8001b1a:	4613      	mov	r3, r2
 8001b1c:	005b      	lsls	r3, r3, #1
 8001b1e:	4413      	add	r3, r2
 8001b20:	00db      	lsls	r3, r3, #3
 8001b22:	440b      	add	r3, r1
 8001b24:	3314      	adds	r3, #20
 8001b26:	6aba      	ldr	r2, [r7, #40]	; 0x28
 8001b28:	601a      	str	r2, [r3, #0]
 8001b2a:	7dfc      	ldrb	r4, [r7, #23]
 8001b2c:	f000 f88e 	bl	8001c4c <GetMilSecTick>
 8001b30:	4601      	mov	r1, r0
 8001b32:	4a0f      	ldr	r2, [pc, #60]	; (8001b70 <TimerStart+0xc0>)
 8001b34:	4623      	mov	r3, r4
 8001b36:	005b      	lsls	r3, r3, #1
 8001b38:	4423      	add	r3, r4
 8001b3a:	00db      	lsls	r3, r3, #3
 8001b3c:	4413      	add	r3, r2
 8001b3e:	3304      	adds	r3, #4
 8001b40:	6019      	str	r1, [r3, #0]
 8001b42:	7dfa      	ldrb	r2, [r7, #23]
 8001b44:	490a      	ldr	r1, [pc, #40]	; (8001b70 <TimerStart+0xc0>)
 8001b46:	4613      	mov	r3, r2
 8001b48:	005b      	lsls	r3, r3, #1
 8001b4a:	4413      	add	r3, r2
 8001b4c:	00db      	lsls	r3, r3, #3
 8001b4e:	440b      	add	r3, r1
 8001b50:	3308      	adds	r3, #8
 8001b52:	68ba      	ldr	r2, [r7, #8]
 8001b54:	601a      	str	r2, [r3, #0]
 8001b56:	7dfb      	ldrb	r3, [r7, #23]
 8001b58:	e006      	b.n	8001b68 <TimerStart+0xb8>
 8001b5a:	7dfb      	ldrb	r3, [r7, #23]
 8001b5c:	3301      	adds	r3, #1
 8001b5e:	75fb      	strb	r3, [r7, #23]
 8001b60:	7dfb      	ldrb	r3, [r7, #23]
 8001b62:	2b0f      	cmp	r3, #15
 8001b64:	d9af      	bls.n	8001ac6 <TimerStart+0x16>
 8001b66:	23ff      	movs	r3, #255	; 0xff
 8001b68:	4618      	mov	r0, r3
 8001b6a:	371c      	adds	r7, #28
 8001b6c:	46bd      	mov	sp, r7
 8001b6e:	bd90      	pop	{r4, r7, pc}
 8001b70:	2000031c 	.word	0x2000031c

08001b74 <TimerChangePeriod>:
 8001b74:	b480      	push	{r7}
 8001b76:	b083      	sub	sp, #12
 8001b78:	af00      	add	r7, sp, #0
 8001b7a:	4603      	mov	r3, r0
 8001b7c:	6039      	str	r1, [r7, #0]
 8001b7e:	71fb      	strb	r3, [r7, #7]
 8001b80:	79fb      	ldrb	r3, [r7, #7]
 8001b82:	2bff      	cmp	r3, #255	; 0xff
 8001b84:	d00a      	beq.n	8001b9c <TimerChangePeriod+0x28>
 8001b86:	79fa      	ldrb	r2, [r7, #7]
 8001b88:	4907      	ldr	r1, [pc, #28]	; (8001ba8 <TimerChangePeriod+0x34>)
 8001b8a:	4613      	mov	r3, r2
 8001b8c:	005b      	lsls	r3, r3, #1
 8001b8e:	4413      	add	r3, r2
 8001b90:	00db      	lsls	r3, r3, #3
 8001b92:	440b      	add	r3, r1
 8001b94:	3308      	adds	r3, #8
 8001b96:	683a      	ldr	r2, [r7, #0]
 8001b98:	601a      	str	r2, [r3, #0]
 8001b9a:	e000      	b.n	8001b9e <TimerChangePeriod+0x2a>
 8001b9c:	bf00      	nop
 8001b9e:	370c      	adds	r7, #12
 8001ba0:	46bd      	mov	sp, r7
 8001ba2:	f85d 7b04 	ldr.w	r7, [sp], #4
 8001ba6:	4770      	bx	lr
 8001ba8:	2000031c 	.word	0x2000031c

08001bac <TimerStop>:
 8001bac:	b480      	push	{r7}
 8001bae:	b083      	sub	sp, #12
 8001bb0:	af00      	add	r7, sp, #0
 8001bb2:	4603      	mov	r3, r0
 8001bb4:	71fb      	strb	r3, [r7, #7]
 8001bb6:	79fb      	ldrb	r3, [r7, #7]
 8001bb8:	2b0f      	cmp	r3, #15
 8001bba:	d80a      	bhi.n	8001bd2 <TimerStop+0x26>
 8001bbc:	79fa      	ldrb	r2, [r7, #7]
 8001bbe:	4922      	ldr	r1, [pc, #136]	; (8001c48 <TimerStop+0x9c>)
 8001bc0:	4613      	mov	r3, r2
 8001bc2:	005b      	lsls	r3, r3, #1
 8001bc4:	4413      	add	r3, r2
 8001bc6:	00db      	lsls	r3, r3, #3
 8001bc8:	440b      	add	r3, r1
 8001bca:	3310      	adds	r3, #16
 8001bcc:	681b      	ldr	r3, [r3, #0]
 8001bce:	2b00      	cmp	r3, #0
 8001bd0:	d101      	bne.n	8001bd6 <TimerStop+0x2a>
 8001bd2:	2300      	movs	r3, #0
 8001bd4:	e031      	b.n	8001c3a <TimerStop+0x8e>
 8001bd6:	79fa      	ldrb	r2, [r7, #7]
 8001bd8:	491b      	ldr	r1, [pc, #108]	; (8001c48 <TimerStop+0x9c>)
 8001bda:	4613      	mov	r3, r2
 8001bdc:	005b      	lsls	r3, r3, #1
 8001bde:	4413      	add	r3, r2
 8001be0:	00db      	lsls	r3, r3, #3
 8001be2:	440b      	add	r3, r1
 8001be4:	2200      	movs	r2, #0
 8001be6:	601a      	str	r2, [r3, #0]
 8001be8:	79fa      	ldrb	r2, [r7, #7]
 8001bea:	4917      	ldr	r1, [pc, #92]	; (8001c48 <TimerStop+0x9c>)
 8001bec:	4613      	mov	r3, r2
 8001bee:	005b      	lsls	r3, r3, #1
 8001bf0:	4413      	add	r3, r2
 8001bf2:	00db      	lsls	r3, r3, #3
 8001bf4:	440b      	add	r3, r1
 8001bf6:	3310      	adds	r3, #16
 8001bf8:	2200      	movs	r2, #0
 8001bfa:	601a      	str	r2, [r3, #0]
 8001bfc:	79fa      	ldrb	r2, [r7, #7]
 8001bfe:	4912      	ldr	r1, [pc, #72]	; (8001c48 <TimerStop+0x9c>)
 8001c00:	4613      	mov	r3, r2
 8001c02:	005b      	lsls	r3, r3, #1
 8001c04:	4413      	add	r3, r2
 8001c06:	00db      	lsls	r3, r3, #3
 8001c08:	440b      	add	r3, r1
 8001c0a:	330c      	adds	r3, #12
 8001c0c:	2200      	movs	r2, #0
 8001c0e:	701a      	strb	r2, [r3, #0]
 8001c10:	79fa      	ldrb	r2, [r7, #7]
 8001c12:	490d      	ldr	r1, [pc, #52]	; (8001c48 <TimerStop+0x9c>)
 8001c14:	4613      	mov	r3, r2
 8001c16:	005b      	lsls	r3, r3, #1
 8001c18:	4413      	add	r3, r2
 8001c1a:	00db      	lsls	r3, r3, #3
 8001c1c:	440b      	add	r3, r1
 8001c1e:	3308      	adds	r3, #8
 8001c20:	2200      	movs	r2, #0
 8001c22:	601a      	str	r2, [r3, #0]
 8001c24:	79fa      	ldrb	r2, [r7, #7]
 8001c26:	4908      	ldr	r1, [pc, #32]	; (8001c48 <TimerStop+0x9c>)
 8001c28:	4613      	mov	r3, r2
 8001c2a:	005b      	lsls	r3, r3, #1
 8001c2c:	4413      	add	r3, r2
 8001c2e:	00db      	lsls	r3, r3, #3
 8001c30:	440b      	add	r3, r1
 8001c32:	3304      	adds	r3, #4
 8001c34:	2200      	movs	r2, #0
 8001c36:	601a      	str	r2, [r3, #0]
 8001c38:	2301      	movs	r3, #1
 8001c3a:	4618      	mov	r0, r3
 8001c3c:	370c      	adds	r7, #12
 8001c3e:	46bd      	mov	sp, r7
 8001c40:	f85d 7b04 	ldr.w	r7, [sp], #4
 8001c44:	4770      	bx	lr
 8001c46:	bf00      	nop
 8001c48:	2000031c 	.word	0x2000031c

08001c4c <GetMilSecTick>:
 8001c4c:	b480      	push	{r7}
 8001c4e:	af00      	add	r7, sp, #0
 8001c50:	4b03      	ldr	r3, [pc, #12]	; (8001c60 <GetMilSecTick+0x14>)
 8001c52:	681b      	ldr	r3, [r3, #0]
 8001c54:	4618      	mov	r0, r3
 8001c56:	46bd      	mov	sp, r7
 8001c58:	f85d 7b04 	ldr.w	r7, [sp], #4
 8001c5c:	4770      	bx	lr
 8001c5e:	bf00      	nop
 8001c60:	2000049c 	.word	0x2000049c

08001c64 <processTimerScheduler>:
 8001c64:	b580      	push	{r7, lr}
 8001c66:	b084      	sub	sp, #16
 8001c68:	af00      	add	r7, sp, #0
 8001c6a:	2300      	movs	r3, #0
 8001c6c:	73fb      	strb	r3, [r7, #15]
 8001c6e:	e068      	b.n	8001d42 <processTimerScheduler+0xde>
 8001c70:	7bfa      	ldrb	r2, [r7, #15]
 8001c72:	4937      	ldr	r1, [pc, #220]	; (8001d50 <processTimerScheduler+0xec>)
 8001c74:	4613      	mov	r3, r2
 8001c76:	005b      	lsls	r3, r3, #1
 8001c78:	4413      	add	r3, r2
 8001c7a:	00db      	lsls	r3, r3, #3
 8001c7c:	440b      	add	r3, r1
 8001c7e:	3310      	adds	r3, #16
 8001c80:	681b      	ldr	r3, [r3, #0]
 8001c82:	2b00      	cmp	r3, #0
 8001c84:	d05a      	beq.n	8001d3c <processTimerScheduler+0xd8>
 8001c86:	7bfb      	ldrb	r3, [r7, #15]
 8001c88:	4618      	mov	r0, r3
 8001c8a:	f000 f863 	bl	8001d54 <TimeExpired>
 8001c8e:	4603      	mov	r3, r0
 8001c90:	2b00      	cmp	r3, #0
 8001c92:	d053      	beq.n	8001d3c <processTimerScheduler+0xd8>
 8001c94:	7bfa      	ldrb	r2, [r7, #15]
 8001c96:	492e      	ldr	r1, [pc, #184]	; (8001d50 <processTimerScheduler+0xec>)
 8001c98:	4613      	mov	r3, r2
 8001c9a:	005b      	lsls	r3, r3, #1
 8001c9c:	4413      	add	r3, r2
 8001c9e:	00db      	lsls	r3, r3, #3
 8001ca0:	440b      	add	r3, r1
 8001ca2:	3310      	adds	r3, #16
 8001ca4:	681b      	ldr	r3, [r3, #0]
 8001ca6:	60bb      	str	r3, [r7, #8]
 8001ca8:	7bfa      	ldrb	r2, [r7, #15]
 8001caa:	4929      	ldr	r1, [pc, #164]	; (8001d50 <processTimerScheduler+0xec>)
 8001cac:	4613      	mov	r3, r2
 8001cae:	005b      	lsls	r3, r3, #1
 8001cb0:	4413      	add	r3, r2
 8001cb2:	00db      	lsls	r3, r3, #3
 8001cb4:	440b      	add	r3, r1
 8001cb6:	3314      	adds	r3, #20
 8001cb8:	681b      	ldr	r3, [r3, #0]
 8001cba:	607b      	str	r3, [r7, #4]
 8001cbc:	7bfa      	ldrb	r2, [r7, #15]
 8001cbe:	4924      	ldr	r1, [pc, #144]	; (8001d50 <processTimerScheduler+0xec>)
 8001cc0:	4613      	mov	r3, r2
 8001cc2:	005b      	lsls	r3, r3, #1
 8001cc4:	4413      	add	r3, r2
 8001cc6:	00db      	lsls	r3, r3, #3
 8001cc8:	440b      	add	r3, r1
 8001cca:	330c      	adds	r3, #12
 8001ccc:	781b      	ldrb	r3, [r3, #0]
 8001cce:	b2db      	uxtb	r3, r3
 8001cd0:	2bff      	cmp	r3, #255	; 0xff
 8001cd2:	d020      	beq.n	8001d16 <processTimerScheduler+0xb2>
 8001cd4:	7bfa      	ldrb	r2, [r7, #15]
 8001cd6:	491e      	ldr	r1, [pc, #120]	; (8001d50 <processTimerScheduler+0xec>)
 8001cd8:	4613      	mov	r3, r2
 8001cda:	005b      	lsls	r3, r3, #1
 8001cdc:	4413      	add	r3, r2
 8001cde:	00db      	lsls	r3, r3, #3
 8001ce0:	440b      	add	r3, r1
 8001ce2:	330c      	adds	r3, #12
 8001ce4:	781b      	ldrb	r3, [r3, #0]
 8001ce6:	b2db      	uxtb	r3, r3
 8001ce8:	2b00      	cmp	r3, #0
 8001cea:	d014      	beq.n	8001d16 <processTimerScheduler+0xb2>
 8001cec:	7bfa      	ldrb	r2, [r7, #15]
 8001cee:	4918      	ldr	r1, [pc, #96]	; (8001d50 <processTimerScheduler+0xec>)
 8001cf0:	4613      	mov	r3, r2
 8001cf2:	005b      	lsls	r3, r3, #1
 8001cf4:	4413      	add	r3, r2
 8001cf6:	00db      	lsls	r3, r3, #3
 8001cf8:	440b      	add	r3, r1
 8001cfa:	330c      	adds	r3, #12
 8001cfc:	781b      	ldrb	r3, [r3, #0]
 8001cfe:	b2db      	uxtb	r3, r3
 8001d00:	3b01      	subs	r3, #1
 8001d02:	b2d8      	uxtb	r0, r3
 8001d04:	4912      	ldr	r1, [pc, #72]	; (8001d50 <processTimerScheduler+0xec>)
 8001d06:	4613      	mov	r3, r2
 8001d08:	005b      	lsls	r3, r3, #1
 8001d0a:	4413      	add	r3, r2
 8001d0c:	00db      	lsls	r3, r3, #3
 8001d0e:	440b      	add	r3, r1
 8001d10:	330c      	adds	r3, #12
 8001d12:	4602      	mov	r2, r0
 8001d14:	701a      	strb	r2, [r3, #0]
 8001d16:	7bfa      	ldrb	r2, [r7, #15]
 8001d18:	490d      	ldr	r1, [pc, #52]	; (8001d50 <processTimerScheduler+0xec>)
 8001d1a:	4613      	mov	r3, r2
 8001d1c:	005b      	lsls	r3, r3, #1
 8001d1e:	4413      	add	r3, r2
 8001d20:	00db      	lsls	r3, r3, #3
 8001d22:	440b      	add	r3, r1
 8001d24:	330c      	adds	r3, #12
 8001d26:	781b      	ldrb	r3, [r3, #0]
 8001d28:	b2db      	uxtb	r3, r3
 8001d2a:	2b00      	cmp	r3, #0
 8001d2c:	d103      	bne.n	8001d36 <processTimerScheduler+0xd2>
 8001d2e:	7bfb      	ldrb	r3, [r7, #15]
 8001d30:	4618      	mov	r0, r3
 8001d32:	f7ff ff3b 	bl	8001bac <TimerStop>
 8001d36:	68bb      	ldr	r3, [r7, #8]
 8001d38:	6878      	ldr	r0, [r7, #4]
 8001d3a:	4798      	blx	r3
 8001d3c:	7bfb      	ldrb	r3, [r7, #15]
 8001d3e:	3301      	adds	r3, #1
 8001d40:	73fb      	strb	r3, [r7, #15]
 8001d42:	7bfb      	ldrb	r3, [r7, #15]
 8001d44:	2b0f      	cmp	r3, #15
 8001d46:	d993      	bls.n	8001c70 <processTimerScheduler+0xc>
 8001d48:	bf00      	nop
 8001d4a:	3710      	adds	r7, #16
 8001d4c:	46bd      	mov	sp, r7
 8001d4e:	bd80      	pop	{r7, pc}
 8001d50:	2000031c 	.word	0x2000031c

08001d54 <TimeExpired>:
 8001d54:	b580      	push	{r7, lr}
 8001d56:	b084      	sub	sp, #16
 8001d58:	af00      	add	r7, sp, #0
 8001d5a:	4603      	mov	r3, r0
 8001d5c:	71fb      	strb	r3, [r7, #7]
 8001d5e:	2300      	movs	r3, #0
 8001d60:	60fb      	str	r3, [r7, #12]
 8001d62:	b672      	cpsid	i
 8001d64:	f7ff ff72 	bl	8001c4c <GetMilSecTick>
 8001d68:	60b8      	str	r0, [r7, #8]
 8001d6a:	79fb      	ldrb	r3, [r7, #7]
 8001d6c:	2b0f      	cmp	r3, #15
 8001d6e:	d80a      	bhi.n	8001d86 <TimeExpired+0x32>
 8001d70:	79fa      	ldrb	r2, [r7, #7]
 8001d72:	492a      	ldr	r1, [pc, #168]	; (8001e1c <TimeExpired+0xc8>)
 8001d74:	4613      	mov	r3, r2
 8001d76:	005b      	lsls	r3, r3, #1
 8001d78:	4413      	add	r3, r2
 8001d7a:	00db      	lsls	r3, r3, #3
 8001d7c:	440b      	add	r3, r1
 8001d7e:	3310      	adds	r3, #16
 8001d80:	681b      	ldr	r3, [r3, #0]
 8001d82:	2b00      	cmp	r3, #0
 8001d84:	d102      	bne.n	8001d8c <TimeExpired+0x38>
 8001d86:	b662      	cpsie	i
 8001d88:	2300      	movs	r3, #0
 8001d8a:	e042      	b.n	8001e12 <TimeExpired+0xbe>
 8001d8c:	79fa      	ldrb	r2, [r7, #7]
 8001d8e:	4923      	ldr	r1, [pc, #140]	; (8001e1c <TimeExpired+0xc8>)
 8001d90:	4613      	mov	r3, r2
 8001d92:	005b      	lsls	r3, r3, #1
 8001d94:	4413      	add	r3, r2
 8001d96:	00db      	lsls	r3, r3, #3
 8001d98:	440b      	add	r3, r1
 8001d9a:	3304      	adds	r3, #4
 8001d9c:	681b      	ldr	r3, [r3, #0]
 8001d9e:	68ba      	ldr	r2, [r7, #8]
 8001da0:	429a      	cmp	r2, r3
 8001da2:	d30c      	bcc.n	8001dbe <TimeExpired+0x6a>
 8001da4:	79fa      	ldrb	r2, [r7, #7]
 8001da6:	491d      	ldr	r1, [pc, #116]	; (8001e1c <TimeExpired+0xc8>)
 8001da8:	4613      	mov	r3, r2
 8001daa:	005b      	lsls	r3, r3, #1
 8001dac:	4413      	add	r3, r2
 8001dae:	00db      	lsls	r3, r3, #3
 8001db0:	440b      	add	r3, r1
 8001db2:	3304      	adds	r3, #4
 8001db4:	681b      	ldr	r3, [r3, #0]
 8001db6:	68ba      	ldr	r2, [r7, #8]
 8001db8:	1ad3      	subs	r3, r2, r3
 8001dba:	60fb      	str	r3, [r7, #12]
 8001dbc:	e00e      	b.n	8001ddc <TimeExpired+0x88>
 8001dbe:	79fa      	ldrb	r2, [r7, #7]
 8001dc0:	4916      	ldr	r1, [pc, #88]	; (8001e1c <TimeExpired+0xc8>)
 8001dc2:	4613      	mov	r3, r2
 8001dc4:	005b      	lsls	r3, r3, #1
 8001dc6:	4413      	add	r3, r2
 8001dc8:	00db      	lsls	r3, r3, #3
 8001dca:	440b      	add	r3, r1
 8001dcc:	3304      	adds	r3, #4
 8001dce:	681a      	ldr	r2, [r3, #0]
 8001dd0:	68bb      	ldr	r3, [r7, #8]
 8001dd2:	1ad3      	subs	r3, r2, r3
 8001dd4:	60fb      	str	r3, [r7, #12]
 8001dd6:	68fb      	ldr	r3, [r7, #12]
 8001dd8:	43db      	mvns	r3, r3
 8001dda:	60fb      	str	r3, [r7, #12]
 8001ddc:	79fa      	ldrb	r2, [r7, #7]
 8001dde:	490f      	ldr	r1, [pc, #60]	; (8001e1c <TimeExpired+0xc8>)
 8001de0:	4613      	mov	r3, r2
 8001de2:	005b      	lsls	r3, r3, #1
 8001de4:	4413      	add	r3, r2
 8001de6:	00db      	lsls	r3, r3, #3
 8001de8:	440b      	add	r3, r1
 8001dea:	3308      	adds	r3, #8
 8001dec:	681b      	ldr	r3, [r3, #0]
 8001dee:	68fa      	ldr	r2, [r7, #12]
 8001df0:	429a      	cmp	r2, r3
 8001df2:	d202      	bcs.n	8001dfa <TimeExpired+0xa6>
 8001df4:	b662      	cpsie	i
 8001df6:	2300      	movs	r3, #0
 8001df8:	e00b      	b.n	8001e12 <TimeExpired+0xbe>
 8001dfa:	79fa      	ldrb	r2, [r7, #7]
 8001dfc:	4907      	ldr	r1, [pc, #28]	; (8001e1c <TimeExpired+0xc8>)
 8001dfe:	4613      	mov	r3, r2
 8001e00:	005b      	lsls	r3, r3, #1
 8001e02:	4413      	add	r3, r2
 8001e04:	00db      	lsls	r3, r3, #3
 8001e06:	440b      	add	r3, r1
 8001e08:	3304      	adds	r3, #4
 8001e0a:	68ba      	ldr	r2, [r7, #8]
 8001e0c:	601a      	str	r2, [r3, #0]
 8001e0e:	b662      	cpsie	i
 8001e10:	2301      	movs	r3, #1
 8001e12:	4618      	mov	r0, r3
 8001e14:	3710      	adds	r7, #16
 8001e16:	46bd      	mov	sp, r7
 8001e18:	bd80      	pop	{r7, pc}
 8001e1a:	bf00      	nop
 8001e1c:	2000031c 	.word	0x2000031c

08001e20 <SysTick_Handler>:
 8001e20:	b480      	push	{r7}
 8001e22:	af00      	add	r7, sp, #0
 8001e24:	4b04      	ldr	r3, [pc, #16]	; (8001e38 <SysTick_Handler+0x18>)
 8001e26:	681b      	ldr	r3, [r3, #0]
 8001e28:	3301      	adds	r3, #1
 8001e2a:	4a03      	ldr	r2, [pc, #12]	; (8001e38 <SysTick_Handler+0x18>)
 8001e2c:	6013      	str	r3, [r2, #0]
 8001e2e:	bf00      	nop
 8001e30:	46bd      	mov	sp, r7
 8001e32:	f85d 7b04 	ldr.w	r7, [sp], #4
 8001e36:	4770      	bx	lr
 8001e38:	2000049c 	.word	0x2000049c

08001e3c <LightSensor_Init>:
 8001e3c:	b580      	push	{r7, lr}
 8001e3e:	b09e      	sub	sp, #120	; 0x78
 8001e40:	af00      	add	r7, sp, #0
 8001e42:	4603      	mov	r3, r0
 8001e44:	71fb      	strb	r3, [r7, #7]
 8001e46:	2101      	movs	r1, #1
 8001e48:	f44f 7080 	mov.w	r0, #256	; 0x100
 8001e4c:	f003 fcea 	bl	8005824 <RCC_APB2PeriphClockCmd>
 8001e50:	2101      	movs	r1, #1
 8001e52:	2004      	movs	r0, #4
 8001e54:	f003 fca6 	bl	80057a4 <RCC_AHB1PeriphClockCmd>
 8001e58:	2101      	movs	r1, #1
 8001e5a:	f44f 0080 	mov.w	r0, #4194304	; 0x400000
 8001e5e:	f003 fca1 	bl	80057a4 <RCC_AHB1PeriphClockCmd>
 8001e62:	2320      	movs	r3, #32
 8001e64:	64bb      	str	r3, [r7, #72]	; 0x48
 8001e66:	2303      	movs	r3, #3
 8001e68:	f887 304c 	strb.w	r3, [r7, #76]	; 0x4c
 8001e6c:	2300      	movs	r3, #0
 8001e6e:	f887 304f 	strb.w	r3, [r7, #79]	; 0x4f
 8001e72:	f107 0348 	add.w	r3, r7, #72	; 0x48
 8001e76:	4619      	mov	r1, r3
 8001e78:	4843      	ldr	r0, [pc, #268]	; (8001f88 <LightSensor_Init+0x14c>)
 8001e7a:	f003 f8e1 	bl	8005040 <GPIO_Init>
 8001e7e:	f002 fd67 	bl	8004950 <ADC_DeInit>
 8001e82:	2300      	movs	r3, #0
 8001e84:	66bb      	str	r3, [r7, #104]	; 0x68
 8001e86:	2300      	movs	r3, #0
 8001e88:	66fb      	str	r3, [r7, #108]	; 0x6c
 8001e8a:	2300      	movs	r3, #0
 8001e8c:	673b      	str	r3, [r7, #112]	; 0x70
 8001e8e:	2300      	movs	r3, #0
 8001e90:	677b      	str	r3, [r7, #116]	; 0x74
 8001e92:	f107 0368 	add.w	r3, r7, #104	; 0x68
 8001e96:	4618      	mov	r0, r3
 8001e98:	f002 fdbe 	bl	8004a18 <ADC_CommonInit>
 8001e9c:	2300      	movs	r3, #0
 8001e9e:	653b      	str	r3, [r7, #80]	; 0x50
 8001ea0:	2300      	movs	r3, #0
 8001ea2:	f887 3054 	strb.w	r3, [r7, #84]	; 0x54
 8001ea6:	2301      	movs	r3, #1
 8001ea8:	f887 3055 	strb.w	r3, [r7, #85]	; 0x55
 8001eac:	2300      	movs	r3, #0
 8001eae:	65bb      	str	r3, [r7, #88]	; 0x58
 8001eb0:	2300      	movs	r3, #0
 8001eb2:	65fb      	str	r3, [r7, #92]	; 0x5c
 8001eb4:	2300      	movs	r3, #0
 8001eb6:	663b      	str	r3, [r7, #96]	; 0x60
 8001eb8:	2301      	movs	r3, #1
 8001eba:	f887 3064 	strb.w	r3, [r7, #100]	; 0x64
 8001ebe:	f107 0350 	add.w	r3, r7, #80	; 0x50
 8001ec2:	4619      	mov	r1, r3
 8001ec4:	4831      	ldr	r0, [pc, #196]	; (8001f8c <LightSensor_Init+0x150>)
 8001ec6:	f002 fd51 	bl	800496c <ADC_Init>
 8001eca:	79fb      	ldrb	r3, [r7, #7]
 8001ecc:	2b01      	cmp	r3, #1
 8001ece:	d110      	bne.n	8001ef2 <LightSensor_Init+0xb6>
 8001ed0:	2101      	movs	r1, #1
 8001ed2:	482e      	ldr	r0, [pc, #184]	; (8001f8c <LightSensor_Init+0x150>)
 8001ed4:	f002 febe 	bl	8004c54 <ADC_EOCOnEachRegularChannelCmd>
 8001ed8:	2100      	movs	r1, #0
 8001eda:	482c      	ldr	r0, [pc, #176]	; (8001f8c <LightSensor_Init+0x150>)
 8001edc:	f002 fed6 	bl	8004c8c <ADC_ContinuousModeCmd>
 8001ee0:	2101      	movs	r1, #1
 8001ee2:	482a      	ldr	r0, [pc, #168]	; (8001f8c <LightSensor_Init+0x150>)
 8001ee4:	f002 feee 	bl	8004cc4 <ADC_DiscModeChannelCountConfig>
 8001ee8:	2101      	movs	r1, #1
 8001eea:	4828      	ldr	r0, [pc, #160]	; (8001f8c <LightSensor_Init+0x150>)
 8001eec:	f002 ff0c 	bl	8004d08 <ADC_DiscModeCmd>
 8001ef0:	e036      	b.n	8001f60 <LightSensor_Init+0x124>
 8001ef2:	4827      	ldr	r0, [pc, #156]	; (8001f90 <LightSensor_Init+0x154>)
 8001ef4:	f002 ff5c 	bl	8004db0 <DMA_DeInit>
 8001ef8:	2300      	movs	r3, #0
 8001efa:	60fb      	str	r3, [r7, #12]
 8001efc:	4b25      	ldr	r3, [pc, #148]	; (8001f94 <LightSensor_Init+0x158>)
 8001efe:	613b      	str	r3, [r7, #16]
 8001f00:	4b25      	ldr	r3, [pc, #148]	; (8001f98 <LightSensor_Init+0x15c>)
 8001f02:	617b      	str	r3, [r7, #20]
 8001f04:	2300      	movs	r3, #0
 8001f06:	61bb      	str	r3, [r7, #24]
 8001f08:	2301      	movs	r3, #1
 8001f0a:	61fb      	str	r3, [r7, #28]
 8001f0c:	2300      	movs	r3, #0
 8001f0e:	623b      	str	r3, [r7, #32]
 8001f10:	2300      	movs	r3, #0
 8001f12:	627b      	str	r3, [r7, #36]	; 0x24
 8001f14:	f44f 6300 	mov.w	r3, #2048	; 0x800
 8001f18:	62bb      	str	r3, [r7, #40]	; 0x28
 8001f1a:	f44f 5300 	mov.w	r3, #8192	; 0x2000
 8001f1e:	62fb      	str	r3, [r7, #44]	; 0x2c
 8001f20:	f44f 7380 	mov.w	r3, #256	; 0x100
 8001f24:	633b      	str	r3, [r7, #48]	; 0x30
 8001f26:	f44f 3300 	mov.w	r3, #131072	; 0x20000
 8001f2a:	637b      	str	r3, [r7, #52]	; 0x34
 8001f2c:	2300      	movs	r3, #0
 8001f2e:	63bb      	str	r3, [r7, #56]	; 0x38
 8001f30:	2301      	movs	r3, #1
 8001f32:	63fb      	str	r3, [r7, #60]	; 0x3c
 8001f34:	2300      	movs	r3, #0
 8001f36:	643b      	str	r3, [r7, #64]	; 0x40
 8001f38:	2300      	movs	r3, #0
 8001f3a:	647b      	str	r3, [r7, #68]	; 0x44
 8001f3c:	f107 030c 	add.w	r3, r7, #12
 8001f40:	4619      	mov	r1, r3
 8001f42:	4813      	ldr	r0, [pc, #76]	; (8001f90 <LightSensor_Init+0x154>)
 8001f44:	f003 f808 	bl	8004f58 <DMA_Init>
 8001f48:	2101      	movs	r1, #1
 8001f4a:	4811      	ldr	r0, [pc, #68]	; (8001f90 <LightSensor_Init+0x154>)
 8001f4c:	f003 f85c 	bl	8005008 <DMA_Cmd>
 8001f50:	2101      	movs	r1, #1
 8001f52:	480e      	ldr	r0, [pc, #56]	; (8001f8c <LightSensor_Init+0x150>)
 8001f54:	f002 ff10 	bl	8004d78 <ADC_DMARequestAfterLastTransferCmd>
 8001f58:	2101      	movs	r1, #1
 8001f5a:	480c      	ldr	r0, [pc, #48]	; (8001f8c <LightSensor_Init+0x150>)
 8001f5c:	f002 fef0 	bl	8004d40 <ADC_DMACmd>
 8001f60:	2301      	movs	r3, #1
 8001f62:	2201      	movs	r2, #1
 8001f64:	210f      	movs	r1, #15
 8001f66:	4809      	ldr	r0, [pc, #36]	; (8001f8c <LightSensor_Init+0x150>)
 8001f68:	f002 fd9a 	bl	8004aa0 <ADC_RegularChannelConfig>
 8001f6c:	2101      	movs	r1, #1
 8001f6e:	4807      	ldr	r0, [pc, #28]	; (8001f8c <LightSensor_Init+0x150>)
 8001f70:	f002 fd7a 	bl	8004a68 <ADC_Cmd>
 8001f74:	79fb      	ldrb	r3, [r7, #7]
 8001f76:	2b00      	cmp	r3, #0
 8001f78:	d102      	bne.n	8001f80 <LightSensor_Init+0x144>
 8001f7a:	4804      	ldr	r0, [pc, #16]	; (8001f8c <LightSensor_Init+0x150>)
 8001f7c:	f002 fe5a 	bl	8004c34 <ADC_SoftwareStartConv>
 8001f80:	bf00      	nop
 8001f82:	3778      	adds	r7, #120	; 0x78
 8001f84:	46bd      	mov	sp, r7
 8001f86:	bd80      	pop	{r7, pc}
 8001f88:	40020800 	.word	0x40020800
 8001f8c:	40012000 	.word	0x40012000
 8001f90:	40026410 	.word	0x40026410
 8001f94:	4001204c 	.word	0x4001204c
 8001f98:	200004a0 	.word	0x200004a0

08001f9c <LightSensor_MeasureUseDMAMode>:
 8001f9c:	b480      	push	{r7}
 8001f9e:	af00      	add	r7, sp, #0
 8001fa0:	4b03      	ldr	r3, [pc, #12]	; (8001fb0 <LightSensor_MeasureUseDMAMode+0x14>)
 8001fa2:	881b      	ldrh	r3, [r3, #0]
 8001fa4:	b29b      	uxth	r3, r3
 8001fa6:	4618      	mov	r0, r3
 8001fa8:	46bd      	mov	sp, r7
 8001faa:	f85d 7b04 	ldr.w	r7, [sp], #4
 8001fae:	4770      	bx	lr
 8001fb0:	200004a0 	.word	0x200004a0

08001fb4 <LightSensor_SendPacketRespond>:
 8001fb4:	b580      	push	{r7, lr}
 8001fb6:	b086      	sub	sp, #24
 8001fb8:	af02      	add	r7, sp, #8
 8001fba:	4603      	mov	r3, r0
 8001fbc:	80fb      	strh	r3, [r7, #6]
 8001fbe:	88fb      	ldrh	r3, [r7, #6]
 8001fc0:	0a1b      	lsrs	r3, r3, #8
 8001fc2:	b29b      	uxth	r3, r3
 8001fc4:	b2db      	uxtb	r3, r3
 8001fc6:	733b      	strb	r3, [r7, #12]
 8001fc8:	88fb      	ldrh	r3, [r7, #6]
 8001fca:	b2db      	uxtb	r3, r3
 8001fcc:	737b      	strb	r3, [r7, #13]
 8001fce:	f107 020c 	add.w	r2, r7, #12
 8001fd2:	2302      	movs	r3, #2
 8001fd4:	9300      	str	r3, [sp, #0]
 8001fd6:	4613      	mov	r3, r2
 8001fd8:	2201      	movs	r2, #1
 8001fda:	2186      	movs	r1, #134	; 0x86
 8001fdc:	2000      	movs	r0, #0
 8001fde:	f000 fb7f 	bl	80026e0 <Serial_SendPacket>
 8001fe2:	bf00      	nop
 8001fe4:	3710      	adds	r7, #16
 8001fe6:	46bd      	mov	sp, r7
 8001fe8:	bd80      	pop	{r7, pc}

08001fea <TemHumSensor_Init>:
 8001fea:	b580      	push	{r7, lr}
 8001fec:	af00      	add	r7, sp, #0
 8001fee:	f000 f8f7 	bl	80021e0 <i2c_config>
 8001ff2:	bf00      	nop
 8001ff4:	bd80      	pop	{r7, pc}

08001ff6 <TempSensor_SendPacketRespond>:
 8001ff6:	b580      	push	{r7, lr}
 8001ff8:	b086      	sub	sp, #24
 8001ffa:	af02      	add	r7, sp, #8
 8001ffc:	4603      	mov	r3, r0
 8001ffe:	80fb      	strh	r3, [r7, #6]
 8002000:	88fb      	ldrh	r3, [r7, #6]
 8002002:	0a1b      	lsrs	r3, r3, #8
 8002004:	b29b      	uxth	r3, r3
 8002006:	b2db      	uxtb	r3, r3
 8002008:	733b      	strb	r3, [r7, #12]
 800200a:	88fb      	ldrh	r3, [r7, #6]
 800200c:	b2db      	uxtb	r3, r3
 800200e:	737b      	strb	r3, [r7, #13]
 8002010:	f107 020c 	add.w	r2, r7, #12
 8002014:	2302      	movs	r3, #2
 8002016:	9300      	str	r3, [sp, #0]
 8002018:	4613      	mov	r3, r2
 800201a:	2201      	movs	r2, #1
 800201c:	2184      	movs	r1, #132	; 0x84
 800201e:	2000      	movs	r0, #0
 8002020:	f000 fb5e 	bl	80026e0 <Serial_SendPacket>
 8002024:	bf00      	nop
 8002026:	3710      	adds	r7, #16
 8002028:	46bd      	mov	sp, r7
 800202a:	bd80      	pop	{r7, pc}

0800202c <HumiSensor_SendPacketRespond>:
 800202c:	b580      	push	{r7, lr}
 800202e:	b086      	sub	sp, #24
 8002030:	af02      	add	r7, sp, #8
 8002032:	4603      	mov	r3, r0
 8002034:	80fb      	strh	r3, [r7, #6]
 8002036:	88fb      	ldrh	r3, [r7, #6]
 8002038:	0a1b      	lsrs	r3, r3, #8
 800203a:	b29b      	uxth	r3, r3
 800203c:	b2db      	uxtb	r3, r3
 800203e:	733b      	strb	r3, [r7, #12]
 8002040:	88fb      	ldrh	r3, [r7, #6]
 8002042:	b2db      	uxtb	r3, r3
 8002044:	737b      	strb	r3, [r7, #13]
 8002046:	f107 020c 	add.w	r2, r7, #12
 800204a:	2302      	movs	r3, #2
 800204c:	9300      	str	r3, [sp, #0]
 800204e:	4613      	mov	r3, r2
 8002050:	2201      	movs	r2, #1
 8002052:	2185      	movs	r1, #133	; 0x85
 8002054:	2000      	movs	r0, #0
 8002056:	f000 fb43 	bl	80026e0 <Serial_SendPacket>
 800205a:	bf00      	nop
 800205c:	3710      	adds	r7, #16
 800205e:	46bd      	mov	sp, r7
 8002060:	bd80      	pop	{r7, pc}
	...

08002064 <TemHumSensor_GetTemp>:
 8002064:	b580      	push	{r7, lr}
 8002066:	b086      	sub	sp, #24
 8002068:	af02      	add	r7, sp, #8
 800206a:	1d3b      	adds	r3, r7, #4
 800206c:	2100      	movs	r1, #0
 800206e:	460a      	mov	r2, r1
 8002070:	801a      	strh	r2, [r3, #0]
 8002072:	460a      	mov	r2, r1
 8002074:	709a      	strb	r2, [r3, #2]
 8002076:	2300      	movs	r3, #0
 8002078:	73fb      	strb	r3, [r7, #15]
 800207a:	4b17      	ldr	r3, [pc, #92]	; (80020d8 <TemHumSensor_GetTemp+0x74>)
 800207c:	881b      	ldrh	r3, [r3, #0]
 800207e:	803b      	strh	r3, [r7, #0]
 8002080:	4b16      	ldr	r3, [pc, #88]	; (80020dc <TemHumSensor_GetTemp+0x78>)
 8002082:	781b      	ldrb	r3, [r3, #0]
 8002084:	b29b      	uxth	r3, r3
 8002086:	1d3a      	adds	r2, r7, #4
 8002088:	4639      	mov	r1, r7
 800208a:	9300      	str	r3, [sp, #0]
 800208c:	2303      	movs	r3, #3
 800208e:	2040      	movs	r0, #64	; 0x40
 8002090:	f000 f8f0 	bl	8002274 <i2c_read_reg_expand>
 8002094:	1d3b      	adds	r3, r7, #4
 8002096:	2102      	movs	r1, #2
 8002098:	4618      	mov	r0, r3
 800209a:	f000 f85d 	bl	8002158 <CalculateCRC8>
 800209e:	4603      	mov	r3, r0
 80020a0:	73fb      	strb	r3, [r7, #15]
 80020a2:	79bb      	ldrb	r3, [r7, #6]
 80020a4:	7bfa      	ldrb	r2, [r7, #15]
 80020a6:	429a      	cmp	r2, r3
 80020a8:	d001      	beq.n	80020ae <TemHumSensor_GetTemp+0x4a>
 80020aa:	2300      	movs	r3, #0
 80020ac:	e00f      	b.n	80020ce <TemHumSensor_GetTemp+0x6a>
 80020ae:	793b      	ldrb	r3, [r7, #4]
 80020b0:	021b      	lsls	r3, r3, #8
 80020b2:	797a      	ldrb	r2, [r7, #5]
 80020b4:	4413      	add	r3, r2
 80020b6:	60bb      	str	r3, [r7, #8]
 80020b8:	68bb      	ldr	r3, [r7, #8]
 80020ba:	f244 42a4 	movw	r2, #17572	; 0x44a4
 80020be:	fb02 f303 	mul.w	r3, r2, r3
 80020c2:	0c1b      	lsrs	r3, r3, #16
 80020c4:	f5a3 5392 	sub.w	r3, r3, #4672	; 0x1240
 80020c8:	3b0d      	subs	r3, #13
 80020ca:	60bb      	str	r3, [r7, #8]
 80020cc:	68bb      	ldr	r3, [r7, #8]
 80020ce:	4618      	mov	r0, r3
 80020d0:	3710      	adds	r7, #16
 80020d2:	46bd      	mov	sp, r7
 80020d4:	bd80      	pop	{r7, pc}
 80020d6:	bf00      	nop
 80020d8:	08007984 	.word	0x08007984
 80020dc:	20000025 	.word	0x20000025

080020e0 <TemHumSensor_GetHumi>:
 80020e0:	b580      	push	{r7, lr}
 80020e2:	b086      	sub	sp, #24
 80020e4:	af02      	add	r7, sp, #8
 80020e6:	1d3b      	adds	r3, r7, #4
 80020e8:	2100      	movs	r1, #0
 80020ea:	460a      	mov	r2, r1
 80020ec:	801a      	strh	r2, [r3, #0]
 80020ee:	460a      	mov	r2, r1
 80020f0:	709a      	strb	r2, [r3, #2]
 80020f2:	2300      	movs	r3, #0
 80020f4:	73fb      	strb	r3, [r7, #15]
 80020f6:	4b16      	ldr	r3, [pc, #88]	; (8002150 <TemHumSensor_GetHumi+0x70>)
 80020f8:	881b      	ldrh	r3, [r3, #0]
 80020fa:	803b      	strh	r3, [r7, #0]
 80020fc:	4b15      	ldr	r3, [pc, #84]	; (8002154 <TemHumSensor_GetHumi+0x74>)
 80020fe:	781b      	ldrb	r3, [r3, #0]
 8002100:	b29b      	uxth	r3, r3
 8002102:	1d3a      	adds	r2, r7, #4
 8002104:	4639      	mov	r1, r7
 8002106:	9300      	str	r3, [sp, #0]
 8002108:	2303      	movs	r3, #3
 800210a:	2040      	movs	r0, #64	; 0x40
 800210c:	f000 f8b2 	bl	8002274 <i2c_read_reg_expand>
 8002110:	1d3b      	adds	r3, r7, #4
 8002112:	2102      	movs	r1, #2
 8002114:	4618      	mov	r0, r3
 8002116:	f000 f81f 	bl	8002158 <CalculateCRC8>
 800211a:	4603      	mov	r3, r0
 800211c:	73fb      	strb	r3, [r7, #15]
 800211e:	79bb      	ldrb	r3, [r7, #6]
 8002120:	7bfa      	ldrb	r2, [r7, #15]
 8002122:	429a      	cmp	r2, r3
 8002124:	d001      	beq.n	800212a <TemHumSensor_GetHumi+0x4a>
 8002126:	2300      	movs	r3, #0
 8002128:	e00e      	b.n	8002148 <TemHumSensor_GetHumi+0x68>
 800212a:	793b      	ldrb	r3, [r7, #4]
 800212c:	021b      	lsls	r3, r3, #8
 800212e:	797a      	ldrb	r2, [r7, #5]
 8002130:	4413      	add	r3, r2
 8002132:	60bb      	str	r3, [r7, #8]
 8002134:	68bb      	ldr	r3, [r7, #8]
 8002136:	f243 02d4 	movw	r2, #12500	; 0x30d4
 800213a:	fb02 f303 	mul.w	r3, r2, r3
 800213e:	0c1b      	lsrs	r3, r3, #16
 8002140:	f5a3 7316 	sub.w	r3, r3, #600	; 0x258
 8002144:	60bb      	str	r3, [r7, #8]
 8002146:	68bb      	ldr	r3, [r7, #8]
 8002148:	4618      	mov	r0, r3
 800214a:	3710      	adds	r7, #16
 800214c:	46bd      	mov	sp, r7
 800214e:	bd80      	pop	{r7, pc}
 8002150:	08007988 	.word	0x08007988
 8002154:	20000026 	.word	0x20000026

08002158 <CalculateCRC8>:
 8002158:	b480      	push	{r7}
 800215a:	b085      	sub	sp, #20
 800215c:	af00      	add	r7, sp, #0
 800215e:	6078      	str	r0, [r7, #4]
 8002160:	460b      	mov	r3, r1
 8002162:	70fb      	strb	r3, [r7, #3]
 8002164:	2300      	movs	r3, #0
 8002166:	73bb      	strb	r3, [r7, #14]
 8002168:	2300      	movs	r3, #0
 800216a:	81bb      	strh	r3, [r7, #12]
 800216c:	687b      	ldr	r3, [r7, #4]
 800216e:	60bb      	str	r3, [r7, #8]
 8002170:	2300      	movs	r3, #0
 8002172:	73bb      	strb	r3, [r7, #14]
 8002174:	e025      	b.n	80021c2 <CalculateCRC8+0x6a>
 8002176:	68bb      	ldr	r3, [r7, #8]
 8002178:	781b      	ldrb	r3, [r3, #0]
 800217a:	021b      	lsls	r3, r3, #8
 800217c:	b21a      	sxth	r2, r3
 800217e:	f9b7 300c 	ldrsh.w	r3, [r7, #12]
 8002182:	4053      	eors	r3, r2
 8002184:	b21b      	sxth	r3, r3
 8002186:	81bb      	strh	r3, [r7, #12]
 8002188:	2300      	movs	r3, #0
 800218a:	73fb      	strb	r3, [r7, #15]
 800218c:	e010      	b.n	80021b0 <CalculateCRC8+0x58>
 800218e:	f9b7 300c 	ldrsh.w	r3, [r7, #12]
 8002192:	2b00      	cmp	r3, #0
 8002194:	da06      	bge.n	80021a4 <CalculateCRC8+0x4c>
 8002196:	89bb      	ldrh	r3, [r7, #12]
 8002198:	f483 43ce 	eor.w	r3, r3, #26368	; 0x6700
 800219c:	f083 037f 	eor.w	r3, r3, #127	; 0x7f
 80021a0:	43db      	mvns	r3, r3
 80021a2:	81bb      	strh	r3, [r7, #12]
 80021a4:	89bb      	ldrh	r3, [r7, #12]
 80021a6:	005b      	lsls	r3, r3, #1
 80021a8:	81bb      	strh	r3, [r7, #12]
 80021aa:	7bfb      	ldrb	r3, [r7, #15]
 80021ac:	3301      	adds	r3, #1
 80021ae:	73fb      	strb	r3, [r7, #15]
 80021b0:	7bfb      	ldrb	r3, [r7, #15]
 80021b2:	2b07      	cmp	r3, #7
 80021b4:	d9eb      	bls.n	800218e <CalculateCRC8+0x36>
 80021b6:	7bbb      	ldrb	r3, [r7, #14]
 80021b8:	3301      	adds	r3, #1
 80021ba:	73bb      	strb	r3, [r7, #14]
 80021bc:	68bb      	ldr	r3, [r7, #8]
 80021be:	3301      	adds	r3, #1
 80021c0:	60bb      	str	r3, [r7, #8]
 80021c2:	7bba      	ldrb	r2, [r7, #14]
 80021c4:	78fb      	ldrb	r3, [r7, #3]
 80021c6:	429a      	cmp	r2, r3
 80021c8:	d3d5      	bcc.n	8002176 <CalculateCRC8+0x1e>
 80021ca:	89bb      	ldrh	r3, [r7, #12]
 80021cc:	0a1b      	lsrs	r3, r3, #8
 80021ce:	b29b      	uxth	r3, r3
 80021d0:	b2db      	uxtb	r3, r3
 80021d2:	4618      	mov	r0, r3
 80021d4:	3714      	adds	r7, #20
 80021d6:	46bd      	mov	sp, r7
 80021d8:	f85d 7b04 	ldr.w	r7, [sp], #4
 80021dc:	4770      	bx	lr
	...

080021e0 <i2c_config>:
 80021e0:	b580      	push	{r7, lr}
 80021e2:	b086      	sub	sp, #24
 80021e4:	af00      	add	r7, sp, #0
 80021e6:	2101      	movs	r1, #1
 80021e8:	f44f 1000 	mov.w	r0, #2097152	; 0x200000
 80021ec:	f003 fafa 	bl	80057e4 <RCC_APB1PeriphClockCmd>
 80021f0:	4b1d      	ldr	r3, [pc, #116]	; (8002268 <i2c_config+0x88>)
 80021f2:	60bb      	str	r3, [r7, #8]
 80021f4:	2300      	movs	r3, #0
 80021f6:	81bb      	strh	r3, [r7, #12]
 80021f8:	f64b 73ff 	movw	r3, #49151	; 0xbfff
 80021fc:	81fb      	strh	r3, [r7, #14]
 80021fe:	2300      	movs	r3, #0
 8002200:	823b      	strh	r3, [r7, #16]
 8002202:	f44f 6380 	mov.w	r3, #1024	; 0x400
 8002206:	827b      	strh	r3, [r7, #18]
 8002208:	f44f 4380 	mov.w	r3, #16384	; 0x4000
 800220c:	82bb      	strh	r3, [r7, #20]
 800220e:	f107 0308 	add.w	r3, r7, #8
 8002212:	4619      	mov	r1, r3
 8002214:	4815      	ldr	r0, [pc, #84]	; (800226c <i2c_config+0x8c>)
 8002216:	f003 f83b 	bl	8005290 <I2C_Init>
 800221a:	2101      	movs	r1, #1
 800221c:	4813      	ldr	r0, [pc, #76]	; (800226c <i2c_config+0x8c>)
 800221e:	f003 f8f9 	bl	8005414 <I2C_Cmd>
 8002222:	2101      	movs	r1, #1
 8002224:	2002      	movs	r0, #2
 8002226:	f003 fabd 	bl	80057a4 <RCC_AHB1PeriphClockCmd>
 800222a:	f44f 7340 	mov.w	r3, #768	; 0x300
 800222e:	603b      	str	r3, [r7, #0]
 8002230:	2302      	movs	r3, #2
 8002232:	713b      	strb	r3, [r7, #4]
 8002234:	2302      	movs	r3, #2
 8002236:	717b      	strb	r3, [r7, #5]
 8002238:	2301      	movs	r3, #1
 800223a:	71bb      	strb	r3, [r7, #6]
 800223c:	2300      	movs	r3, #0
 800223e:	71fb      	strb	r3, [r7, #7]
 8002240:	463b      	mov	r3, r7
 8002242:	4619      	mov	r1, r3
 8002244:	480a      	ldr	r0, [pc, #40]	; (8002270 <i2c_config+0x90>)
 8002246:	f002 fefb 	bl	8005040 <GPIO_Init>
 800224a:	2204      	movs	r2, #4
 800224c:	2108      	movs	r1, #8
 800224e:	4808      	ldr	r0, [pc, #32]	; (8002270 <i2c_config+0x90>)
 8002250:	f002 ffd4 	bl	80051fc <GPIO_PinAFConfig>
 8002254:	2204      	movs	r2, #4
 8002256:	2109      	movs	r1, #9
 8002258:	4805      	ldr	r0, [pc, #20]	; (8002270 <i2c_config+0x90>)
 800225a:	f002 ffcf 	bl	80051fc <GPIO_PinAFConfig>
 800225e:	bf00      	nop
 8002260:	3718      	adds	r7, #24
 8002262:	46bd      	mov	sp, r7
 8002264:	bd80      	pop	{r7, pc}
 8002266:	bf00      	nop
 8002268:	00061a80 	.word	0x00061a80
 800226c:	40005400 	.word	0x40005400
 8002270:	40020400 	.word	0x40020400

08002274 <i2c_read_reg_expand>:
 8002274:	b590      	push	{r4, r7, lr}
 8002276:	b087      	sub	sp, #28
 8002278:	af00      	add	r7, sp, #0
 800227a:	60b9      	str	r1, [r7, #8]
 800227c:	607a      	str	r2, [r7, #4]
 800227e:	461a      	mov	r2, r3
 8002280:	4603      	mov	r3, r0
 8002282:	73fb      	strb	r3, [r7, #15]
 8002284:	4613      	mov	r3, r2
 8002286:	73bb      	strb	r3, [r7, #14]
 8002288:	68bb      	ldr	r3, [r7, #8]
 800228a:	781b      	ldrb	r3, [r3, #0]
 800228c:	757b      	strb	r3, [r7, #21]
 800228e:	f000 f847 	bl	8002320 <i2c_start>
 8002292:	7bfb      	ldrb	r3, [r7, #15]
 8002294:	005b      	lsls	r3, r3, #1
 8002296:	b2db      	uxtb	r3, r3
 8002298:	2100      	movs	r1, #0
 800229a:	4618      	mov	r0, r3
 800229c:	f000 f868 	bl	8002370 <i2c_address_direction>
 80022a0:	2301      	movs	r3, #1
 80022a2:	75fb      	strb	r3, [r7, #23]
 80022a4:	e009      	b.n	80022ba <i2c_read_reg_expand+0x46>
 80022a6:	7dfb      	ldrb	r3, [r7, #23]
 80022a8:	68ba      	ldr	r2, [r7, #8]
 80022aa:	4413      	add	r3, r2
 80022ac:	781b      	ldrb	r3, [r3, #0]
 80022ae:	4618      	mov	r0, r3
 80022b0:	f000 f88e 	bl	80023d0 <i2c_transmit>
 80022b4:	7dfb      	ldrb	r3, [r7, #23]
 80022b6:	3301      	adds	r3, #1
 80022b8:	75fb      	strb	r3, [r7, #23]
 80022ba:	7dfa      	ldrb	r2, [r7, #23]
 80022bc:	7d7b      	ldrb	r3, [r7, #21]
 80022be:	429a      	cmp	r2, r3
 80022c0:	d3f1      	bcc.n	80022a6 <i2c_read_reg_expand+0x32>
 80022c2:	f000 f84b 	bl	800235c <i2c_stop>
 80022c6:	f000 f82b 	bl	8002320 <i2c_start>
 80022ca:	7bfb      	ldrb	r3, [r7, #15]
 80022cc:	005b      	lsls	r3, r3, #1
 80022ce:	b2db      	uxtb	r3, r3
 80022d0:	2101      	movs	r1, #1
 80022d2:	4618      	mov	r0, r3
 80022d4:	f000 f84c 	bl	8002370 <i2c_address_direction>
 80022d8:	2300      	movs	r3, #0
 80022da:	75bb      	strb	r3, [r7, #22]
 80022dc:	e016      	b.n	800230c <i2c_read_reg_expand+0x98>
 80022de:	7dba      	ldrb	r2, [r7, #22]
 80022e0:	7bbb      	ldrb	r3, [r7, #14]
 80022e2:	3b01      	subs	r3, #1
 80022e4:	429a      	cmp	r2, r3
 80022e6:	d107      	bne.n	80022f8 <i2c_read_reg_expand+0x84>
 80022e8:	7dbb      	ldrb	r3, [r7, #22]
 80022ea:	687a      	ldr	r2, [r7, #4]
 80022ec:	18d4      	adds	r4, r2, r3
 80022ee:	f000 f8a1 	bl	8002434 <i2c_receive_nack>
 80022f2:	4603      	mov	r3, r0
 80022f4:	7023      	strb	r3, [r4, #0]
 80022f6:	e006      	b.n	8002306 <i2c_read_reg_expand+0x92>
 80022f8:	7dbb      	ldrb	r3, [r7, #22]
 80022fa:	687a      	ldr	r2, [r7, #4]
 80022fc:	18d4      	adds	r4, r2, r3
 80022fe:	f000 f881 	bl	8002404 <i2c_receive_ack>
 8002302:	4603      	mov	r3, r0
 8002304:	7023      	strb	r3, [r4, #0]
 8002306:	7dbb      	ldrb	r3, [r7, #22]
 8002308:	3301      	adds	r3, #1
 800230a:	75bb      	strb	r3, [r7, #22]
 800230c:	7dba      	ldrb	r2, [r7, #22]
 800230e:	7bbb      	ldrb	r3, [r7, #14]
 8002310:	429a      	cmp	r2, r3
 8002312:	d3e4      	bcc.n	80022de <i2c_read_reg_expand+0x6a>
 8002314:	f000 f822 	bl	800235c <i2c_stop>
 8002318:	bf00      	nop
 800231a:	371c      	adds	r7, #28
 800231c:	46bd      	mov	sp, r7
 800231e:	bd90      	pop	{r4, r7, pc}

08002320 <i2c_start>:
 8002320:	b580      	push	{r7, lr}
 8002322:	af00      	add	r7, sp, #0
 8002324:	bf00      	nop
 8002326:	f44f 3100 	mov.w	r1, #131072	; 0x20000
 800232a:	480a      	ldr	r0, [pc, #40]	; (8002354 <i2c_start+0x34>)
 800232c:	f003 f95e 	bl	80055ec <I2C_GetFlagStatus>
 8002330:	4603      	mov	r3, r0
 8002332:	2b00      	cmp	r3, #0
 8002334:	d1f7      	bne.n	8002326 <i2c_start+0x6>
 8002336:	2101      	movs	r1, #1
 8002338:	4806      	ldr	r0, [pc, #24]	; (8002354 <i2c_start+0x34>)
 800233a:	f003 f88b 	bl	8005454 <I2C_GenerateSTART>
 800233e:	bf00      	nop
 8002340:	4905      	ldr	r1, [pc, #20]	; (8002358 <i2c_start+0x38>)
 8002342:	4804      	ldr	r0, [pc, #16]	; (8002354 <i2c_start+0x34>)
 8002344:	f003 f922 	bl	800558c <I2C_CheckEvent>
 8002348:	4603      	mov	r3, r0
 800234a:	2b00      	cmp	r3, #0
 800234c:	d0f8      	beq.n	8002340 <i2c_start+0x20>
 800234e:	bf00      	nop
 8002350:	bd80      	pop	{r7, pc}
 8002352:	bf00      	nop
 8002354:	40005400 	.word	0x40005400
 8002358:	00030001 	.word	0x00030001

0800235c <i2c_stop>:
 800235c:	b580      	push	{r7, lr}
 800235e:	af00      	add	r7, sp, #0
 8002360:	2101      	movs	r1, #1
 8002362:	4802      	ldr	r0, [pc, #8]	; (800236c <i2c_stop+0x10>)
 8002364:	f003 f896 	bl	8005494 <I2C_GenerateSTOP>
 8002368:	bf00      	nop
 800236a:	bd80      	pop	{r7, pc}
 800236c:	40005400 	.word	0x40005400

08002370 <i2c_address_direction>:
 8002370:	b580      	push	{r7, lr}
 8002372:	b082      	sub	sp, #8
 8002374:	af00      	add	r7, sp, #0
 8002376:	4603      	mov	r3, r0
 8002378:	460a      	mov	r2, r1
 800237a:	71fb      	strb	r3, [r7, #7]
 800237c:	4613      	mov	r3, r2
 800237e:	71bb      	strb	r3, [r7, #6]
 8002380:	79ba      	ldrb	r2, [r7, #6]
 8002382:	79fb      	ldrb	r3, [r7, #7]
 8002384:	4619      	mov	r1, r3
 8002386:	480f      	ldr	r0, [pc, #60]	; (80023c4 <i2c_address_direction+0x54>)
 8002388:	f003 f8a4 	bl	80054d4 <I2C_Send7bitAddress>
 800238c:	79bb      	ldrb	r3, [r7, #6]
 800238e:	2b00      	cmp	r3, #0
 8002390:	d108      	bne.n	80023a4 <i2c_address_direction+0x34>
 8002392:	bf00      	nop
 8002394:	490c      	ldr	r1, [pc, #48]	; (80023c8 <i2c_address_direction+0x58>)
 8002396:	480b      	ldr	r0, [pc, #44]	; (80023c4 <i2c_address_direction+0x54>)
 8002398:	f003 f8f8 	bl	800558c <I2C_CheckEvent>
 800239c:	4603      	mov	r3, r0
 800239e:	2b00      	cmp	r3, #0
 80023a0:	d0f8      	beq.n	8002394 <i2c_address_direction+0x24>
 80023a2:	e00a      	b.n	80023ba <i2c_address_direction+0x4a>
 80023a4:	79bb      	ldrb	r3, [r7, #6]
 80023a6:	2b01      	cmp	r3, #1
 80023a8:	d107      	bne.n	80023ba <i2c_address_direction+0x4a>
 80023aa:	bf00      	nop
 80023ac:	4907      	ldr	r1, [pc, #28]	; (80023cc <i2c_address_direction+0x5c>)
 80023ae:	4805      	ldr	r0, [pc, #20]	; (80023c4 <i2c_address_direction+0x54>)
 80023b0:	f003 f8ec 	bl	800558c <I2C_CheckEvent>
 80023b4:	4603      	mov	r3, r0
 80023b6:	2b00      	cmp	r3, #0
 80023b8:	d0f8      	beq.n	80023ac <i2c_address_direction+0x3c>
 80023ba:	bf00      	nop
 80023bc:	3708      	adds	r7, #8
 80023be:	46bd      	mov	sp, r7
 80023c0:	bd80      	pop	{r7, pc}
 80023c2:	bf00      	nop
 80023c4:	40005400 	.word	0x40005400
 80023c8:	00070082 	.word	0x00070082
 80023cc:	00030002 	.word	0x00030002

080023d0 <i2c_transmit>:
 80023d0:	b580      	push	{r7, lr}
 80023d2:	b082      	sub	sp, #8
 80023d4:	af00      	add	r7, sp, #0
 80023d6:	4603      	mov	r3, r0
 80023d8:	71fb      	strb	r3, [r7, #7]
 80023da:	79fb      	ldrb	r3, [r7, #7]
 80023dc:	4619      	mov	r1, r3
 80023de:	4807      	ldr	r0, [pc, #28]	; (80023fc <i2c_transmit+0x2c>)
 80023e0:	f003 f8b6 	bl	8005550 <I2C_SendData>
 80023e4:	bf00      	nop
 80023e6:	4906      	ldr	r1, [pc, #24]	; (8002400 <i2c_transmit+0x30>)
 80023e8:	4804      	ldr	r0, [pc, #16]	; (80023fc <i2c_transmit+0x2c>)
 80023ea:	f003 f8cf 	bl	800558c <I2C_CheckEvent>
 80023ee:	4603      	mov	r3, r0
 80023f0:	2b00      	cmp	r3, #0
 80023f2:	d0f8      	beq.n	80023e6 <i2c_transmit+0x16>
 80023f4:	bf00      	nop
 80023f6:	3708      	adds	r7, #8
 80023f8:	46bd      	mov	sp, r7
 80023fa:	bd80      	pop	{r7, pc}
 80023fc:	40005400 	.word	0x40005400
 8002400:	00070084 	.word	0x00070084

08002404 <i2c_receive_ack>:
 8002404:	b580      	push	{r7, lr}
 8002406:	af00      	add	r7, sp, #0
 8002408:	2101      	movs	r1, #1
 800240a:	4808      	ldr	r0, [pc, #32]	; (800242c <i2c_receive_ack+0x28>)
 800240c:	f003 f880 	bl	8005510 <I2C_AcknowledgeConfig>
 8002410:	bf00      	nop
 8002412:	4907      	ldr	r1, [pc, #28]	; (8002430 <i2c_receive_ack+0x2c>)
 8002414:	4805      	ldr	r0, [pc, #20]	; (800242c <i2c_receive_ack+0x28>)
 8002416:	f003 f8b9 	bl	800558c <I2C_CheckEvent>
 800241a:	4603      	mov	r3, r0
 800241c:	2b00      	cmp	r3, #0
 800241e:	d0f8      	beq.n	8002412 <i2c_receive_ack+0xe>
 8002420:	4802      	ldr	r0, [pc, #8]	; (800242c <i2c_receive_ack+0x28>)
 8002422:	f003 f8a5 	bl	8005570 <I2C_ReceiveData>
 8002426:	4603      	mov	r3, r0
 8002428:	4618      	mov	r0, r3
 800242a:	bd80      	pop	{r7, pc}
 800242c:	40005400 	.word	0x40005400
 8002430:	00030040 	.word	0x00030040

08002434 <i2c_receive_nack>:
 8002434:	b580      	push	{r7, lr}
 8002436:	af00      	add	r7, sp, #0
 8002438:	2100      	movs	r1, #0
 800243a:	4808      	ldr	r0, [pc, #32]	; (800245c <i2c_receive_nack+0x28>)
 800243c:	f003 f868 	bl	8005510 <I2C_AcknowledgeConfig>
 8002440:	bf00      	nop
 8002442:	4907      	ldr	r1, [pc, #28]	; (8002460 <i2c_receive_nack+0x2c>)
 8002444:	4805      	ldr	r0, [pc, #20]	; (800245c <i2c_receive_nack+0x28>)
 8002446:	f003 f8a1 	bl	800558c <I2C_CheckEvent>
 800244a:	4603      	mov	r3, r0
 800244c:	2b00      	cmp	r3, #0
 800244e:	d0f8      	beq.n	8002442 <i2c_receive_nack+0xe>
 8002450:	4802      	ldr	r0, [pc, #8]	; (800245c <i2c_receive_nack+0x28>)
 8002452:	f003 f88d 	bl	8005570 <I2C_ReceiveData>
 8002456:	4603      	mov	r3, r0
 8002458:	4618      	mov	r0, r3
 800245a:	bd80      	pop	{r7, pc}
 800245c:	40005400 	.word	0x40005400
 8002460:	00030040 	.word	0x00030040

08002464 <TimerGetCurrentTime>:
 8002464:	b580      	push	{r7, lr}
 8002466:	b082      	sub	sp, #8
 8002468:	af00      	add	r7, sp, #0
 800246a:	6078      	str	r0, [r7, #4]
 800246c:	f7ff fbee 	bl	8001c4c <GetMilSecTick>
 8002470:	4602      	mov	r2, r0
 8002472:	687b      	ldr	r3, [r7, #4]
 8002474:	601a      	str	r2, [r3, #0]
 8002476:	bf00      	nop
 8002478:	3708      	adds	r7, #8
 800247a:	46bd      	mov	sp, r7
 800247c:	bd80      	pop	{r7, pc}

0800247e <TimerGetElapsedTime>:
 800247e:	b580      	push	{r7, lr}
 8002480:	b082      	sub	sp, #8
 8002482:	af00      	add	r7, sp, #0
 8002484:	6078      	str	r0, [r7, #4]
 8002486:	f7ff fbe1 	bl	8001c4c <GetMilSecTick>
 800248a:	4602      	mov	r2, r0
 800248c:	687b      	ldr	r3, [r7, #4]
 800248e:	1ad3      	subs	r3, r2, r3
 8002490:	4618      	mov	r0, r3
 8002492:	3708      	adds	r7, #8
 8002494:	46bd      	mov	sp, r7
 8002496:	bd80      	pop	{r7, pc}

08002498 <Serial_Init>:
 8002498:	b580      	push	{r7, lr}
 800249a:	af00      	add	r7, sp, #0
 800249c:	f44f 7380 	mov.w	r3, #256	; 0x100
 80024a0:	2201      	movs	r2, #1
 80024a2:	490a      	ldr	r1, [pc, #40]	; (80024cc <Serial_Init+0x34>)
 80024a4:	480a      	ldr	r0, [pc, #40]	; (80024d0 <Serial_Init+0x38>)
 80024a6:	f002 f8cd 	bl	8004644 <bufInit>
 80024aa:	4908      	ldr	r1, [pc, #32]	; (80024cc <Serial_Init+0x34>)
 80024ac:	2000      	movs	r0, #0
 80024ae:	f000 f9fd 	bl	80028ac <UART_RegBufferRx>
 80024b2:	2300      	movs	r3, #0
 80024b4:	2200      	movs	r2, #0
 80024b6:	f44f 4161 	mov.w	r1, #57600	; 0xe100
 80024ba:	2000      	movs	r0, #0
 80024bc:	f000 fa0a 	bl	80028d4 <UART_Init>
 80024c0:	4b04      	ldr	r3, [pc, #16]	; (80024d4 <Serial_Init+0x3c>)
 80024c2:	2200      	movs	r2, #0
 80024c4:	701a      	strb	r2, [r3, #0]
 80024c6:	bf00      	nop
 80024c8:	bd80      	pop	{r7, pc}
 80024ca:	bf00      	nop
 80024cc:	200004d0 	.word	0x200004d0
 80024d0:	200004e0 	.word	0x200004e0
 80024d4:	200004a2 	.word	0x200004a2

080024d8 <SerialHandleEventCallback>:
 80024d8:	b480      	push	{r7}
 80024da:	b083      	sub	sp, #12
 80024dc:	af00      	add	r7, sp, #0
 80024de:	6078      	str	r0, [r7, #4]
 80024e0:	4a04      	ldr	r2, [pc, #16]	; (80024f4 <SerialHandleEventCallback+0x1c>)
 80024e2:	687b      	ldr	r3, [r7, #4]
 80024e4:	6013      	str	r3, [r2, #0]
 80024e6:	bf00      	nop
 80024e8:	370c      	adds	r7, #12
 80024ea:	46bd      	mov	sp, r7
 80024ec:	f85d 7b04 	ldr.w	r7, [sp], #4
 80024f0:	4770      	bx	lr
 80024f2:	bf00      	nop
 80024f4:	200005e8 	.word	0x200005e8

080024f8 <PollRxBuff>:
 80024f8:	b580      	push	{r7, lr}
 80024fa:	b082      	sub	sp, #8
 80024fc:	af00      	add	r7, sp, #0
 80024fe:	2300      	movs	r3, #0
 8002500:	71fb      	strb	r3, [r7, #7]
 8002502:	e070      	b.n	80025e6 <PollRxBuff+0xee>
 8002504:	1dbb      	adds	r3, r7, #6
 8002506:	4619      	mov	r1, r3
 8002508:	4849      	ldr	r0, [pc, #292]	; (8002630 <PollRxBuff+0x138>)
 800250a:	f002 f94f 	bl	80047ac <bufDeDat>
 800250e:	4b49      	ldr	r3, [pc, #292]	; (8002634 <PollRxBuff+0x13c>)
 8002510:	781b      	ldrb	r3, [r3, #0]
 8002512:	2b01      	cmp	r3, #1
 8002514:	d028      	beq.n	8002568 <PollRxBuff+0x70>
 8002516:	2b02      	cmp	r3, #2
 8002518:	d054      	beq.n	80025c4 <PollRxBuff+0xcc>
 800251a:	2b00      	cmp	r3, #0
 800251c:	d15f      	bne.n	80025de <PollRxBuff+0xe6>
 800251e:	79bb      	ldrb	r3, [r7, #6]
 8002520:	2bb1      	cmp	r3, #177	; 0xb1
 8002522:	d10f      	bne.n	8002544 <PollRxBuff+0x4c>
 8002524:	4b44      	ldr	r3, [pc, #272]	; (8002638 <PollRxBuff+0x140>)
 8002526:	2200      	movs	r2, #0
 8002528:	701a      	strb	r2, [r3, #0]
 800252a:	4b44      	ldr	r3, [pc, #272]	; (800263c <PollRxBuff+0x144>)
 800252c:	2201      	movs	r2, #1
 800252e:	701a      	strb	r2, [r3, #0]
 8002530:	4b43      	ldr	r3, [pc, #268]	; (8002640 <PollRxBuff+0x148>)
 8002532:	22ff      	movs	r2, #255	; 0xff
 8002534:	701a      	strb	r2, [r3, #0]
 8002536:	4b3f      	ldr	r3, [pc, #252]	; (8002634 <PollRxBuff+0x13c>)
 8002538:	2201      	movs	r2, #1
 800253a:	701a      	strb	r2, [r3, #0]
 800253c:	4841      	ldr	r0, [pc, #260]	; (8002644 <PollRxBuff+0x14c>)
 800253e:	f7ff ff91 	bl	8002464 <TimerGetCurrentTime>
 8002542:	e050      	b.n	80025e6 <PollRxBuff+0xee>
 8002544:	79bb      	ldrb	r3, [r7, #6]
 8002546:	2b06      	cmp	r3, #6
 8002548:	d102      	bne.n	8002550 <PollRxBuff+0x58>
 800254a:	2302      	movs	r3, #2
 800254c:	71fb      	strb	r3, [r7, #7]
 800254e:	e04a      	b.n	80025e6 <PollRxBuff+0xee>
 8002550:	79bb      	ldrb	r3, [r7, #6]
 8002552:	2b15      	cmp	r3, #21
 8002554:	d102      	bne.n	800255c <PollRxBuff+0x64>
 8002556:	2303      	movs	r3, #3
 8002558:	71fb      	strb	r3, [r7, #7]
 800255a:	e044      	b.n	80025e6 <PollRxBuff+0xee>
 800255c:	4b37      	ldr	r3, [pc, #220]	; (800263c <PollRxBuff+0x144>)
 800255e:	2200      	movs	r2, #0
 8002560:	701a      	strb	r2, [r3, #0]
 8002562:	2304      	movs	r3, #4
 8002564:	71fb      	strb	r3, [r7, #7]
 8002566:	e03e      	b.n	80025e6 <PollRxBuff+0xee>
 8002568:	4b33      	ldr	r3, [pc, #204]	; (8002638 <PollRxBuff+0x140>)
 800256a:	781b      	ldrb	r3, [r3, #0]
 800256c:	2b1d      	cmp	r3, #29
 800256e:	d820      	bhi.n	80025b2 <PollRxBuff+0xba>
 8002570:	4b31      	ldr	r3, [pc, #196]	; (8002638 <PollRxBuff+0x140>)
 8002572:	781b      	ldrb	r3, [r3, #0]
 8002574:	461a      	mov	r2, r3
 8002576:	79b9      	ldrb	r1, [r7, #6]
 8002578:	4b33      	ldr	r3, [pc, #204]	; (8002648 <PollRxBuff+0x150>)
 800257a:	5499      	strb	r1, [r3, r2]
 800257c:	4b2e      	ldr	r3, [pc, #184]	; (8002638 <PollRxBuff+0x140>)
 800257e:	781b      	ldrb	r3, [r3, #0]
 8002580:	2b00      	cmp	r3, #0
 8002582:	d006      	beq.n	8002592 <PollRxBuff+0x9a>
 8002584:	4b2e      	ldr	r3, [pc, #184]	; (8002640 <PollRxBuff+0x148>)
 8002586:	781a      	ldrb	r2, [r3, #0]
 8002588:	79bb      	ldrb	r3, [r7, #6]
 800258a:	4053      	eors	r3, r2
 800258c:	b2da      	uxtb	r2, r3
 800258e:	4b2c      	ldr	r3, [pc, #176]	; (8002640 <PollRxBuff+0x148>)
 8002590:	701a      	strb	r2, [r3, #0]
 8002592:	4b29      	ldr	r3, [pc, #164]	; (8002638 <PollRxBuff+0x140>)
 8002594:	781b      	ldrb	r3, [r3, #0]
 8002596:	3301      	adds	r3, #1
 8002598:	b2da      	uxtb	r2, r3
 800259a:	4b27      	ldr	r3, [pc, #156]	; (8002638 <PollRxBuff+0x140>)
 800259c:	701a      	strb	r2, [r3, #0]
 800259e:	4b26      	ldr	r3, [pc, #152]	; (8002638 <PollRxBuff+0x140>)
 80025a0:	781a      	ldrb	r2, [r3, #0]
 80025a2:	4b29      	ldr	r3, [pc, #164]	; (8002648 <PollRxBuff+0x150>)
 80025a4:	781b      	ldrb	r3, [r3, #0]
 80025a6:	429a      	cmp	r2, r3
 80025a8:	d108      	bne.n	80025bc <PollRxBuff+0xc4>
 80025aa:	4b22      	ldr	r3, [pc, #136]	; (8002634 <PollRxBuff+0x13c>)
 80025ac:	2202      	movs	r2, #2
 80025ae:	701a      	strb	r2, [r3, #0]
 80025b0:	e004      	b.n	80025bc <PollRxBuff+0xc4>
 80025b2:	4b20      	ldr	r3, [pc, #128]	; (8002634 <PollRxBuff+0x13c>)
 80025b4:	2200      	movs	r2, #0
 80025b6:	701a      	strb	r2, [r3, #0]
 80025b8:	2304      	movs	r3, #4
 80025ba:	71fb      	strb	r3, [r7, #7]
 80025bc:	4821      	ldr	r0, [pc, #132]	; (8002644 <PollRxBuff+0x14c>)
 80025be:	f7ff ff51 	bl	8002464 <TimerGetCurrentTime>
 80025c2:	e010      	b.n	80025e6 <PollRxBuff+0xee>
 80025c4:	79ba      	ldrb	r2, [r7, #6]
 80025c6:	4b1e      	ldr	r3, [pc, #120]	; (8002640 <PollRxBuff+0x148>)
 80025c8:	781b      	ldrb	r3, [r3, #0]
 80025ca:	429a      	cmp	r2, r3
 80025cc:	d102      	bne.n	80025d4 <PollRxBuff+0xdc>
 80025ce:	2301      	movs	r3, #1
 80025d0:	71fb      	strb	r3, [r7, #7]
 80025d2:	e001      	b.n	80025d8 <PollRxBuff+0xe0>
 80025d4:	2304      	movs	r3, #4
 80025d6:	71fb      	strb	r3, [r7, #7]
 80025d8:	4b18      	ldr	r3, [pc, #96]	; (800263c <PollRxBuff+0x144>)
 80025da:	2200      	movs	r2, #0
 80025dc:	701a      	strb	r2, [r3, #0]
 80025de:	4b15      	ldr	r3, [pc, #84]	; (8002634 <PollRxBuff+0x13c>)
 80025e0:	2200      	movs	r2, #0
 80025e2:	701a      	strb	r2, [r3, #0]
 80025e4:	bf00      	nop
 80025e6:	4812      	ldr	r0, [pc, #72]	; (8002630 <PollRxBuff+0x138>)
 80025e8:	f002 f847 	bl	800467a <bufNumItems>
 80025ec:	4603      	mov	r3, r0
 80025ee:	2b00      	cmp	r3, #0
 80025f0:	d002      	beq.n	80025f8 <PollRxBuff+0x100>
 80025f2:	79fb      	ldrb	r3, [r7, #7]
 80025f4:	2b00      	cmp	r3, #0
 80025f6:	d085      	beq.n	8002504 <PollRxBuff+0xc>
 80025f8:	79fb      	ldrb	r3, [r7, #7]
 80025fa:	2b00      	cmp	r3, #0
 80025fc:	d113      	bne.n	8002626 <PollRxBuff+0x12e>
 80025fe:	4b0f      	ldr	r3, [pc, #60]	; (800263c <PollRxBuff+0x144>)
 8002600:	781b      	ldrb	r3, [r3, #0]
 8002602:	2b00      	cmp	r3, #0
 8002604:	d00f      	beq.n	8002626 <PollRxBuff+0x12e>
 8002606:	4b0f      	ldr	r3, [pc, #60]	; (8002644 <PollRxBuff+0x14c>)
 8002608:	681b      	ldr	r3, [r3, #0]
 800260a:	4618      	mov	r0, r3
 800260c:	f7ff ff37 	bl	800247e <TimerGetElapsedTime>
 8002610:	4603      	mov	r3, r0
 8002612:	2b13      	cmp	r3, #19
 8002614:	d907      	bls.n	8002626 <PollRxBuff+0x12e>
 8002616:	4b09      	ldr	r3, [pc, #36]	; (800263c <PollRxBuff+0x144>)
 8002618:	2200      	movs	r2, #0
 800261a:	701a      	strb	r2, [r3, #0]
 800261c:	4b05      	ldr	r3, [pc, #20]	; (8002634 <PollRxBuff+0x13c>)
 800261e:	2200      	movs	r2, #0
 8002620:	701a      	strb	r2, [r3, #0]
 8002622:	2305      	movs	r3, #5
 8002624:	71fb      	strb	r3, [r7, #7]
 8002626:	79fb      	ldrb	r3, [r7, #7]
 8002628:	4618      	mov	r0, r3
 800262a:	3708      	adds	r7, #8
 800262c:	46bd      	mov	sp, r7
 800262e:	bd80      	pop	{r7, pc}
 8002630:	200004d0 	.word	0x200004d0
 8002634:	200004a2 	.word	0x200004a2
 8002638:	200004a3 	.word	0x200004a3
 800263c:	200004ac 	.word	0x200004ac
 8002640:	200004a4 	.word	0x200004a4
 8002644:	200004a8 	.word	0x200004a8
 8002648:	200004b0 	.word	0x200004b0

0800264c <SendACK>:
 800264c:	b480      	push	{r7}
 800264e:	af00      	add	r7, sp, #0
 8002650:	bf00      	nop
 8002652:	46bd      	mov	sp, r7
 8002654:	f85d 7b04 	ldr.w	r7, [sp], #4
 8002658:	4770      	bx	lr

0800265a <SendNACK>:
 800265a:	b480      	push	{r7}
 800265c:	af00      	add	r7, sp, #0
 800265e:	bf00      	nop
 8002660:	46bd      	mov	sp, r7
 8002662:	f85d 7b04 	ldr.w	r7, [sp], #4
 8002666:	4770      	bx	lr

08002668 <processSerialReceiver>:
 8002668:	b580      	push	{r7, lr}
 800266a:	b082      	sub	sp, #8
 800266c:	af00      	add	r7, sp, #0
 800266e:	f7ff ff43 	bl	80024f8 <PollRxBuff>
 8002672:	4603      	mov	r3, r0
 8002674:	71fb      	strb	r3, [r7, #7]
 8002676:	79fb      	ldrb	r3, [r7, #7]
 8002678:	2b00      	cmp	r3, #0
 800267a:	d023      	beq.n	80026c4 <processSerialReceiver+0x5c>
 800267c:	79fb      	ldrb	r3, [r7, #7]
 800267e:	3b01      	subs	r3, #1
 8002680:	2b04      	cmp	r3, #4
 8002682:	d821      	bhi.n	80026c8 <processSerialReceiver+0x60>
 8002684:	a201      	add	r2, pc, #4	; (adr r2, 800268c <processSerialReceiver+0x24>)
 8002686:	f852 f023 	ldr.w	pc, [r2, r3, lsl #2]
 800268a:	bf00      	nop
 800268c:	080026ad 	.word	0x080026ad
 8002690:	080026a1 	.word	0x080026a1
 8002694:	080026a7 	.word	0x080026a7
 8002698:	080026bf 	.word	0x080026bf
 800269c:	080026bf 	.word	0x080026bf
 80026a0:	f7ff ffd4 	bl	800264c <SendACK>
 80026a4:	e013      	b.n	80026ce <processSerialReceiver+0x66>
 80026a6:	f7ff ffd8 	bl	800265a <SendNACK>
 80026aa:	e010      	b.n	80026ce <processSerialReceiver+0x66>
 80026ac:	4b0a      	ldr	r3, [pc, #40]	; (80026d8 <processSerialReceiver+0x70>)
 80026ae:	681b      	ldr	r3, [r3, #0]
 80026b0:	2b00      	cmp	r3, #0
 80026b2:	d00b      	beq.n	80026cc <processSerialReceiver+0x64>
 80026b4:	4b08      	ldr	r3, [pc, #32]	; (80026d8 <processSerialReceiver+0x70>)
 80026b6:	681b      	ldr	r3, [r3, #0]
 80026b8:	4808      	ldr	r0, [pc, #32]	; (80026dc <processSerialReceiver+0x74>)
 80026ba:	4798      	blx	r3
 80026bc:	e006      	b.n	80026cc <processSerialReceiver+0x64>
 80026be:	f7ff ffcc 	bl	800265a <SendNACK>
 80026c2:	e004      	b.n	80026ce <processSerialReceiver+0x66>
 80026c4:	bf00      	nop
 80026c6:	e002      	b.n	80026ce <processSerialReceiver+0x66>
 80026c8:	bf00      	nop
 80026ca:	e000      	b.n	80026ce <processSerialReceiver+0x66>
 80026cc:	bf00      	nop
 80026ce:	bf00      	nop
 80026d0:	3708      	adds	r7, #8
 80026d2:	46bd      	mov	sp, r7
 80026d4:	bd80      	pop	{r7, pc}
 80026d6:	bf00      	nop
 80026d8:	200005e8 	.word	0x200005e8
 80026dc:	200004b2 	.word	0x200004b2

080026e0 <Serial_SendPacket>:
 80026e0:	b580      	push	{r7, lr}
 80026e2:	b090      	sub	sp, #64	; 0x40
 80026e4:	af00      	add	r7, sp, #0
 80026e6:	603b      	str	r3, [r7, #0]
 80026e8:	4603      	mov	r3, r0
 80026ea:	71fb      	strb	r3, [r7, #7]
 80026ec:	460b      	mov	r3, r1
 80026ee:	71bb      	strb	r3, [r7, #6]
 80026f0:	4613      	mov	r3, r2
 80026f2:	717b      	strb	r3, [r7, #5]
 80026f4:	2300      	movs	r3, #0
 80026f6:	f887 303f 	strb.w	r3, [r7, #63]	; 0x3f
 80026fa:	f897 303f 	ldrb.w	r3, [r7, #63]	; 0x3f
 80026fe:	1c5a      	adds	r2, r3, #1
 8002700:	f887 203f 	strb.w	r2, [r7, #63]	; 0x3f
 8002704:	f107 0240 	add.w	r2, r7, #64	; 0x40
 8002708:	4413      	add	r3, r2
 800270a:	22b1      	movs	r2, #177	; 0xb1
 800270c:	f803 2c38 	strb.w	r2, [r3, #-56]
 8002710:	f897 303f 	ldrb.w	r3, [r7, #63]	; 0x3f
 8002714:	1c5a      	adds	r2, r3, #1
 8002716:	f887 203f 	strb.w	r2, [r7, #63]	; 0x3f
 800271a:	4619      	mov	r1, r3
 800271c:	f897 3048 	ldrb.w	r3, [r7, #72]	; 0x48
 8002720:	3305      	adds	r3, #5
 8002722:	b2da      	uxtb	r2, r3
 8002724:	f107 0340 	add.w	r3, r7, #64	; 0x40
 8002728:	440b      	add	r3, r1
 800272a:	f803 2c38 	strb.w	r2, [r3, #-56]
 800272e:	f897 303f 	ldrb.w	r3, [r7, #63]	; 0x3f
 8002732:	1c5a      	adds	r2, r3, #1
 8002734:	f887 203f 	strb.w	r2, [r7, #63]	; 0x3f
 8002738:	f107 0240 	add.w	r2, r7, #64	; 0x40
 800273c:	4413      	add	r3, r2
 800273e:	79fa      	ldrb	r2, [r7, #7]
 8002740:	f803 2c38 	strb.w	r2, [r3, #-56]
 8002744:	f897 303f 	ldrb.w	r3, [r7, #63]	; 0x3f
 8002748:	1c5a      	adds	r2, r3, #1
 800274a:	f887 203f 	strb.w	r2, [r7, #63]	; 0x3f
 800274e:	f107 0240 	add.w	r2, r7, #64	; 0x40
 8002752:	4413      	add	r3, r2
 8002754:	79ba      	ldrb	r2, [r7, #6]
 8002756:	f803 2c38 	strb.w	r2, [r3, #-56]
 800275a:	f897 303f 	ldrb.w	r3, [r7, #63]	; 0x3f
 800275e:	1c5a      	adds	r2, r3, #1
 8002760:	f887 203f 	strb.w	r2, [r7, #63]	; 0x3f
 8002764:	f107 0240 	add.w	r2, r7, #64	; 0x40
 8002768:	4413      	add	r3, r2
 800276a:	797a      	ldrb	r2, [r7, #5]
 800276c:	f803 2c38 	strb.w	r2, [r3, #-56]
 8002770:	2300      	movs	r3, #0
 8002772:	f887 303e 	strb.w	r3, [r7, #62]	; 0x3e
 8002776:	e013      	b.n	80027a0 <Serial_SendPacket+0xc0>
 8002778:	f897 303e 	ldrb.w	r3, [r7, #62]	; 0x3e
 800277c:	683a      	ldr	r2, [r7, #0]
 800277e:	441a      	add	r2, r3
 8002780:	f897 303f 	ldrb.w	r3, [r7, #63]	; 0x3f
 8002784:	1c59      	adds	r1, r3, #1
 8002786:	f887 103f 	strb.w	r1, [r7, #63]	; 0x3f
 800278a:	7812      	ldrb	r2, [r2, #0]
 800278c:	f107 0140 	add.w	r1, r7, #64	; 0x40
 8002790:	440b      	add	r3, r1
 8002792:	f803 2c38 	strb.w	r2, [r3, #-56]
 8002796:	f897 303e 	ldrb.w	r3, [r7, #62]	; 0x3e
 800279a:	3301      	adds	r3, #1
 800279c:	f887 303e 	strb.w	r3, [r7, #62]	; 0x3e
 80027a0:	f897 203e 	ldrb.w	r2, [r7, #62]	; 0x3e
 80027a4:	f897 3048 	ldrb.w	r3, [r7, #72]	; 0x48
 80027a8:	429a      	cmp	r2, r3
 80027aa:	d3e5      	bcc.n	8002778 <Serial_SendPacket+0x98>
 80027ac:	4b2c      	ldr	r3, [pc, #176]	; (8002860 <Serial_SendPacket+0x180>)
 80027ae:	781b      	ldrb	r3, [r3, #0]
 80027b0:	1c5a      	adds	r2, r3, #1
 80027b2:	b2d1      	uxtb	r1, r2
 80027b4:	4a2a      	ldr	r2, [pc, #168]	; (8002860 <Serial_SendPacket+0x180>)
 80027b6:	7011      	strb	r1, [r2, #0]
 80027b8:	f897 203f 	ldrb.w	r2, [r7, #63]	; 0x3f
 80027bc:	1c51      	adds	r1, r2, #1
 80027be:	f887 103f 	strb.w	r1, [r7, #63]	; 0x3f
 80027c2:	f107 0140 	add.w	r1, r7, #64	; 0x40
 80027c6:	440a      	add	r2, r1
 80027c8:	f802 3c38 	strb.w	r3, [r2, #-56]
 80027cc:	f897 303f 	ldrb.w	r3, [r7, #63]	; 0x3f
 80027d0:	3b02      	subs	r3, #2
 80027d2:	b2da      	uxtb	r2, r3
 80027d4:	f107 0308 	add.w	r3, r7, #8
 80027d8:	3302      	adds	r3, #2
 80027da:	4611      	mov	r1, r2
 80027dc:	4618      	mov	r0, r3
 80027de:	f000 f843 	bl	8002868 <CalculateCheckXOR>
 80027e2:	4603      	mov	r3, r0
 80027e4:	f887 303c 	strb.w	r3, [r7, #60]	; 0x3c
 80027e8:	f897 303f 	ldrb.w	r3, [r7, #63]	; 0x3f
 80027ec:	1c5a      	adds	r2, r3, #1
 80027ee:	f887 203f 	strb.w	r2, [r7, #63]	; 0x3f
 80027f2:	f107 0240 	add.w	r2, r7, #64	; 0x40
 80027f6:	4413      	add	r3, r2
 80027f8:	f897 203c 	ldrb.w	r2, [r7, #60]	; 0x3c
 80027fc:	f803 2c38 	strb.w	r2, [r3, #-56]
 8002800:	2300      	movs	r3, #0
 8002802:	f887 303d 	strb.w	r3, [r7, #61]	; 0x3d
 8002806:	e020      	b.n	800284a <Serial_SendPacket+0x16a>
 8002808:	bf00      	nop
 800280a:	2180      	movs	r1, #128	; 0x80
 800280c:	4815      	ldr	r0, [pc, #84]	; (8002864 <Serial_SendPacket+0x184>)
 800280e:	f003 fc67 	bl	80060e0 <USART_GetFlagStatus>
 8002812:	4603      	mov	r3, r0
 8002814:	2b00      	cmp	r3, #0
 8002816:	d0f8      	beq.n	800280a <Serial_SendPacket+0x12a>
 8002818:	f897 303d 	ldrb.w	r3, [r7, #61]	; 0x3d
 800281c:	f107 0240 	add.w	r2, r7, #64	; 0x40
 8002820:	4413      	add	r3, r2
 8002822:	f813 3c38 	ldrb.w	r3, [r3, #-56]
 8002826:	b29b      	uxth	r3, r3
 8002828:	4619      	mov	r1, r3
 800282a:	480e      	ldr	r0, [pc, #56]	; (8002864 <Serial_SendPacket+0x184>)
 800282c:	f003 fbee 	bl	800600c <USART_SendData>
 8002830:	bf00      	nop
 8002832:	2140      	movs	r1, #64	; 0x40
 8002834:	480b      	ldr	r0, [pc, #44]	; (8002864 <Serial_SendPacket+0x184>)
 8002836:	f003 fc53 	bl	80060e0 <USART_GetFlagStatus>
 800283a:	4603      	mov	r3, r0
 800283c:	2b00      	cmp	r3, #0
 800283e:	d0f8      	beq.n	8002832 <Serial_SendPacket+0x152>
 8002840:	f897 303d 	ldrb.w	r3, [r7, #61]	; 0x3d
 8002844:	3301      	adds	r3, #1
 8002846:	f887 303d 	strb.w	r3, [r7, #61]	; 0x3d
 800284a:	f897 203d 	ldrb.w	r2, [r7, #61]	; 0x3d
 800284e:	f897 303f 	ldrb.w	r3, [r7, #63]	; 0x3f
 8002852:	429a      	cmp	r2, r3
 8002854:	d3d8      	bcc.n	8002808 <Serial_SendPacket+0x128>
 8002856:	bf00      	nop
 8002858:	3740      	adds	r7, #64	; 0x40
 800285a:	46bd      	mov	sp, r7
 800285c:	bd80      	pop	{r7, pc}
 800285e:	bf00      	nop
 8002860:	200005ec 	.word	0x200005ec
 8002864:	40004400 	.word	0x40004400

08002868 <CalculateCheckXOR>:
 8002868:	b480      	push	{r7}
 800286a:	b085      	sub	sp, #20
 800286c:	af00      	add	r7, sp, #0
 800286e:	6078      	str	r0, [r7, #4]
 8002870:	460b      	mov	r3, r1
 8002872:	70fb      	strb	r3, [r7, #3]
 8002874:	23ff      	movs	r3, #255	; 0xff
 8002876:	73fb      	strb	r3, [r7, #15]
 8002878:	2300      	movs	r3, #0
 800287a:	73bb      	strb	r3, [r7, #14]
 800287c:	e00a      	b.n	8002894 <CalculateCheckXOR+0x2c>
 800287e:	687b      	ldr	r3, [r7, #4]
 8002880:	781a      	ldrb	r2, [r3, #0]
 8002882:	7bfb      	ldrb	r3, [r7, #15]
 8002884:	4053      	eors	r3, r2
 8002886:	73fb      	strb	r3, [r7, #15]
 8002888:	687b      	ldr	r3, [r7, #4]
 800288a:	3301      	adds	r3, #1
 800288c:	607b      	str	r3, [r7, #4]
 800288e:	7bbb      	ldrb	r3, [r7, #14]
 8002890:	3301      	adds	r3, #1
 8002892:	73bb      	strb	r3, [r7, #14]
 8002894:	7bba      	ldrb	r2, [r7, #14]
 8002896:	78fb      	ldrb	r3, [r7, #3]
 8002898:	429a      	cmp	r2, r3
 800289a:	d3f0      	bcc.n	800287e <CalculateCheckXOR+0x16>
 800289c:	7bfb      	ldrb	r3, [r7, #15]
 800289e:	4618      	mov	r0, r3
 80028a0:	3714      	adds	r7, #20
 80028a2:	46bd      	mov	sp, r7
 80028a4:	f85d 7b04 	ldr.w	r7, [sp], #4
 80028a8:	4770      	bx	lr
	...

080028ac <UART_RegBufferRx>:
 80028ac:	b480      	push	{r7}
 80028ae:	b083      	sub	sp, #12
 80028b0:	af00      	add	r7, sp, #0
 80028b2:	4603      	mov	r3, r0
 80028b4:	6039      	str	r1, [r7, #0]
 80028b6:	71fb      	strb	r3, [r7, #7]
 80028b8:	79fb      	ldrb	r3, [r7, #7]
 80028ba:	4905      	ldr	r1, [pc, #20]	; (80028d0 <UART_RegBufferRx+0x24>)
 80028bc:	683a      	ldr	r2, [r7, #0]
 80028be:	f841 2023 	str.w	r2, [r1, r3, lsl #2]
 80028c2:	bf00      	nop
 80028c4:	370c      	adds	r7, #12
 80028c6:	46bd      	mov	sp, r7
 80028c8:	f85d 7b04 	ldr.w	r7, [sp], #4
 80028cc:	4770      	bx	lr
 80028ce:	bf00      	nop
 80028d0:	200005e0 	.word	0x200005e0

080028d4 <UART_Init>:
 80028d4:	b580      	push	{r7, lr}
 80028d6:	b08a      	sub	sp, #40	; 0x28
 80028d8:	af00      	add	r7, sp, #0
 80028da:	6039      	str	r1, [r7, #0]
 80028dc:	4611      	mov	r1, r2
 80028de:	461a      	mov	r2, r3
 80028e0:	4603      	mov	r3, r0
 80028e2:	71fb      	strb	r3, [r7, #7]
 80028e4:	460b      	mov	r3, r1
 80028e6:	71bb      	strb	r3, [r7, #6]
 80028e8:	4613      	mov	r3, r2
 80028ea:	717b      	strb	r3, [r7, #5]
 80028ec:	2101      	movs	r1, #1
 80028ee:	2001      	movs	r0, #1
 80028f0:	f002 ff58 	bl	80057a4 <RCC_AHB1PeriphClockCmd>
 80028f4:	2302      	movs	r3, #2
 80028f6:	f887 3024 	strb.w	r3, [r7, #36]	; 0x24
 80028fa:	2303      	movs	r3, #3
 80028fc:	f887 3025 	strb.w	r3, [r7, #37]	; 0x25
 8002900:	2300      	movs	r3, #0
 8002902:	f887 3026 	strb.w	r3, [r7, #38]	; 0x26
 8002906:	2301      	movs	r3, #1
 8002908:	f887 3027 	strb.w	r3, [r7, #39]	; 0x27
 800290c:	2304      	movs	r3, #4
 800290e:	623b      	str	r3, [r7, #32]
 8002910:	f107 0320 	add.w	r3, r7, #32
 8002914:	4619      	mov	r1, r3
 8002916:	4828      	ldr	r0, [pc, #160]	; (80029b8 <UART_Init+0xe4>)
 8002918:	f002 fb92 	bl	8005040 <GPIO_Init>
 800291c:	2308      	movs	r3, #8
 800291e:	623b      	str	r3, [r7, #32]
 8002920:	f107 0320 	add.w	r3, r7, #32
 8002924:	4619      	mov	r1, r3
 8002926:	4824      	ldr	r0, [pc, #144]	; (80029b8 <UART_Init+0xe4>)
 8002928:	f002 fb8a 	bl	8005040 <GPIO_Init>
 800292c:	2207      	movs	r2, #7
 800292e:	2102      	movs	r1, #2
 8002930:	4821      	ldr	r0, [pc, #132]	; (80029b8 <UART_Init+0xe4>)
 8002932:	f002 fc63 	bl	80051fc <GPIO_PinAFConfig>
 8002936:	2207      	movs	r2, #7
 8002938:	2103      	movs	r1, #3
 800293a:	481f      	ldr	r0, [pc, #124]	; (80029b8 <UART_Init+0xe4>)
 800293c:	f002 fc5e 	bl	80051fc <GPIO_PinAFConfig>
 8002940:	2101      	movs	r1, #1
 8002942:	f44f 3000 	mov.w	r0, #131072	; 0x20000
 8002946:	f002 ff4d 	bl	80057e4 <RCC_APB1PeriphClockCmd>
 800294a:	683b      	ldr	r3, [r7, #0]
 800294c:	613b      	str	r3, [r7, #16]
 800294e:	2300      	movs	r3, #0
 8002950:	82bb      	strh	r3, [r7, #20]
 8002952:	2300      	movs	r3, #0
 8002954:	82fb      	strh	r3, [r7, #22]
 8002956:	2300      	movs	r3, #0
 8002958:	833b      	strh	r3, [r7, #24]
 800295a:	2300      	movs	r3, #0
 800295c:	83bb      	strh	r3, [r7, #28]
 800295e:	230c      	movs	r3, #12
 8002960:	837b      	strh	r3, [r7, #26]
 8002962:	f107 0310 	add.w	r3, r7, #16
 8002966:	4619      	mov	r1, r3
 8002968:	4814      	ldr	r0, [pc, #80]	; (80029bc <UART_Init+0xe8>)
 800296a:	f003 fa75 	bl	8005e58 <USART_Init>
 800296e:	2201      	movs	r2, #1
 8002970:	f240 5125 	movw	r1, #1317	; 0x525
 8002974:	4811      	ldr	r0, [pc, #68]	; (80029bc <UART_Init+0xe8>)
 8002976:	f003 fb6b 	bl	8006050 <USART_ITConfig>
 800297a:	2200      	movs	r2, #0
 800297c:	f240 7127 	movw	r1, #1831	; 0x727
 8002980:	480e      	ldr	r0, [pc, #56]	; (80029bc <UART_Init+0xe8>)
 8002982:	f003 fb65 	bl	8006050 <USART_ITConfig>
 8002986:	f44f 60a0 	mov.w	r0, #1280	; 0x500
 800298a:	f001 ff6b 	bl	8004864 <NVIC_PriorityGroupConfig>
 800298e:	2326      	movs	r3, #38	; 0x26
 8002990:	733b      	strb	r3, [r7, #12]
 8002992:	2300      	movs	r3, #0
 8002994:	737b      	strb	r3, [r7, #13]
 8002996:	2300      	movs	r3, #0
 8002998:	73bb      	strb	r3, [r7, #14]
 800299a:	2301      	movs	r3, #1
 800299c:	73fb      	strb	r3, [r7, #15]
 800299e:	f107 030c 	add.w	r3, r7, #12
 80029a2:	4618      	mov	r0, r3
 80029a4:	f001 ff72 	bl	800488c <NVIC_Init>
 80029a8:	2101      	movs	r1, #1
 80029aa:	4804      	ldr	r0, [pc, #16]	; (80029bc <UART_Init+0xe8>)
 80029ac:	f003 fb0e 	bl	8005fcc <USART_Cmd>
 80029b0:	bf00      	nop
 80029b2:	3728      	adds	r7, #40	; 0x28
 80029b4:	46bd      	mov	sp, r7
 80029b6:	bd80      	pop	{r7, pc}
 80029b8:	40020000 	.word	0x40020000
 80029bc:	40004400 	.word	0x40004400

080029c0 <USART2_IRQHandler>:
 80029c0:	b580      	push	{r7, lr}
 80029c2:	b082      	sub	sp, #8
 80029c4:	af00      	add	r7, sp, #0
 80029c6:	b672      	cpsid	i
 80029c8:	f240 5125 	movw	r1, #1317	; 0x525
 80029cc:	480e      	ldr	r0, [pc, #56]	; (8002a08 <USART2_IRQHandler+0x48>)
 80029ce:	f003 fba3 	bl	8006118 <USART_GetITStatus>
 80029d2:	4603      	mov	r3, r0
 80029d4:	2b01      	cmp	r3, #1
 80029d6:	d112      	bne.n	80029fe <USART2_IRQHandler+0x3e>
 80029d8:	4b0c      	ldr	r3, [pc, #48]	; (8002a0c <USART2_IRQHandler+0x4c>)
 80029da:	681b      	ldr	r3, [r3, #0]
 80029dc:	607b      	str	r3, [r7, #4]
 80029de:	480a      	ldr	r0, [pc, #40]	; (8002a08 <USART2_IRQHandler+0x48>)
 80029e0:	f003 fb26 	bl	8006030 <USART_ReceiveData>
 80029e4:	4603      	mov	r3, r0
 80029e6:	b2db      	uxtb	r3, r3
 80029e8:	70fb      	strb	r3, [r7, #3]
 80029ea:	1cfb      	adds	r3, r7, #3
 80029ec:	4619      	mov	r1, r3
 80029ee:	6878      	ldr	r0, [r7, #4]
 80029f0:	f001 fe8e 	bl	8004710 <bufEnDat>
 80029f4:	f240 5125 	movw	r1, #1317	; 0x525
 80029f8:	4803      	ldr	r0, [pc, #12]	; (8002a08 <USART2_IRQHandler+0x48>)
 80029fa:	f003 fbe8 	bl	80061ce <USART_ClearITPendingBit>
 80029fe:	b662      	cpsie	i
 8002a00:	bf00      	nop
 8002a02:	3708      	adds	r7, #8
 8002a04:	46bd      	mov	sp, r7
 8002a06:	bd80      	pop	{r7, pc}
 8002a08:	40004400 	.word	0x40004400
 8002a0c:	200005e0 	.word	0x200005e0

08002a10 <EventSerial_Init>:
 8002a10:	b580      	push	{r7, lr}
 8002a12:	af00      	add	r7, sp, #0
 8002a14:	4803      	ldr	r0, [pc, #12]	; (8002a24 <EventSerial_Init+0x14>)
 8002a16:	f7ff fd5f 	bl	80024d8 <SerialHandleEventCallback>
 8002a1a:	f7ff fd3d 	bl	8002498 <Serial_Init>
 8002a1e:	bf00      	nop
 8002a20:	bd80      	pop	{r7, pc}
 8002a22:	bf00      	nop
 8002a24:	08002aa9 	.word	0x08002aa9

08002a28 <EventSerial_SetEventLedCallback>:
 8002a28:	b480      	push	{r7}
 8002a2a:	b083      	sub	sp, #12
 8002a2c:	af00      	add	r7, sp, #0
 8002a2e:	6078      	str	r0, [r7, #4]
 8002a30:	4a04      	ldr	r2, [pc, #16]	; (8002a44 <EventSerial_SetEventLedCallback+0x1c>)
 8002a32:	687b      	ldr	r3, [r7, #4]
 8002a34:	6013      	str	r3, [r2, #0]
 8002a36:	bf00      	nop
 8002a38:	370c      	adds	r7, #12
 8002a3a:	46bd      	mov	sp, r7
 8002a3c:	f85d 7b04 	ldr.w	r7, [sp], #4
 8002a40:	4770      	bx	lr
 8002a42:	bf00      	nop
 8002a44:	200005f8 	.word	0x200005f8

08002a48 <EventSerial_SetEventButtonCallback>:
 8002a48:	b480      	push	{r7}
 8002a4a:	b083      	sub	sp, #12
 8002a4c:	af00      	add	r7, sp, #0
 8002a4e:	6078      	str	r0, [r7, #4]
 8002a50:	4a04      	ldr	r2, [pc, #16]	; (8002a64 <EventSerial_SetEventButtonCallback+0x1c>)
 8002a52:	687b      	ldr	r3, [r7, #4]
 8002a54:	6013      	str	r3, [r2, #0]
 8002a56:	bf00      	nop
 8002a58:	370c      	adds	r7, #12
 8002a5a:	46bd      	mov	sp, r7
 8002a5c:	f85d 7b04 	ldr.w	r7, [sp], #4
 8002a60:	4770      	bx	lr
 8002a62:	bf00      	nop
 8002a64:	200005f0 	.word	0x200005f0

08002a68 <EventSerial_SetEventBuzzerCallback>:
 8002a68:	b480      	push	{r7}
 8002a6a:	b083      	sub	sp, #12
 8002a6c:	af00      	add	r7, sp, #0
 8002a6e:	6078      	str	r0, [r7, #4]
 8002a70:	4a04      	ldr	r2, [pc, #16]	; (8002a84 <EventSerial_SetEventBuzzerCallback+0x1c>)
 8002a72:	687b      	ldr	r3, [r7, #4]
 8002a74:	6013      	str	r3, [r2, #0]
 8002a76:	bf00      	nop
 8002a78:	370c      	adds	r7, #12
 8002a7a:	46bd      	mov	sp, r7
 8002a7c:	f85d 7b04 	ldr.w	r7, [sp], #4
 8002a80:	4770      	bx	lr
 8002a82:	bf00      	nop
 8002a84:	200005f4 	.word	0x200005f4

08002a88 <EventSerial_SetEventLcdCallback>:
 8002a88:	b480      	push	{r7}
 8002a8a:	b083      	sub	sp, #12
 8002a8c:	af00      	add	r7, sp, #0
 8002a8e:	6078      	str	r0, [r7, #4]
 8002a90:	4a04      	ldr	r2, [pc, #16]	; (8002aa4 <EventSerial_SetEventLcdCallback+0x1c>)
 8002a92:	687b      	ldr	r3, [r7, #4]
 8002a94:	6013      	str	r3, [r2, #0]
 8002a96:	bf00      	nop
 8002a98:	370c      	adds	r7, #12
 8002a9a:	46bd      	mov	sp, r7
 8002a9c:	f85d 7b04 	ldr.w	r7, [sp], #4
 8002aa0:	4770      	bx	lr
 8002aa2:	bf00      	nop
 8002aa4:	200005fc 	.word	0x200005fc

08002aa8 <procUartCmd>:
 8002aa8:	b580      	push	{r7, lr}
 8002aaa:	b084      	sub	sp, #16
 8002aac:	af00      	add	r7, sp, #0
 8002aae:	6078      	str	r0, [r7, #4]
 8002ab0:	687b      	ldr	r3, [r7, #4]
 8002ab2:	60fb      	str	r3, [r7, #12]
 8002ab4:	68fb      	ldr	r3, [r7, #12]
 8002ab6:	781b      	ldrb	r3, [r3, #0]
 8002ab8:	2b04      	cmp	r3, #4
 8002aba:	d00d      	beq.n	8002ad8 <procUartCmd+0x30>
 8002abc:	2b04      	cmp	r3, #4
 8002abe:	dc02      	bgt.n	8002ac6 <procUartCmd+0x1e>
 8002ac0:	2b01      	cmp	r3, #1
 8002ac2:	d005      	beq.n	8002ad0 <procUartCmd+0x28>
 8002ac4:	e014      	b.n	8002af0 <procUartCmd+0x48>
 8002ac6:	2b82      	cmp	r3, #130	; 0x82
 8002ac8:	d00a      	beq.n	8002ae0 <procUartCmd+0x38>
 8002aca:	2b87      	cmp	r3, #135	; 0x87
 8002acc:	d00c      	beq.n	8002ae8 <procUartCmd+0x40>
 8002ace:	e00f      	b.n	8002af0 <procUartCmd+0x48>
 8002ad0:	68f8      	ldr	r0, [r7, #12]
 8002ad2:	f000 f83b 	bl	8002b4c <processUartReceiveCommand_ControlLed>
 8002ad6:	e00e      	b.n	8002af6 <procUartCmd+0x4e>
 8002ad8:	68f8      	ldr	r0, [r7, #12]
 8002ada:	f000 f86b 	bl	8002bb4 <processUartReceiveCommand_ControlBuzzer>
 8002ade:	e00a      	b.n	8002af6 <procUartCmd+0x4e>
 8002ae0:	68f8      	ldr	r0, [r7, #12]
 8002ae2:	f000 f89d 	bl	8002c20 <processUartReceiveCommand_ControlButton>
 8002ae6:	e006      	b.n	8002af6 <procUartCmd+0x4e>
 8002ae8:	68f8      	ldr	r0, [r7, #12]
 8002aea:	f000 f8d9 	bl	8002ca0 <processUartReceiveCommand_ControlLcd>
 8002aee:	e002      	b.n	8002af6 <procUartCmd+0x4e>
 8002af0:	f7ff fdb3 	bl	800265a <SendNACK>
 8002af4:	bf00      	nop
 8002af6:	bf00      	nop
 8002af8:	3710      	adds	r7, #16
 8002afa:	46bd      	mov	sp, r7
 8002afc:	bd80      	pop	{r7, pc}
	...

08002b00 <uartReceiveControlLed_Set>:
 8002b00:	b5b0      	push	{r4, r5, r7, lr}
 8002b02:	b084      	sub	sp, #16
 8002b04:	af02      	add	r7, sp, #8
 8002b06:	6078      	str	r0, [r7, #4]
 8002b08:	687b      	ldr	r3, [r7, #4]
 8002b0a:	789b      	ldrb	r3, [r3, #2]
 8002b0c:	2b03      	cmp	r3, #3
 8002b0e:	d902      	bls.n	8002b16 <uartReceiveControlLed_Set+0x16>
 8002b10:	f7ff fda3 	bl	800265a <SendNACK>
 8002b14:	e014      	b.n	8002b40 <uartReceiveControlLed_Set+0x40>
 8002b16:	f7ff fd99 	bl	800264c <SendACK>
 8002b1a:	4b0b      	ldr	r3, [pc, #44]	; (8002b48 <uartReceiveControlLed_Set+0x48>)
 8002b1c:	681b      	ldr	r3, [r3, #0]
 8002b1e:	2b00      	cmp	r3, #0
 8002b20:	d00e      	beq.n	8002b40 <uartReceiveControlLed_Set+0x40>
 8002b22:	4b09      	ldr	r3, [pc, #36]	; (8002b48 <uartReceiveControlLed_Set+0x48>)
 8002b24:	681c      	ldr	r4, [r3, #0]
 8002b26:	687b      	ldr	r3, [r7, #4]
 8002b28:	7898      	ldrb	r0, [r3, #2]
 8002b2a:	687b      	ldr	r3, [r7, #4]
 8002b2c:	78d9      	ldrb	r1, [r3, #3]
 8002b2e:	687b      	ldr	r3, [r7, #4]
 8002b30:	791a      	ldrb	r2, [r3, #4]
 8002b32:	687b      	ldr	r3, [r7, #4]
 8002b34:	795d      	ldrb	r5, [r3, #5]
 8002b36:	687b      	ldr	r3, [r7, #4]
 8002b38:	799b      	ldrb	r3, [r3, #6]
 8002b3a:	9300      	str	r3, [sp, #0]
 8002b3c:	462b      	mov	r3, r5
 8002b3e:	47a0      	blx	r4
 8002b40:	3708      	adds	r7, #8
 8002b42:	46bd      	mov	sp, r7
 8002b44:	bdb0      	pop	{r4, r5, r7, pc}
 8002b46:	bf00      	nop
 8002b48:	200005f8 	.word	0x200005f8

08002b4c <processUartReceiveCommand_ControlLed>:
 8002b4c:	b580      	push	{r7, lr}
 8002b4e:	b082      	sub	sp, #8
 8002b50:	af00      	add	r7, sp, #0
 8002b52:	6078      	str	r0, [r7, #4]
 8002b54:	687b      	ldr	r3, [r7, #4]
 8002b56:	785b      	ldrb	r3, [r3, #1]
 8002b58:	2b02      	cmp	r3, #2
 8002b5a:	d103      	bne.n	8002b64 <processUartReceiveCommand_ControlLed+0x18>
 8002b5c:	6878      	ldr	r0, [r7, #4]
 8002b5e:	f7ff ffcf 	bl	8002b00 <uartReceiveControlLed_Set>
 8002b62:	e002      	b.n	8002b6a <processUartReceiveCommand_ControlLed+0x1e>
 8002b64:	f7ff fd79 	bl	800265a <SendNACK>
 8002b68:	bf00      	nop
 8002b6a:	bf00      	nop
 8002b6c:	3708      	adds	r7, #8
 8002b6e:	46bd      	mov	sp, r7
 8002b70:	bd80      	pop	{r7, pc}
	...

08002b74 <uartReceiveControlBuzzer_Set>:
 8002b74:	b580      	push	{r7, lr}
 8002b76:	b082      	sub	sp, #8
 8002b78:	af00      	add	r7, sp, #0
 8002b7a:	6078      	str	r0, [r7, #4]
 8002b7c:	687b      	ldr	r3, [r7, #4]
 8002b7e:	789b      	ldrb	r3, [r3, #2]
 8002b80:	2b64      	cmp	r3, #100	; 0x64
 8002b82:	d906      	bls.n	8002b92 <uartReceiveControlBuzzer_Set+0x1e>
 8002b84:	687b      	ldr	r3, [r7, #4]
 8002b86:	789b      	ldrb	r3, [r3, #2]
 8002b88:	2bff      	cmp	r3, #255	; 0xff
 8002b8a:	d002      	beq.n	8002b92 <uartReceiveControlBuzzer_Set+0x1e>
 8002b8c:	f7ff fd65 	bl	800265a <SendNACK>
 8002b90:	e00b      	b.n	8002baa <uartReceiveControlBuzzer_Set+0x36>
 8002b92:	f7ff fd5b 	bl	800264c <SendACK>
 8002b96:	4b06      	ldr	r3, [pc, #24]	; (8002bb0 <uartReceiveControlBuzzer_Set+0x3c>)
 8002b98:	681b      	ldr	r3, [r3, #0]
 8002b9a:	2b00      	cmp	r3, #0
 8002b9c:	d005      	beq.n	8002baa <uartReceiveControlBuzzer_Set+0x36>
 8002b9e:	4b04      	ldr	r3, [pc, #16]	; (8002bb0 <uartReceiveControlBuzzer_Set+0x3c>)
 8002ba0:	681b      	ldr	r3, [r3, #0]
 8002ba2:	687a      	ldr	r2, [r7, #4]
 8002ba4:	7892      	ldrb	r2, [r2, #2]
 8002ba6:	4610      	mov	r0, r2
 8002ba8:	4798      	blx	r3
 8002baa:	3708      	adds	r7, #8
 8002bac:	46bd      	mov	sp, r7
 8002bae:	bd80      	pop	{r7, pc}
 8002bb0:	200005f4 	.word	0x200005f4

08002bb4 <processUartReceiveCommand_ControlBuzzer>:
 8002bb4:	b580      	push	{r7, lr}
 8002bb6:	b082      	sub	sp, #8
 8002bb8:	af00      	add	r7, sp, #0
 8002bba:	6078      	str	r0, [r7, #4]
 8002bbc:	687b      	ldr	r3, [r7, #4]
 8002bbe:	785b      	ldrb	r3, [r3, #1]
 8002bc0:	2b02      	cmp	r3, #2
 8002bc2:	d103      	bne.n	8002bcc <processUartReceiveCommand_ControlBuzzer+0x18>
 8002bc4:	6878      	ldr	r0, [r7, #4]
 8002bc6:	f7ff ffd5 	bl	8002b74 <uartReceiveControlBuzzer_Set>
 8002bca:	e002      	b.n	8002bd2 <processUartReceiveCommand_ControlBuzzer+0x1e>
 8002bcc:	f7ff fd45 	bl	800265a <SendNACK>
 8002bd0:	bf00      	nop
 8002bd2:	bf00      	nop
 8002bd4:	3708      	adds	r7, #8
 8002bd6:	46bd      	mov	sp, r7
 8002bd8:	bd80      	pop	{r7, pc}
	...

08002bdc <uartReceiveControlButton_Set>:
 8002bdc:	b580      	push	{r7, lr}
 8002bde:	b082      	sub	sp, #8
 8002be0:	af00      	add	r7, sp, #0
 8002be2:	6078      	str	r0, [r7, #4]
 8002be4:	687b      	ldr	r3, [r7, #4]
 8002be6:	789b      	ldrb	r3, [r3, #2]
 8002be8:	2b05      	cmp	r3, #5
 8002bea:	d803      	bhi.n	8002bf4 <uartReceiveControlButton_Set+0x18>
 8002bec:	687b      	ldr	r3, [r7, #4]
 8002bee:	78db      	ldrb	r3, [r3, #3]
 8002bf0:	2b05      	cmp	r3, #5
 8002bf2:	d902      	bls.n	8002bfa <uartReceiveControlButton_Set+0x1e>
 8002bf4:	f7ff fd31 	bl	800265a <SendNACK>
 8002bf8:	e00d      	b.n	8002c16 <uartReceiveControlButton_Set+0x3a>
 8002bfa:	f7ff fd27 	bl	800264c <SendACK>
 8002bfe:	4b07      	ldr	r3, [pc, #28]	; (8002c1c <uartReceiveControlButton_Set+0x40>)
 8002c00:	681b      	ldr	r3, [r3, #0]
 8002c02:	2b00      	cmp	r3, #0
 8002c04:	d007      	beq.n	8002c16 <uartReceiveControlButton_Set+0x3a>
 8002c06:	4b05      	ldr	r3, [pc, #20]	; (8002c1c <uartReceiveControlButton_Set+0x40>)
 8002c08:	681b      	ldr	r3, [r3, #0]
 8002c0a:	687a      	ldr	r2, [r7, #4]
 8002c0c:	7890      	ldrb	r0, [r2, #2]
 8002c0e:	687a      	ldr	r2, [r7, #4]
 8002c10:	78d2      	ldrb	r2, [r2, #3]
 8002c12:	4611      	mov	r1, r2
 8002c14:	4798      	blx	r3
 8002c16:	3708      	adds	r7, #8
 8002c18:	46bd      	mov	sp, r7
 8002c1a:	bd80      	pop	{r7, pc}
 8002c1c:	200005f0 	.word	0x200005f0

08002c20 <processUartReceiveCommand_ControlButton>:
 8002c20:	b580      	push	{r7, lr}
 8002c22:	b082      	sub	sp, #8
 8002c24:	af00      	add	r7, sp, #0
 8002c26:	6078      	str	r0, [r7, #4]
 8002c28:	687b      	ldr	r3, [r7, #4]
 8002c2a:	785b      	ldrb	r3, [r3, #1]
 8002c2c:	2b02      	cmp	r3, #2
 8002c2e:	d103      	bne.n	8002c38 <processUartReceiveCommand_ControlButton+0x18>
 8002c30:	6878      	ldr	r0, [r7, #4]
 8002c32:	f7ff ffd3 	bl	8002bdc <uartReceiveControlButton_Set>
 8002c36:	e002      	b.n	8002c3e <processUartReceiveCommand_ControlButton+0x1e>
 8002c38:	f7ff fd0f 	bl	800265a <SendNACK>
 8002c3c:	bf00      	nop
 8002c3e:	bf00      	nop
 8002c40:	3708      	adds	r7, #8
 8002c42:	46bd      	mov	sp, r7
 8002c44:	bd80      	pop	{r7, pc}
	...

08002c48 <uartReceiveControlLcd_Set>:
 8002c48:	b580      	push	{r7, lr}
 8002c4a:	b084      	sub	sp, #16
 8002c4c:	af00      	add	r7, sp, #0
 8002c4e:	6078      	str	r0, [r7, #4]
 8002c50:	2300      	movs	r3, #0
 8002c52:	73fb      	strb	r3, [r7, #15]
 8002c54:	2214      	movs	r2, #20
 8002c56:	2100      	movs	r1, #0
 8002c58:	480f      	ldr	r0, [pc, #60]	; (8002c98 <uartReceiveControlLcd_Set+0x50>)
 8002c5a:	f001 fde9 	bl	8004830 <memsetl>
 8002c5e:	e009      	b.n	8002c74 <uartReceiveControlLcd_Set+0x2c>
 8002c60:	7bfa      	ldrb	r2, [r7, #15]
 8002c62:	7bfb      	ldrb	r3, [r7, #15]
 8002c64:	6879      	ldr	r1, [r7, #4]
 8002c66:	440a      	add	r2, r1
 8002c68:	7891      	ldrb	r1, [r2, #2]
 8002c6a:	4a0b      	ldr	r2, [pc, #44]	; (8002c98 <uartReceiveControlLcd_Set+0x50>)
 8002c6c:	54d1      	strb	r1, [r2, r3]
 8002c6e:	7bfb      	ldrb	r3, [r7, #15]
 8002c70:	3301      	adds	r3, #1
 8002c72:	73fb      	strb	r3, [r7, #15]
 8002c74:	7bfb      	ldrb	r3, [r7, #15]
 8002c76:	687a      	ldr	r2, [r7, #4]
 8002c78:	4413      	add	r3, r2
 8002c7a:	789b      	ldrb	r3, [r3, #2]
 8002c7c:	2b0d      	cmp	r3, #13
 8002c7e:	d1ef      	bne.n	8002c60 <uartReceiveControlLcd_Set+0x18>
 8002c80:	4b06      	ldr	r3, [pc, #24]	; (8002c9c <uartReceiveControlLcd_Set+0x54>)
 8002c82:	681b      	ldr	r3, [r3, #0]
 8002c84:	2b00      	cmp	r3, #0
 8002c86:	d003      	beq.n	8002c90 <uartReceiveControlLcd_Set+0x48>
 8002c88:	4b04      	ldr	r3, [pc, #16]	; (8002c9c <uartReceiveControlLcd_Set+0x54>)
 8002c8a:	681b      	ldr	r3, [r3, #0]
 8002c8c:	4802      	ldr	r0, [pc, #8]	; (8002c98 <uartReceiveControlLcd_Set+0x50>)
 8002c8e:	4798      	blx	r3
 8002c90:	bf00      	nop
 8002c92:	3710      	adds	r7, #16
 8002c94:	46bd      	mov	sp, r7
 8002c96:	bd80      	pop	{r7, pc}
 8002c98:	20000600 	.word	0x20000600
 8002c9c:	200005fc 	.word	0x200005fc

08002ca0 <processUartReceiveCommand_ControlLcd>:
 8002ca0:	b580      	push	{r7, lr}
 8002ca2:	b082      	sub	sp, #8
 8002ca4:	af00      	add	r7, sp, #0
 8002ca6:	6078      	str	r0, [r7, #4]
 8002ca8:	687b      	ldr	r3, [r7, #4]
 8002caa:	785b      	ldrb	r3, [r3, #1]
 8002cac:	2b02      	cmp	r3, #2
 8002cae:	d103      	bne.n	8002cb8 <processUartReceiveCommand_ControlLcd+0x18>
 8002cb0:	6878      	ldr	r0, [r7, #4]
 8002cb2:	f7ff ffc9 	bl	8002c48 <uartReceiveControlLcd_Set>
 8002cb6:	e002      	b.n	8002cbe <processUartReceiveCommand_ControlLcd+0x1e>
 8002cb8:	f7ff fccf 	bl	800265a <SendNACK>
 8002cbc:	bf00      	nop
 8002cbe:	bf00      	nop
 8002cc0:	3708      	adds	r7, #8
 8002cc2:	46bd      	mov	sp, r7
 8002cc4:	bd80      	pop	{r7, pc}

08002cc6 <delayMicroseconds>:
 8002cc6:	b480      	push	{r7}
 8002cc8:	b083      	sub	sp, #12
 8002cca:	af00      	add	r7, sp, #0
 8002ccc:	6078      	str	r0, [r7, #4]
 8002cce:	bf00      	nop
 8002cd0:	370c      	adds	r7, #12
 8002cd2:	46bd      	mov	sp, r7
 8002cd4:	f85d 7b04 	ldr.w	r7, [sp], #4
 8002cd8:	4770      	bx	lr
	...

08002cdc <ucg_gpio_init>:
 8002cdc:	b580      	push	{r7, lr}
 8002cde:	b082      	sub	sp, #8
 8002ce0:	af00      	add	r7, sp, #0
 8002ce2:	2101      	movs	r1, #1
 8002ce4:	2007      	movs	r0, #7
 8002ce6:	f002 fd5d 	bl	80057a4 <RCC_AHB1PeriphClockCmd>
 8002cea:	2301      	movs	r3, #1
 8002cec:	713b      	strb	r3, [r7, #4]
 8002cee:	2303      	movs	r3, #3
 8002cf0:	717b      	strb	r3, [r7, #5]
 8002cf2:	2300      	movs	r3, #0
 8002cf4:	71bb      	strb	r3, [r7, #6]
 8002cf6:	2300      	movs	r3, #0
 8002cf8:	71fb      	strb	r3, [r7, #7]
 8002cfa:	f44f 7368 	mov.w	r3, #928	; 0x3a0
 8002cfe:	603b      	str	r3, [r7, #0]
 8002d00:	463b      	mov	r3, r7
 8002d02:	4619      	mov	r1, r3
 8002d04:	480a      	ldr	r0, [pc, #40]	; (8002d30 <ucg_gpio_init+0x54>)
 8002d06:	f002 f99b 	bl	8005040 <GPIO_Init>
 8002d0a:	f44f 6388 	mov.w	r3, #1088	; 0x440
 8002d0e:	603b      	str	r3, [r7, #0]
 8002d10:	463b      	mov	r3, r7
 8002d12:	4619      	mov	r1, r3
 8002d14:	4807      	ldr	r0, [pc, #28]	; (8002d34 <ucg_gpio_init+0x58>)
 8002d16:	f002 f993 	bl	8005040 <GPIO_Init>
 8002d1a:	2380      	movs	r3, #128	; 0x80
 8002d1c:	603b      	str	r3, [r7, #0]
 8002d1e:	463b      	mov	r3, r7
 8002d20:	4619      	mov	r1, r3
 8002d22:	4805      	ldr	r0, [pc, #20]	; (8002d38 <ucg_gpio_init+0x5c>)
 8002d24:	f002 f98c 	bl	8005040 <GPIO_Init>
 8002d28:	bf00      	nop
 8002d2a:	3708      	adds	r7, #8
 8002d2c:	46bd      	mov	sp, r7
 8002d2e:	bd80      	pop	{r7, pc}
 8002d30:	40020000 	.word	0x40020000
 8002d34:	40020400 	.word	0x40020400
 8002d38:	40020800 	.word	0x40020800

08002d3c <ucg_com_arduino_send_generic_SW_SPI>:
 8002d3c:	b580      	push	{r7, lr}
 8002d3e:	b084      	sub	sp, #16
 8002d40:	af00      	add	r7, sp, #0
 8002d42:	6078      	str	r0, [r7, #4]
 8002d44:	460b      	mov	r3, r1
 8002d46:	70fb      	strb	r3, [r7, #3]
 8002d48:	2308      	movs	r3, #8
 8002d4a:	73fb      	strb	r3, [r7, #15]
 8002d4c:	f997 3003 	ldrsb.w	r3, [r7, #3]
 8002d50:	2b00      	cmp	r3, #0
 8002d52:	da05      	bge.n	8002d60 <ucg_com_arduino_send_generic_SW_SPI+0x24>
 8002d54:	2201      	movs	r2, #1
 8002d56:	2180      	movs	r1, #128	; 0x80
 8002d58:	4814      	ldr	r0, [pc, #80]	; (8002dac <ucg_com_arduino_send_generic_SW_SPI+0x70>)
 8002d5a:	f002 fa37 	bl	80051cc <GPIO_WriteBit>
 8002d5e:	e004      	b.n	8002d6a <ucg_com_arduino_send_generic_SW_SPI+0x2e>
 8002d60:	2200      	movs	r2, #0
 8002d62:	2180      	movs	r1, #128	; 0x80
 8002d64:	4811      	ldr	r0, [pc, #68]	; (8002dac <ucg_com_arduino_send_generic_SW_SPI+0x70>)
 8002d66:	f002 fa31 	bl	80051cc <GPIO_WriteBit>
 8002d6a:	2001      	movs	r0, #1
 8002d6c:	f7ff ffab 	bl	8002cc6 <delayMicroseconds>
 8002d70:	2201      	movs	r2, #1
 8002d72:	2120      	movs	r1, #32
 8002d74:	480d      	ldr	r0, [pc, #52]	; (8002dac <ucg_com_arduino_send_generic_SW_SPI+0x70>)
 8002d76:	f002 fa29 	bl	80051cc <GPIO_WriteBit>
 8002d7a:	2001      	movs	r0, #1
 8002d7c:	f7ff ffa3 	bl	8002cc6 <delayMicroseconds>
 8002d80:	7bfb      	ldrb	r3, [r7, #15]
 8002d82:	3b01      	subs	r3, #1
 8002d84:	73fb      	strb	r3, [r7, #15]
 8002d86:	2200      	movs	r2, #0
 8002d88:	2120      	movs	r1, #32
 8002d8a:	4808      	ldr	r0, [pc, #32]	; (8002dac <ucg_com_arduino_send_generic_SW_SPI+0x70>)
 8002d8c:	f002 fa1e 	bl	80051cc <GPIO_WriteBit>
 8002d90:	2001      	movs	r0, #1
 8002d92:	f7ff ff98 	bl	8002cc6 <delayMicroseconds>
 8002d96:	78fb      	ldrb	r3, [r7, #3]
 8002d98:	005b      	lsls	r3, r3, #1
 8002d9a:	70fb      	strb	r3, [r7, #3]
 8002d9c:	7bfb      	ldrb	r3, [r7, #15]
 8002d9e:	2b00      	cmp	r3, #0
 8002da0:	d1d4      	bne.n	8002d4c <ucg_com_arduino_send_generic_SW_SPI+0x10>
 8002da2:	bf00      	nop
 8002da4:	3710      	adds	r7, #16
 8002da6:	46bd      	mov	sp, r7
 8002da8:	bd80      	pop	{r7, pc}
 8002daa:	bf00      	nop
 8002dac:	40020000 	.word	0x40020000

08002db0 <ucg_com_arduino_generic_SW_SPI>:
 8002db0:	b580      	push	{r7, lr}
 8002db2:	b084      	sub	sp, #16
 8002db4:	af00      	add	r7, sp, #0
 8002db6:	60f8      	str	r0, [r7, #12]
 8002db8:	607b      	str	r3, [r7, #4]
 8002dba:	460b      	mov	r3, r1
 8002dbc:	817b      	strh	r3, [r7, #10]
 8002dbe:	4613      	mov	r3, r2
 8002dc0:	813b      	strh	r3, [r7, #8]
 8002dc2:	f9b7 300a 	ldrsh.w	r3, [r7, #10]
 8002dc6:	3b0a      	subs	r3, #10
 8002dc8:	2b0b      	cmp	r3, #11
 8002dca:	f200 80dc 	bhi.w	8002f86 <ucg_com_arduino_generic_SW_SPI+0x1d6>
 8002dce:	a201      	add	r2, pc, #4	; (adr r2, 8002dd4 <ucg_com_arduino_generic_SW_SPI+0x24>)
 8002dd0:	f852 f023 	ldr.w	pc, [r2, r3, lsl #2]
 8002dd4:	08002e05 	.word	0x08002e05
 8002dd8:	08002f87 	.word	0x08002f87
 8002ddc:	08002e57 	.word	0x08002e57
 8002de0:	08002e61 	.word	0x08002e61
 8002de4:	08002e71 	.word	0x08002e71
 8002de8:	08002e81 	.word	0x08002e81
 8002dec:	08002e93 	.word	0x08002e93
 8002df0:	08002eb3 	.word	0x08002eb3
 8002df4:	08002edb 	.word	0x08002edb
 8002df8:	08002f11 	.word	0x08002f11
 8002dfc:	08002f2f 	.word	0x08002f2f
 8002e00:	08002f7f 	.word	0x08002f7f
 8002e04:	f7ff ff6a 	bl	8002cdc <ucg_gpio_init>
 8002e08:	2201      	movs	r2, #1
 8002e0a:	2180      	movs	r1, #128	; 0x80
 8002e0c:	4860      	ldr	r0, [pc, #384]	; (8002f90 <ucg_com_arduino_generic_SW_SPI+0x1e0>)
 8002e0e:	f002 f9dd 	bl	80051cc <GPIO_WriteBit>
 8002e12:	2201      	movs	r2, #1
 8002e14:	2140      	movs	r1, #64	; 0x40
 8002e16:	485f      	ldr	r0, [pc, #380]	; (8002f94 <ucg_com_arduino_generic_SW_SPI+0x1e4>)
 8002e18:	f002 f9d8 	bl	80051cc <GPIO_WriteBit>
 8002e1c:	2201      	movs	r2, #1
 8002e1e:	2180      	movs	r1, #128	; 0x80
 8002e20:	485d      	ldr	r0, [pc, #372]	; (8002f98 <ucg_com_arduino_generic_SW_SPI+0x1e8>)
 8002e22:	f002 f9d3 	bl	80051cc <GPIO_WriteBit>
 8002e26:	2201      	movs	r2, #1
 8002e28:	f44f 7100 	mov.w	r1, #512	; 0x200
 8002e2c:	4858      	ldr	r0, [pc, #352]	; (8002f90 <ucg_com_arduino_generic_SW_SPI+0x1e0>)
 8002e2e:	f002 f9cd 	bl	80051cc <GPIO_WriteBit>
 8002e32:	2200      	movs	r2, #0
 8002e34:	2120      	movs	r1, #32
 8002e36:	4856      	ldr	r0, [pc, #344]	; (8002f90 <ucg_com_arduino_generic_SW_SPI+0x1e0>)
 8002e38:	f002 f9c8 	bl	80051cc <GPIO_WriteBit>
 8002e3c:	2201      	movs	r2, #1
 8002e3e:	f44f 6180 	mov.w	r1, #1024	; 0x400
 8002e42:	4854      	ldr	r0, [pc, #336]	; (8002f94 <ucg_com_arduino_generic_SW_SPI+0x1e4>)
 8002e44:	f002 f9c2 	bl	80051cc <GPIO_WriteBit>
 8002e48:	2201      	movs	r2, #1
 8002e4a:	f44f 7180 	mov.w	r1, #256	; 0x100
 8002e4e:	4850      	ldr	r0, [pc, #320]	; (8002f90 <ucg_com_arduino_generic_SW_SPI+0x1e0>)
 8002e50:	f002 f9bc 	bl	80051cc <GPIO_WriteBit>
 8002e54:	e097      	b.n	8002f86 <ucg_com_arduino_generic_SW_SPI+0x1d6>
 8002e56:	893b      	ldrh	r3, [r7, #8]
 8002e58:	4618      	mov	r0, r3
 8002e5a:	f7ff ff34 	bl	8002cc6 <delayMicroseconds>
 8002e5e:	e092      	b.n	8002f86 <ucg_com_arduino_generic_SW_SPI+0x1d6>
 8002e60:	893b      	ldrh	r3, [r7, #8]
 8002e62:	b2db      	uxtb	r3, r3
 8002e64:	461a      	mov	r2, r3
 8002e66:	2180      	movs	r1, #128	; 0x80
 8002e68:	484b      	ldr	r0, [pc, #300]	; (8002f98 <ucg_com_arduino_generic_SW_SPI+0x1e8>)
 8002e6a:	f002 f9af 	bl	80051cc <GPIO_WriteBit>
 8002e6e:	e08a      	b.n	8002f86 <ucg_com_arduino_generic_SW_SPI+0x1d6>
 8002e70:	893b      	ldrh	r3, [r7, #8]
 8002e72:	b2db      	uxtb	r3, r3
 8002e74:	461a      	mov	r2, r3
 8002e76:	2140      	movs	r1, #64	; 0x40
 8002e78:	4846      	ldr	r0, [pc, #280]	; (8002f94 <ucg_com_arduino_generic_SW_SPI+0x1e4>)
 8002e7a:	f002 f9a7 	bl	80051cc <GPIO_WriteBit>
 8002e7e:	e082      	b.n	8002f86 <ucg_com_arduino_generic_SW_SPI+0x1d6>
 8002e80:	893b      	ldrh	r3, [r7, #8]
 8002e82:	b2db      	uxtb	r3, r3
 8002e84:	461a      	mov	r2, r3
 8002e86:	f44f 7100 	mov.w	r1, #512	; 0x200
 8002e8a:	4841      	ldr	r0, [pc, #260]	; (8002f90 <ucg_com_arduino_generic_SW_SPI+0x1e0>)
 8002e8c:	f002 f99e 	bl	80051cc <GPIO_WriteBit>
 8002e90:	e079      	b.n	8002f86 <ucg_com_arduino_generic_SW_SPI+0x1d6>
 8002e92:	893b      	ldrh	r3, [r7, #8]
 8002e94:	b2db      	uxtb	r3, r3
 8002e96:	4619      	mov	r1, r3
 8002e98:	68f8      	ldr	r0, [r7, #12]
 8002e9a:	f7ff ff4f 	bl	8002d3c <ucg_com_arduino_send_generic_SW_SPI>
 8002e9e:	e072      	b.n	8002f86 <ucg_com_arduino_generic_SW_SPI+0x1d6>
 8002ea0:	687b      	ldr	r3, [r7, #4]
 8002ea2:	781b      	ldrb	r3, [r3, #0]
 8002ea4:	4619      	mov	r1, r3
 8002ea6:	68f8      	ldr	r0, [r7, #12]
 8002ea8:	f7ff ff48 	bl	8002d3c <ucg_com_arduino_send_generic_SW_SPI>
 8002eac:	893b      	ldrh	r3, [r7, #8]
 8002eae:	3b01      	subs	r3, #1
 8002eb0:	813b      	strh	r3, [r7, #8]
 8002eb2:	893b      	ldrh	r3, [r7, #8]
 8002eb4:	2b00      	cmp	r3, #0
 8002eb6:	d1f3      	bne.n	8002ea0 <ucg_com_arduino_generic_SW_SPI+0xf0>
 8002eb8:	e065      	b.n	8002f86 <ucg_com_arduino_generic_SW_SPI+0x1d6>
 8002eba:	687b      	ldr	r3, [r7, #4]
 8002ebc:	781b      	ldrb	r3, [r3, #0]
 8002ebe:	4619      	mov	r1, r3
 8002ec0:	68f8      	ldr	r0, [r7, #12]
 8002ec2:	f7ff ff3b 	bl	8002d3c <ucg_com_arduino_send_generic_SW_SPI>
 8002ec6:	687b      	ldr	r3, [r7, #4]
 8002ec8:	3301      	adds	r3, #1
 8002eca:	781b      	ldrb	r3, [r3, #0]
 8002ecc:	4619      	mov	r1, r3
 8002ece:	68f8      	ldr	r0, [r7, #12]
 8002ed0:	f7ff ff34 	bl	8002d3c <ucg_com_arduino_send_generic_SW_SPI>
 8002ed4:	893b      	ldrh	r3, [r7, #8]
 8002ed6:	3b01      	subs	r3, #1
 8002ed8:	813b      	strh	r3, [r7, #8]
 8002eda:	893b      	ldrh	r3, [r7, #8]
 8002edc:	2b00      	cmp	r3, #0
 8002ede:	d1ec      	bne.n	8002eba <ucg_com_arduino_generic_SW_SPI+0x10a>
 8002ee0:	e051      	b.n	8002f86 <ucg_com_arduino_generic_SW_SPI+0x1d6>
 8002ee2:	687b      	ldr	r3, [r7, #4]
 8002ee4:	781b      	ldrb	r3, [r3, #0]
 8002ee6:	4619      	mov	r1, r3
 8002ee8:	68f8      	ldr	r0, [r7, #12]
 8002eea:	f7ff ff27 	bl	8002d3c <ucg_com_arduino_send_generic_SW_SPI>
 8002eee:	687b      	ldr	r3, [r7, #4]
 8002ef0:	3301      	adds	r3, #1
 8002ef2:	781b      	ldrb	r3, [r3, #0]
 8002ef4:	4619      	mov	r1, r3
 8002ef6:	68f8      	ldr	r0, [r7, #12]
 8002ef8:	f7ff ff20 	bl	8002d3c <ucg_com_arduino_send_generic_SW_SPI>
 8002efc:	687b      	ldr	r3, [r7, #4]
 8002efe:	3302      	adds	r3, #2
 8002f00:	781b      	ldrb	r3, [r3, #0]
 8002f02:	4619      	mov	r1, r3
 8002f04:	68f8      	ldr	r0, [r7, #12]
 8002f06:	f7ff ff19 	bl	8002d3c <ucg_com_arduino_send_generic_SW_SPI>
 8002f0a:	893b      	ldrh	r3, [r7, #8]
 8002f0c:	3b01      	subs	r3, #1
 8002f0e:	813b      	strh	r3, [r7, #8]
 8002f10:	893b      	ldrh	r3, [r7, #8]
 8002f12:	2b00      	cmp	r3, #0
 8002f14:	d1e5      	bne.n	8002ee2 <ucg_com_arduino_generic_SW_SPI+0x132>
 8002f16:	e036      	b.n	8002f86 <ucg_com_arduino_generic_SW_SPI+0x1d6>
 8002f18:	687b      	ldr	r3, [r7, #4]
 8002f1a:	1c5a      	adds	r2, r3, #1
 8002f1c:	607a      	str	r2, [r7, #4]
 8002f1e:	781b      	ldrb	r3, [r3, #0]
 8002f20:	4619      	mov	r1, r3
 8002f22:	68f8      	ldr	r0, [r7, #12]
 8002f24:	f7ff ff0a 	bl	8002d3c <ucg_com_arduino_send_generic_SW_SPI>
 8002f28:	893b      	ldrh	r3, [r7, #8]
 8002f2a:	3b01      	subs	r3, #1
 8002f2c:	813b      	strh	r3, [r7, #8]
 8002f2e:	893b      	ldrh	r3, [r7, #8]
 8002f30:	2b00      	cmp	r3, #0
 8002f32:	d1f1      	bne.n	8002f18 <ucg_com_arduino_generic_SW_SPI+0x168>
 8002f34:	e027      	b.n	8002f86 <ucg_com_arduino_generic_SW_SPI+0x1d6>
 8002f36:	687b      	ldr	r3, [r7, #4]
 8002f38:	781b      	ldrb	r3, [r3, #0]
 8002f3a:	2b00      	cmp	r3, #0
 8002f3c:	d010      	beq.n	8002f60 <ucg_com_arduino_generic_SW_SPI+0x1b0>
 8002f3e:	687b      	ldr	r3, [r7, #4]
 8002f40:	781b      	ldrb	r3, [r3, #0]
 8002f42:	2b01      	cmp	r3, #1
 8002f44:	d106      	bne.n	8002f54 <ucg_com_arduino_generic_SW_SPI+0x1a4>
 8002f46:	2200      	movs	r2, #0
 8002f48:	f44f 7100 	mov.w	r1, #512	; 0x200
 8002f4c:	4810      	ldr	r0, [pc, #64]	; (8002f90 <ucg_com_arduino_generic_SW_SPI+0x1e0>)
 8002f4e:	f002 f93d 	bl	80051cc <GPIO_WriteBit>
 8002f52:	e005      	b.n	8002f60 <ucg_com_arduino_generic_SW_SPI+0x1b0>
 8002f54:	2201      	movs	r2, #1
 8002f56:	f44f 7100 	mov.w	r1, #512	; 0x200
 8002f5a:	480d      	ldr	r0, [pc, #52]	; (8002f90 <ucg_com_arduino_generic_SW_SPI+0x1e0>)
 8002f5c:	f002 f936 	bl	80051cc <GPIO_WriteBit>
 8002f60:	687b      	ldr	r3, [r7, #4]
 8002f62:	3301      	adds	r3, #1
 8002f64:	607b      	str	r3, [r7, #4]
 8002f66:	687b      	ldr	r3, [r7, #4]
 8002f68:	781b      	ldrb	r3, [r3, #0]
 8002f6a:	4619      	mov	r1, r3
 8002f6c:	68f8      	ldr	r0, [r7, #12]
 8002f6e:	f7ff fee5 	bl	8002d3c <ucg_com_arduino_send_generic_SW_SPI>
 8002f72:	687b      	ldr	r3, [r7, #4]
 8002f74:	3301      	adds	r3, #1
 8002f76:	607b      	str	r3, [r7, #4]
 8002f78:	893b      	ldrh	r3, [r7, #8]
 8002f7a:	3b01      	subs	r3, #1
 8002f7c:	813b      	strh	r3, [r7, #8]
 8002f7e:	893b      	ldrh	r3, [r7, #8]
 8002f80:	2b00      	cmp	r3, #0
 8002f82:	d1d8      	bne.n	8002f36 <ucg_com_arduino_generic_SW_SPI+0x186>
 8002f84:	bf00      	nop
 8002f86:	2301      	movs	r3, #1
 8002f88:	4618      	mov	r0, r3
 8002f8a:	3710      	adds	r7, #16
 8002f8c:	46bd      	mov	sp, r7
 8002f8e:	bd80      	pop	{r7, pc}
 8002f90:	40020000 	.word	0x40020000
 8002f94:	40020400 	.word	0x40020400
 8002f98:	40020800 	.word	0x40020800

08002f9c <Ucglib4WireSWSPI_begin>:
 8002f9c:	b580      	push	{r7, lr}
 8002f9e:	b082      	sub	sp, #8
 8002fa0:	af00      	add	r7, sp, #0
 8002fa2:	6078      	str	r0, [r7, #4]
 8002fa4:	460b      	mov	r3, r1
 8002fa6:	70fb      	strb	r3, [r7, #3]
 8002fa8:	4b07      	ldr	r3, [pc, #28]	; (8002fc8 <Ucglib4WireSWSPI_begin+0x2c>)
 8002faa:	4a08      	ldr	r2, [pc, #32]	; (8002fcc <Ucglib4WireSWSPI_begin+0x30>)
 8002fac:	4908      	ldr	r1, [pc, #32]	; (8002fd0 <Ucglib4WireSWSPI_begin+0x34>)
 8002fae:	6878      	ldr	r0, [r7, #4]
 8002fb0:	f001 f9a2 	bl	80042f8 <ucg_Init>
 8002fb4:	78fb      	ldrb	r3, [r7, #3]
 8002fb6:	4619      	mov	r1, r3
 8002fb8:	6878      	ldr	r0, [r7, #4]
 8002fba:	f000 ff86 	bl	8003eca <ucg_SetFontMode>
 8002fbe:	bf00      	nop
 8002fc0:	3708      	adds	r7, #8
 8002fc2:	46bd      	mov	sp, r7
 8002fc4:	bd80      	pop	{r7, pc}
 8002fc6:	bf00      	nop
 8002fc8:	08002db1 	.word	0x08002db1
 8002fcc:	08003609 	.word	0x08003609
 8002fd0:	08003731 	.word	0x08003731

08002fd4 <ucg_DrawBox>:
 8002fd4:	b580      	push	{r7, lr}
 8002fd6:	b084      	sub	sp, #16
 8002fd8:	af00      	add	r7, sp, #0
 8002fda:	60f8      	str	r0, [r7, #12]
 8002fdc:	4608      	mov	r0, r1
 8002fde:	4611      	mov	r1, r2
 8002fe0:	461a      	mov	r2, r3
 8002fe2:	4603      	mov	r3, r0
 8002fe4:	817b      	strh	r3, [r7, #10]
 8002fe6:	460b      	mov	r3, r1
 8002fe8:	813b      	strh	r3, [r7, #8]
 8002fea:	4613      	mov	r3, r2
 8002fec:	80fb      	strh	r3, [r7, #6]
 8002fee:	e014      	b.n	800301a <ucg_DrawBox+0x46>
 8002ff0:	f9b7 3006 	ldrsh.w	r3, [r7, #6]
 8002ff4:	f9b7 2008 	ldrsh.w	r2, [r7, #8]
 8002ff8:	f9b7 100a 	ldrsh.w	r1, [r7, #10]
 8002ffc:	68f8      	ldr	r0, [r7, #12]
 8002ffe:	f001 f9ed 	bl	80043dc <ucg_DrawHLine>
 8003002:	f9b7 3018 	ldrsh.w	r3, [r7, #24]
 8003006:	b29b      	uxth	r3, r3
 8003008:	3b01      	subs	r3, #1
 800300a:	b29b      	uxth	r3, r3
 800300c:	833b      	strh	r3, [r7, #24]
 800300e:	f9b7 3008 	ldrsh.w	r3, [r7, #8]
 8003012:	b29b      	uxth	r3, r3
 8003014:	3301      	adds	r3, #1
 8003016:	b29b      	uxth	r3, r3
 8003018:	813b      	strh	r3, [r7, #8]
 800301a:	f9b7 3018 	ldrsh.w	r3, [r7, #24]
 800301e:	2b00      	cmp	r3, #0
 8003020:	dce6      	bgt.n	8002ff0 <ucg_DrawBox+0x1c>
 8003022:	bf00      	nop
 8003024:	3710      	adds	r7, #16
 8003026:	46bd      	mov	sp, r7
 8003028:	bd80      	pop	{r7, pc}

0800302a <ucg_ClearScreen>:
 800302a:	b580      	push	{r7, lr}
 800302c:	b084      	sub	sp, #16
 800302e:	af02      	add	r7, sp, #8
 8003030:	6078      	str	r0, [r7, #4]
 8003032:	2300      	movs	r3, #0
 8003034:	9300      	str	r3, [sp, #0]
 8003036:	2300      	movs	r3, #0
 8003038:	2200      	movs	r2, #0
 800303a:	2100      	movs	r1, #0
 800303c:	6878      	ldr	r0, [r7, #4]
 800303e:	f001 f9ec 	bl	800441a <ucg_SetColor>
 8003042:	6878      	ldr	r0, [r7, #4]
 8003044:	f000 fb3b 	bl	80036be <ucg_SetMaxClipRange>
 8003048:	687b      	ldr	r3, [r7, #4]
 800304a:	f9b3 2002 	ldrsh.w	r2, [r3, #2]
 800304e:	687b      	ldr	r3, [r7, #4]
 8003050:	f9b3 3004 	ldrsh.w	r3, [r3, #4]
 8003054:	9300      	str	r3, [sp, #0]
 8003056:	4613      	mov	r3, r2
 8003058:	2200      	movs	r2, #0
 800305a:	2100      	movs	r1, #0
 800305c:	6878      	ldr	r0, [r7, #4]
 800305e:	f7ff ffb9 	bl	8002fd4 <ucg_DrawBox>
 8003062:	23ff      	movs	r3, #255	; 0xff
 8003064:	9300      	str	r3, [sp, #0]
 8003066:	23ff      	movs	r3, #255	; 0xff
 8003068:	22ff      	movs	r2, #255	; 0xff
 800306a:	2100      	movs	r1, #0
 800306c:	6878      	ldr	r0, [r7, #4]
 800306e:	f001 f9d4 	bl	800441a <ucg_SetColor>
 8003072:	bf00      	nop
 8003074:	3708      	adds	r7, #8
 8003076:	46bd      	mov	sp, r7
 8003078:	bd80      	pop	{r7, pc}

0800307a <ucg_ccs_init>:
 800307a:	b480      	push	{r7}
 800307c:	b083      	sub	sp, #12
 800307e:	af00      	add	r7, sp, #0
 8003080:	6078      	str	r0, [r7, #4]
 8003082:	4608      	mov	r0, r1
 8003084:	4611      	mov	r1, r2
 8003086:	461a      	mov	r2, r3
 8003088:	4603      	mov	r3, r0
 800308a:	70fb      	strb	r3, [r7, #3]
 800308c:	460b      	mov	r3, r1
 800308e:	70bb      	strb	r3, [r7, #2]
 8003090:	4613      	mov	r3, r2
 8003092:	803b      	strh	r3, [r7, #0]
 8003094:	687b      	ldr	r3, [r7, #4]
 8003096:	78fa      	ldrb	r2, [r7, #3]
 8003098:	705a      	strb	r2, [r3, #1]
 800309a:	78bb      	ldrb	r3, [r7, #2]
 800309c:	b29a      	uxth	r2, r3
 800309e:	78fb      	ldrb	r3, [r7, #3]
 80030a0:	b29b      	uxth	r3, r3
 80030a2:	1ad3      	subs	r3, r2, r3
 80030a4:	b29b      	uxth	r3, r3
 80030a6:	b21a      	sxth	r2, r3
 80030a8:	687b      	ldr	r3, [r7, #4]
 80030aa:	809a      	strh	r2, [r3, #4]
 80030ac:	883b      	ldrh	r3, [r7, #0]
 80030ae:	3b01      	subs	r3, #1
 80030b0:	b29b      	uxth	r3, r3
 80030b2:	b21a      	sxth	r2, r3
 80030b4:	687b      	ldr	r3, [r7, #4]
 80030b6:	811a      	strh	r2, [r3, #8]
 80030b8:	687b      	ldr	r3, [r7, #4]
 80030ba:	2201      	movs	r2, #1
 80030bc:	805a      	strh	r2, [r3, #2]
 80030be:	687b      	ldr	r3, [r7, #4]
 80030c0:	f9b3 3004 	ldrsh.w	r3, [r3, #4]
 80030c4:	461a      	mov	r2, r3
 80030c6:	687b      	ldr	r3, [r7, #4]
 80030c8:	f9b3 3008 	ldrsh.w	r3, [r3, #8]
 80030cc:	fb92 f3f3 	sdiv	r3, r2, r3
 80030d0:	b21a      	sxth	r2, r3
 80030d2:	687b      	ldr	r3, [r7, #4]
 80030d4:	80da      	strh	r2, [r3, #6]
 80030d6:	687b      	ldr	r3, [r7, #4]
 80030d8:	f9b3 3004 	ldrsh.w	r3, [r3, #4]
 80030dc:	2b00      	cmp	r3, #0
 80030de:	da0c      	bge.n	80030fa <ucg_ccs_init+0x80>
 80030e0:	687b      	ldr	r3, [r7, #4]
 80030e2:	f9b3 3004 	ldrsh.w	r3, [r3, #4]
 80030e6:	b29b      	uxth	r3, r3
 80030e8:	425b      	negs	r3, r3
 80030ea:	b29b      	uxth	r3, r3
 80030ec:	b21a      	sxth	r2, r3
 80030ee:	687b      	ldr	r3, [r7, #4]
 80030f0:	809a      	strh	r2, [r3, #4]
 80030f2:	687b      	ldr	r3, [r7, #4]
 80030f4:	f64f 72ff 	movw	r2, #65535	; 0xffff
 80030f8:	805a      	strh	r2, [r3, #2]
 80030fa:	687b      	ldr	r3, [r7, #4]
 80030fc:	f9b3 3004 	ldrsh.w	r3, [r3, #4]
 8003100:	687a      	ldr	r2, [r7, #4]
 8003102:	f9b2 2008 	ldrsh.w	r2, [r2, #8]
 8003106:	fb93 f1f2 	sdiv	r1, r3, r2
 800310a:	fb02 f201 	mul.w	r2, r2, r1
 800310e:	1a9b      	subs	r3, r3, r2
 8003110:	b21a      	sxth	r2, r3
 8003112:	687b      	ldr	r3, [r7, #4]
 8003114:	815a      	strh	r2, [r3, #10]
 8003116:	687b      	ldr	r3, [r7, #4]
 8003118:	f9b3 3008 	ldrsh.w	r3, [r3, #8]
 800311c:	0fda      	lsrs	r2, r3, #31
 800311e:	4413      	add	r3, r2
 8003120:	105b      	asrs	r3, r3, #1
 8003122:	b21a      	sxth	r2, r3
 8003124:	687b      	ldr	r3, [r7, #4]
 8003126:	819a      	strh	r2, [r3, #12]
 8003128:	687b      	ldr	r3, [r7, #4]
 800312a:	78fa      	ldrb	r2, [r7, #3]
 800312c:	701a      	strb	r2, [r3, #0]
 800312e:	bf00      	nop
 8003130:	370c      	adds	r7, #12
 8003132:	46bd      	mov	sp, r7
 8003134:	f85d 7b04 	ldr.w	r7, [sp], #4
 8003138:	4770      	bx	lr

0800313a <ucg_ccs_step>:
 800313a:	b480      	push	{r7}
 800313c:	b083      	sub	sp, #12
 800313e:	af00      	add	r7, sp, #0
 8003140:	6078      	str	r0, [r7, #4]
 8003142:	687b      	ldr	r3, [r7, #4]
 8003144:	781a      	ldrb	r2, [r3, #0]
 8003146:	687b      	ldr	r3, [r7, #4]
 8003148:	f9b3 3006 	ldrsh.w	r3, [r3, #6]
 800314c:	b2db      	uxtb	r3, r3
 800314e:	4413      	add	r3, r2
 8003150:	b2da      	uxtb	r2, r3
 8003152:	687b      	ldr	r3, [r7, #4]
 8003154:	701a      	strb	r2, [r3, #0]
 8003156:	687b      	ldr	r3, [r7, #4]
 8003158:	f9b3 300c 	ldrsh.w	r3, [r3, #12]
 800315c:	b29a      	uxth	r2, r3
 800315e:	687b      	ldr	r3, [r7, #4]
 8003160:	f9b3 300a 	ldrsh.w	r3, [r3, #10]
 8003164:	b29b      	uxth	r3, r3
 8003166:	4413      	add	r3, r2
 8003168:	b29b      	uxth	r3, r3
 800316a:	b21a      	sxth	r2, r3
 800316c:	687b      	ldr	r3, [r7, #4]
 800316e:	819a      	strh	r2, [r3, #12]
 8003170:	687b      	ldr	r3, [r7, #4]
 8003172:	f9b3 200c 	ldrsh.w	r2, [r3, #12]
 8003176:	687b      	ldr	r3, [r7, #4]
 8003178:	f9b3 3008 	ldrsh.w	r3, [r3, #8]
 800317c:	429a      	cmp	r2, r3
 800317e:	db16      	blt.n	80031ae <ucg_ccs_step+0x74>
 8003180:	687b      	ldr	r3, [r7, #4]
 8003182:	781a      	ldrb	r2, [r3, #0]
 8003184:	687b      	ldr	r3, [r7, #4]
 8003186:	f9b3 3002 	ldrsh.w	r3, [r3, #2]
 800318a:	b2db      	uxtb	r3, r3
 800318c:	4413      	add	r3, r2
 800318e:	b2da      	uxtb	r2, r3
 8003190:	687b      	ldr	r3, [r7, #4]
 8003192:	701a      	strb	r2, [r3, #0]
 8003194:	687b      	ldr	r3, [r7, #4]
 8003196:	f9b3 300c 	ldrsh.w	r3, [r3, #12]
 800319a:	b29a      	uxth	r2, r3
 800319c:	687b      	ldr	r3, [r7, #4]
 800319e:	f9b3 3008 	ldrsh.w	r3, [r3, #8]
 80031a2:	b29b      	uxth	r3, r3
 80031a4:	1ad3      	subs	r3, r2, r3
 80031a6:	b29b      	uxth	r3, r3
 80031a8:	b21a      	sxth	r2, r3
 80031aa:	687b      	ldr	r3, [r7, #4]
 80031ac:	819a      	strh	r2, [r3, #12]
 80031ae:	bf00      	nop
 80031b0:	370c      	adds	r7, #12
 80031b2:	46bd      	mov	sp, r7
 80031b4:	f85d 7b04 	ldr.w	r7, [sp], #4
 80031b8:	4770      	bx	lr

080031ba <ucg_ccs_seek>:
 80031ba:	b480      	push	{r7}
 80031bc:	b085      	sub	sp, #20
 80031be:	af00      	add	r7, sp, #0
 80031c0:	6078      	str	r0, [r7, #4]
 80031c2:	460b      	mov	r3, r1
 80031c4:	807b      	strh	r3, [r7, #2]
 80031c6:	687b      	ldr	r3, [r7, #4]
 80031c8:	f9b3 3006 	ldrsh.w	r3, [r3, #6]
 80031cc:	b2da      	uxtb	r2, r3
 80031ce:	687b      	ldr	r3, [r7, #4]
 80031d0:	701a      	strb	r2, [r3, #0]
 80031d2:	687b      	ldr	r3, [r7, #4]
 80031d4:	781a      	ldrb	r2, [r3, #0]
 80031d6:	887b      	ldrh	r3, [r7, #2]
 80031d8:	b2db      	uxtb	r3, r3
 80031da:	fb12 f303 	smulbb	r3, r2, r3
 80031de:	b2da      	uxtb	r2, r3
 80031e0:	687b      	ldr	r3, [r7, #4]
 80031e2:	701a      	strb	r2, [r3, #0]
 80031e4:	687b      	ldr	r3, [r7, #4]
 80031e6:	f9b3 300a 	ldrsh.w	r3, [r3, #10]
 80031ea:	b29a      	uxth	r2, r3
 80031ec:	887b      	ldrh	r3, [r7, #2]
 80031ee:	fb12 f303 	smulbb	r3, r2, r3
 80031f2:	b29a      	uxth	r2, r3
 80031f4:	687b      	ldr	r3, [r7, #4]
 80031f6:	f9b3 3008 	ldrsh.w	r3, [r3, #8]
 80031fa:	0fd9      	lsrs	r1, r3, #31
 80031fc:	440b      	add	r3, r1
 80031fe:	105b      	asrs	r3, r3, #1
 8003200:	b21b      	sxth	r3, r3
 8003202:	b29b      	uxth	r3, r3
 8003204:	4413      	add	r3, r2
 8003206:	b29b      	uxth	r3, r3
 8003208:	81fb      	strh	r3, [r7, #14]
 800320a:	687b      	ldr	r3, [r7, #4]
 800320c:	f9b3 3002 	ldrsh.w	r3, [r3, #2]
 8003210:	2b00      	cmp	r3, #0
 8003212:	db0e      	blt.n	8003232 <ucg_ccs_seek+0x78>
 8003214:	687b      	ldr	r3, [r7, #4]
 8003216:	781a      	ldrb	r2, [r3, #0]
 8003218:	f9b7 300e 	ldrsh.w	r3, [r7, #14]
 800321c:	6879      	ldr	r1, [r7, #4]
 800321e:	f9b1 1008 	ldrsh.w	r1, [r1, #8]
 8003222:	fb93 f3f1 	sdiv	r3, r3, r1
 8003226:	b2db      	uxtb	r3, r3
 8003228:	4413      	add	r3, r2
 800322a:	b2da      	uxtb	r2, r3
 800322c:	687b      	ldr	r3, [r7, #4]
 800322e:	701a      	strb	r2, [r3, #0]
 8003230:	e00d      	b.n	800324e <ucg_ccs_seek+0x94>
 8003232:	687b      	ldr	r3, [r7, #4]
 8003234:	781a      	ldrb	r2, [r3, #0]
 8003236:	f9b7 300e 	ldrsh.w	r3, [r7, #14]
 800323a:	6879      	ldr	r1, [r7, #4]
 800323c:	f9b1 1008 	ldrsh.w	r1, [r1, #8]
 8003240:	fb93 f3f1 	sdiv	r3, r3, r1
 8003244:	b2db      	uxtb	r3, r3
 8003246:	1ad3      	subs	r3, r2, r3
 8003248:	b2da      	uxtb	r2, r3
 800324a:	687b      	ldr	r3, [r7, #4]
 800324c:	701a      	strb	r2, [r3, #0]
 800324e:	f9b7 300e 	ldrsh.w	r3, [r7, #14]
 8003252:	687a      	ldr	r2, [r7, #4]
 8003254:	f9b2 2008 	ldrsh.w	r2, [r2, #8]
 8003258:	fb93 f1f2 	sdiv	r1, r3, r2
 800325c:	fb02 f201 	mul.w	r2, r2, r1
 8003260:	1a9b      	subs	r3, r3, r2
 8003262:	b21a      	sxth	r2, r3
 8003264:	687b      	ldr	r3, [r7, #4]
 8003266:	819a      	strh	r2, [r3, #12]
 8003268:	687b      	ldr	r3, [r7, #4]
 800326a:	781a      	ldrb	r2, [r3, #0]
 800326c:	687b      	ldr	r3, [r7, #4]
 800326e:	785b      	ldrb	r3, [r3, #1]
 8003270:	4413      	add	r3, r2
 8003272:	b2da      	uxtb	r2, r3
 8003274:	687b      	ldr	r3, [r7, #4]
 8003276:	701a      	strb	r2, [r3, #0]
 8003278:	bf00      	nop
 800327a:	3714      	adds	r7, #20
 800327c:	46bd      	mov	sp, r7
 800327e:	f85d 7b04 	ldr.w	r7, [sp], #4
 8003282:	4770      	bx	lr

08003284 <ucg_dev_default_cb>:
 8003284:	b580      	push	{r7, lr}
 8003286:	b084      	sub	sp, #16
 8003288:	af00      	add	r7, sp, #0
 800328a:	60f8      	str	r0, [r7, #12]
 800328c:	460b      	mov	r3, r1
 800328e:	607a      	str	r2, [r7, #4]
 8003290:	817b      	strh	r3, [r7, #10]
 8003292:	f9b7 300a 	ldrsh.w	r3, [r7, #10]
 8003296:	2b0c      	cmp	r3, #12
 8003298:	d00a      	beq.n	80032b0 <ucg_dev_default_cb+0x2c>
 800329a:	2b17      	cmp	r3, #23
 800329c:	d10f      	bne.n	80032be <ucg_dev_default_cb+0x3a>
 800329e:	68fb      	ldr	r3, [r7, #12]
 80032a0:	68db      	ldr	r3, [r3, #12]
 80032a2:	f9b7 100a 	ldrsh.w	r1, [r7, #10]
 80032a6:	687a      	ldr	r2, [r7, #4]
 80032a8:	68f8      	ldr	r0, [r7, #12]
 80032aa:	4798      	blx	r3
 80032ac:	4603      	mov	r3, r0
 80032ae:	e007      	b.n	80032c0 <ucg_dev_default_cb+0x3c>
 80032b0:	68fb      	ldr	r3, [r7, #12]
 80032b2:	687a      	ldr	r2, [r7, #4]
 80032b4:	3370      	adds	r3, #112	; 0x70
 80032b6:	6810      	ldr	r0, [r2, #0]
 80032b8:	6851      	ldr	r1, [r2, #4]
 80032ba:	c303      	stmia	r3!, {r0, r1}
 80032bc:	bf00      	nop
 80032be:	2301      	movs	r3, #1
 80032c0:	4618      	mov	r0, r3
 80032c2:	3710      	adds	r7, #16
 80032c4:	46bd      	mov	sp, r7
 80032c6:	bd80      	pop	{r7, pc}

080032c8 <ucg_ext_none>:
 80032c8:	b480      	push	{r7}
 80032ca:	b085      	sub	sp, #20
 80032cc:	af00      	add	r7, sp, #0
 80032ce:	60f8      	str	r0, [r7, #12]
 80032d0:	460b      	mov	r3, r1
 80032d2:	607a      	str	r2, [r7, #4]
 80032d4:	817b      	strh	r3, [r7, #10]
 80032d6:	2301      	movs	r3, #1
 80032d8:	4618      	mov	r0, r3
 80032da:	3714      	adds	r7, #20
 80032dc:	46bd      	mov	sp, r7
 80032de:	f85d 7b04 	ldr.w	r7, [sp], #4
 80032e2:	4770      	bx	lr

080032e4 <ucg_handle_st7735_l90fx>:
 80032e4:	b590      	push	{r4, r7, lr}
 80032e6:	b085      	sub	sp, #20
 80032e8:	af00      	add	r7, sp, #0
 80032ea:	6078      	str	r0, [r7, #4]
 80032ec:	6878      	ldr	r0, [r7, #4]
 80032ee:	f003 fa13 	bl	8006718 <ucg_clip_l90fx>
 80032f2:	4603      	mov	r3, r0
 80032f4:	2b00      	cmp	r3, #0
 80032f6:	d053      	beq.n	80033a0 <ucg_handle_st7735_l90fx+0xbc>
 80032f8:	687b      	ldr	r3, [r7, #4]
 80032fa:	f9b3 302e 	ldrsh.w	r3, [r3, #46]	; 0x2e
 80032fe:	2b01      	cmp	r3, #1
 8003300:	d008      	beq.n	8003314 <ucg_handle_st7735_l90fx+0x30>
 8003302:	2b02      	cmp	r3, #2
 8003304:	d00b      	beq.n	800331e <ucg_handle_st7735_l90fx+0x3a>
 8003306:	2b00      	cmp	r3, #0
 8003308:	d11b      	bne.n	8003342 <ucg_handle_st7735_l90fx+0x5e>
 800330a:	4928      	ldr	r1, [pc, #160]	; (80033ac <ucg_handle_st7735_l90fx+0xc8>)
 800330c:	6878      	ldr	r0, [r7, #4]
 800330e:	f003 fd31 	bl	8006d74 <ucg_com_SendCmdSeq>
 8003312:	e028      	b.n	8003366 <ucg_handle_st7735_l90fx+0x82>
 8003314:	4926      	ldr	r1, [pc, #152]	; (80033b0 <ucg_handle_st7735_l90fx+0xcc>)
 8003316:	6878      	ldr	r0, [r7, #4]
 8003318:	f003 fd2c 	bl	8006d74 <ucg_com_SendCmdSeq>
 800331c:	e023      	b.n	8003366 <ucg_handle_st7735_l90fx+0x82>
 800331e:	687b      	ldr	r3, [r7, #4]
 8003320:	8c9b      	ldrh	r3, [r3, #36]	; 0x24
 8003322:	81fb      	strh	r3, [r7, #14]
 8003324:	89fb      	ldrh	r3, [r7, #14]
 8003326:	f1c3 037f 	rsb	r3, r3, #127	; 0x7f
 800332a:	b29b      	uxth	r3, r3
 800332c:	b21a      	sxth	r2, r3
 800332e:	687b      	ldr	r3, [r7, #4]
 8003330:	849a      	strh	r2, [r3, #36]	; 0x24
 8003332:	4920      	ldr	r1, [pc, #128]	; (80033b4 <ucg_handle_st7735_l90fx+0xd0>)
 8003334:	6878      	ldr	r0, [r7, #4]
 8003336:	f003 fd1d 	bl	8006d74 <ucg_com_SendCmdSeq>
 800333a:	687b      	ldr	r3, [r7, #4]
 800333c:	89fa      	ldrh	r2, [r7, #14]
 800333e:	849a      	strh	r2, [r3, #36]	; 0x24
 8003340:	e011      	b.n	8003366 <ucg_handle_st7735_l90fx+0x82>
 8003342:	687b      	ldr	r3, [r7, #4]
 8003344:	8cdb      	ldrh	r3, [r3, #38]	; 0x26
 8003346:	81fb      	strh	r3, [r7, #14]
 8003348:	89fb      	ldrh	r3, [r7, #14]
 800334a:	f1c3 037f 	rsb	r3, r3, #127	; 0x7f
 800334e:	b29b      	uxth	r3, r3
 8003350:	b21a      	sxth	r2, r3
 8003352:	687b      	ldr	r3, [r7, #4]
 8003354:	84da      	strh	r2, [r3, #38]	; 0x26
 8003356:	4918      	ldr	r1, [pc, #96]	; (80033b8 <ucg_handle_st7735_l90fx+0xd4>)
 8003358:	6878      	ldr	r0, [r7, #4]
 800335a:	f003 fd0b 	bl	8006d74 <ucg_com_SendCmdSeq>
 800335e:	687b      	ldr	r3, [r7, #4]
 8003360:	89fa      	ldrh	r2, [r7, #14]
 8003362:	84da      	strh	r2, [r3, #38]	; 0x26
 8003364:	bf00      	nop
 8003366:	687b      	ldr	r3, [r7, #4]
 8003368:	f893 3028 	ldrb.w	r3, [r3, #40]	; 0x28
 800336c:	723b      	strb	r3, [r7, #8]
 800336e:	687b      	ldr	r3, [r7, #4]
 8003370:	f893 3029 	ldrb.w	r3, [r3, #41]	; 0x29
 8003374:	727b      	strb	r3, [r7, #9]
 8003376:	687b      	ldr	r3, [r7, #4]
 8003378:	f893 302a 	ldrb.w	r3, [r3, #42]	; 0x2a
 800337c:	72bb      	strb	r3, [r7, #10]
 800337e:	687b      	ldr	r3, [r7, #4]
 8003380:	69dc      	ldr	r4, [r3, #28]
 8003382:	687b      	ldr	r3, [r7, #4]
 8003384:	f9b3 302c 	ldrsh.w	r3, [r3, #44]	; 0x2c
 8003388:	b29a      	uxth	r2, r3
 800338a:	f107 0308 	add.w	r3, r7, #8
 800338e:	2113      	movs	r1, #19
 8003390:	6878      	ldr	r0, [r7, #4]
 8003392:	47a0      	blx	r4
 8003394:	2101      	movs	r1, #1
 8003396:	6878      	ldr	r0, [r7, #4]
 8003398:	f003 fc38 	bl	8006c0c <ucg_com_SetCSLineStatus>
 800339c:	2301      	movs	r3, #1
 800339e:	e000      	b.n	80033a2 <ucg_handle_st7735_l90fx+0xbe>
 80033a0:	2300      	movs	r3, #0
 80033a2:	4618      	mov	r0, r3
 80033a4:	3714      	adds	r7, #20
 80033a6:	46bd      	mov	sp, r7
 80033a8:	bd90      	pop	{r4, r7, pc}
 80033aa:	bf00      	nop
 80033ac:	080079c8 	.word	0x080079c8
 80033b0:	080079e8 	.word	0x080079e8
 80033b4:	08007a0c 	.word	0x08007a0c
 80033b8:	08007a30 	.word	0x08007a30

080033bc <ucg_handle_st7735_l90se>:
 80033bc:	b590      	push	{r4, r7, lr}
 80033be:	b087      	sub	sp, #28
 80033c0:	af00      	add	r7, sp, #0
 80033c2:	6078      	str	r0, [r7, #4]
 80033c4:	2300      	movs	r3, #0
 80033c6:	75fb      	strb	r3, [r7, #23]
 80033c8:	e01a      	b.n	8003400 <ucg_handle_st7735_l90se+0x44>
 80033ca:	687b      	ldr	r3, [r7, #4]
 80033cc:	f103 0146 	add.w	r1, r3, #70	; 0x46
 80033d0:	7dfa      	ldrb	r2, [r7, #23]
 80033d2:	4613      	mov	r3, r2
 80033d4:	00db      	lsls	r3, r3, #3
 80033d6:	1a9b      	subs	r3, r3, r2
 80033d8:	005b      	lsls	r3, r3, #1
 80033da:	18c8      	adds	r0, r1, r3
 80033dc:	7dfb      	ldrb	r3, [r7, #23]
 80033de:	687a      	ldr	r2, [r7, #4]
 80033e0:	4413      	add	r3, r2
 80033e2:	f893 103a 	ldrb.w	r1, [r3, #58]	; 0x3a
 80033e6:	7dfb      	ldrb	r3, [r7, #23]
 80033e8:	687a      	ldr	r2, [r7, #4]
 80033ea:	4413      	add	r3, r2
 80033ec:	f893 203d 	ldrb.w	r2, [r3, #61]	; 0x3d
 80033f0:	687b      	ldr	r3, [r7, #4]
 80033f2:	f9b3 302c 	ldrsh.w	r3, [r3, #44]	; 0x2c
 80033f6:	f7ff fe40 	bl	800307a <ucg_ccs_init>
 80033fa:	7dfb      	ldrb	r3, [r7, #23]
 80033fc:	3301      	adds	r3, #1
 80033fe:	75fb      	strb	r3, [r7, #23]
 8003400:	7dfb      	ldrb	r3, [r7, #23]
 8003402:	2b02      	cmp	r3, #2
 8003404:	d9e1      	bls.n	80033ca <ucg_handle_st7735_l90se+0xe>
 8003406:	6878      	ldr	r0, [r7, #4]
 8003408:	f003 fb06 	bl	8006a18 <ucg_clip_l90se>
 800340c:	4603      	mov	r3, r0
 800340e:	2b00      	cmp	r3, #0
 8003410:	d071      	beq.n	80034f6 <ucg_handle_st7735_l90se+0x13a>
 8003412:	687b      	ldr	r3, [r7, #4]
 8003414:	f9b3 302e 	ldrsh.w	r3, [r3, #46]	; 0x2e
 8003418:	2b01      	cmp	r3, #1
 800341a:	d008      	beq.n	800342e <ucg_handle_st7735_l90se+0x72>
 800341c:	2b02      	cmp	r3, #2
 800341e:	d00b      	beq.n	8003438 <ucg_handle_st7735_l90se+0x7c>
 8003420:	2b00      	cmp	r3, #0
 8003422:	d11b      	bne.n	800345c <ucg_handle_st7735_l90se+0xa0>
 8003424:	4936      	ldr	r1, [pc, #216]	; (8003500 <ucg_handle_st7735_l90se+0x144>)
 8003426:	6878      	ldr	r0, [r7, #4]
 8003428:	f003 fca4 	bl	8006d74 <ucg_com_SendCmdSeq>
 800342c:	e028      	b.n	8003480 <ucg_handle_st7735_l90se+0xc4>
 800342e:	4935      	ldr	r1, [pc, #212]	; (8003504 <ucg_handle_st7735_l90se+0x148>)
 8003430:	6878      	ldr	r0, [r7, #4]
 8003432:	f003 fc9f 	bl	8006d74 <ucg_com_SendCmdSeq>
 8003436:	e023      	b.n	8003480 <ucg_handle_st7735_l90se+0xc4>
 8003438:	687b      	ldr	r3, [r7, #4]
 800343a:	8c9b      	ldrh	r3, [r3, #36]	; 0x24
 800343c:	827b      	strh	r3, [r7, #18]
 800343e:	8a7b      	ldrh	r3, [r7, #18]
 8003440:	f1c3 037f 	rsb	r3, r3, #127	; 0x7f
 8003444:	b29b      	uxth	r3, r3
 8003446:	b21a      	sxth	r2, r3
 8003448:	687b      	ldr	r3, [r7, #4]
 800344a:	849a      	strh	r2, [r3, #36]	; 0x24
 800344c:	492e      	ldr	r1, [pc, #184]	; (8003508 <ucg_handle_st7735_l90se+0x14c>)
 800344e:	6878      	ldr	r0, [r7, #4]
 8003450:	f003 fc90 	bl	8006d74 <ucg_com_SendCmdSeq>
 8003454:	687b      	ldr	r3, [r7, #4]
 8003456:	8a7a      	ldrh	r2, [r7, #18]
 8003458:	849a      	strh	r2, [r3, #36]	; 0x24
 800345a:	e011      	b.n	8003480 <ucg_handle_st7735_l90se+0xc4>
 800345c:	687b      	ldr	r3, [r7, #4]
 800345e:	8cdb      	ldrh	r3, [r3, #38]	; 0x26
 8003460:	827b      	strh	r3, [r7, #18]
 8003462:	8a7b      	ldrh	r3, [r7, #18]
 8003464:	f1c3 037f 	rsb	r3, r3, #127	; 0x7f
 8003468:	b29b      	uxth	r3, r3
 800346a:	b21a      	sxth	r2, r3
 800346c:	687b      	ldr	r3, [r7, #4]
 800346e:	84da      	strh	r2, [r3, #38]	; 0x26
 8003470:	4926      	ldr	r1, [pc, #152]	; (800350c <ucg_handle_st7735_l90se+0x150>)
 8003472:	6878      	ldr	r0, [r7, #4]
 8003474:	f003 fc7e 	bl	8006d74 <ucg_com_SendCmdSeq>
 8003478:	687b      	ldr	r3, [r7, #4]
 800347a:	8a7a      	ldrh	r2, [r7, #18]
 800347c:	84da      	strh	r2, [r3, #38]	; 0x26
 800347e:	bf00      	nop
 8003480:	2300      	movs	r3, #0
 8003482:	82bb      	strh	r3, [r7, #20]
 8003484:	e02a      	b.n	80034dc <ucg_handle_st7735_l90se+0x120>
 8003486:	687b      	ldr	r3, [r7, #4]
 8003488:	f893 3046 	ldrb.w	r3, [r3, #70]	; 0x46
 800348c:	733b      	strb	r3, [r7, #12]
 800348e:	687b      	ldr	r3, [r7, #4]
 8003490:	f893 3054 	ldrb.w	r3, [r3, #84]	; 0x54
 8003494:	737b      	strb	r3, [r7, #13]
 8003496:	687b      	ldr	r3, [r7, #4]
 8003498:	f893 3062 	ldrb.w	r3, [r3, #98]	; 0x62
 800349c:	73bb      	strb	r3, [r7, #14]
 800349e:	687b      	ldr	r3, [r7, #4]
 80034a0:	69dc      	ldr	r4, [r3, #28]
 80034a2:	f107 030c 	add.w	r3, r7, #12
 80034a6:	2201      	movs	r2, #1
 80034a8:	2113      	movs	r1, #19
 80034aa:	6878      	ldr	r0, [r7, #4]
 80034ac:	47a0      	blx	r4
 80034ae:	687b      	ldr	r3, [r7, #4]
 80034b0:	3346      	adds	r3, #70	; 0x46
 80034b2:	4618      	mov	r0, r3
 80034b4:	f7ff fe41 	bl	800313a <ucg_ccs_step>
 80034b8:	687b      	ldr	r3, [r7, #4]
 80034ba:	3346      	adds	r3, #70	; 0x46
 80034bc:	330e      	adds	r3, #14
 80034be:	4618      	mov	r0, r3
 80034c0:	f7ff fe3b 	bl	800313a <ucg_ccs_step>
 80034c4:	687b      	ldr	r3, [r7, #4]
 80034c6:	3346      	adds	r3, #70	; 0x46
 80034c8:	331c      	adds	r3, #28
 80034ca:	4618      	mov	r0, r3
 80034cc:	f7ff fe35 	bl	800313a <ucg_ccs_step>
 80034d0:	f9b7 3014 	ldrsh.w	r3, [r7, #20]
 80034d4:	b29b      	uxth	r3, r3
 80034d6:	3301      	adds	r3, #1
 80034d8:	b29b      	uxth	r3, r3
 80034da:	82bb      	strh	r3, [r7, #20]
 80034dc:	687b      	ldr	r3, [r7, #4]
 80034de:	f9b3 302c 	ldrsh.w	r3, [r3, #44]	; 0x2c
 80034e2:	f9b7 2014 	ldrsh.w	r2, [r7, #20]
 80034e6:	429a      	cmp	r2, r3
 80034e8:	dbcd      	blt.n	8003486 <ucg_handle_st7735_l90se+0xca>
 80034ea:	2101      	movs	r1, #1
 80034ec:	6878      	ldr	r0, [r7, #4]
 80034ee:	f003 fb8d 	bl	8006c0c <ucg_com_SetCSLineStatus>
 80034f2:	2301      	movs	r3, #1
 80034f4:	e000      	b.n	80034f8 <ucg_handle_st7735_l90se+0x13c>
 80034f6:	2300      	movs	r3, #0
 80034f8:	4618      	mov	r0, r3
 80034fa:	371c      	adds	r7, #28
 80034fc:	46bd      	mov	sp, r7
 80034fe:	bd90      	pop	{r4, r7, pc}
 8003500:	080079c8 	.word	0x080079c8
 8003504:	080079e8 	.word	0x080079e8
 8003508:	08007a0c 	.word	0x08007a0c
 800350c:	08007a30 	.word	0x08007a30

08003510 <ucg_dev_ic_st7735_18>:
 8003510:	b590      	push	{r4, r7, lr}
 8003512:	b087      	sub	sp, #28
 8003514:	af00      	add	r7, sp, #0
 8003516:	60f8      	str	r0, [r7, #12]
 8003518:	460b      	mov	r3, r1
 800351a:	607a      	str	r2, [r7, #4]
 800351c:	817b      	strh	r3, [r7, #10]
 800351e:	f9b7 300a 	ldrsh.w	r3, [r7, #10]
 8003522:	3b0a      	subs	r3, #10
 8003524:	2b0b      	cmp	r3, #11
 8003526:	d85f      	bhi.n	80035e8 <ucg_dev_ic_st7735_18+0xd8>
 8003528:	a201      	add	r2, pc, #4	; (adr r2, 8003530 <ucg_dev_ic_st7735_18+0x20>)
 800352a:	f852 f023 	ldr.w	pc, [r2, r3, lsl #2]
 800352e:	bf00      	nop
 8003530:	08003561 	.word	0x08003561
 8003534:	0800357b 	.word	0x0800357b
 8003538:	080035e9 	.word	0x080035e9
 800353c:	080035e9 	.word	0x080035e9
 8003540:	080035e9 	.word	0x080035e9
 8003544:	08003587 	.word	0x08003587
 8003548:	080035e9 	.word	0x080035e9
 800354c:	080035e9 	.word	0x080035e9
 8003550:	080035e9 	.word	0x080035e9
 8003554:	080035e9 	.word	0x080035e9
 8003558:	08003597 	.word	0x08003597
 800355c:	080035df 	.word	0x080035df
 8003560:	68fb      	ldr	r3, [r7, #12]
 8003562:	2202      	movs	r2, #2
 8003564:	841a      	strh	r2, [r3, #32]
 8003566:	68fb      	ldr	r3, [r7, #12]
 8003568:	2201      	movs	r2, #1
 800356a:	845a      	strh	r2, [r3, #34]	; 0x22
 800356c:	2242      	movs	r2, #66	; 0x42
 800356e:	2164      	movs	r1, #100	; 0x64
 8003570:	68f8      	ldr	r0, [r7, #12]
 8003572:	f003 fa9a 	bl	8006aaa <ucg_com_PowerUp>
 8003576:	4603      	mov	r3, r0
 8003578:	e03e      	b.n	80035f8 <ucg_dev_ic_st7735_18+0xe8>
 800357a:	4921      	ldr	r1, [pc, #132]	; (8003600 <ucg_dev_ic_st7735_18+0xf0>)
 800357c:	68f8      	ldr	r0, [r7, #12]
 800357e:	f003 fbf9 	bl	8006d74 <ucg_com_SendCmdSeq>
 8003582:	2301      	movs	r3, #1
 8003584:	e038      	b.n	80035f8 <ucg_dev_ic_st7735_18+0xe8>
 8003586:	687b      	ldr	r3, [r7, #4]
 8003588:	2280      	movs	r2, #128	; 0x80
 800358a:	801a      	strh	r2, [r3, #0]
 800358c:	687b      	ldr	r3, [r7, #4]
 800358e:	2280      	movs	r2, #128	; 0x80
 8003590:	805a      	strh	r2, [r3, #2]
 8003592:	2301      	movs	r3, #1
 8003594:	e030      	b.n	80035f8 <ucg_dev_ic_st7735_18+0xe8>
 8003596:	68f8      	ldr	r0, [r7, #12]
 8003598:	f003 f8a4 	bl	80066e4 <ucg_clip_is_pixel_visible>
 800359c:	4603      	mov	r3, r0
 800359e:	2b00      	cmp	r3, #0
 80035a0:	d01b      	beq.n	80035da <ucg_dev_ic_st7735_18+0xca>
 80035a2:	4918      	ldr	r1, [pc, #96]	; (8003604 <ucg_dev_ic_st7735_18+0xf4>)
 80035a4:	68f8      	ldr	r0, [r7, #12]
 80035a6:	f003 fbe5 	bl	8006d74 <ucg_com_SendCmdSeq>
 80035aa:	68fb      	ldr	r3, [r7, #12]
 80035ac:	f893 3028 	ldrb.w	r3, [r3, #40]	; 0x28
 80035b0:	753b      	strb	r3, [r7, #20]
 80035b2:	68fb      	ldr	r3, [r7, #12]
 80035b4:	f893 3029 	ldrb.w	r3, [r3, #41]	; 0x29
 80035b8:	757b      	strb	r3, [r7, #21]
 80035ba:	68fb      	ldr	r3, [r7, #12]
 80035bc:	f893 302a 	ldrb.w	r3, [r3, #42]	; 0x2a
 80035c0:	75bb      	strb	r3, [r7, #22]
 80035c2:	68fb      	ldr	r3, [r7, #12]
 80035c4:	69dc      	ldr	r4, [r3, #28]
 80035c6:	f107 0314 	add.w	r3, r7, #20
 80035ca:	2201      	movs	r2, #1
 80035cc:	2113      	movs	r1, #19
 80035ce:	68f8      	ldr	r0, [r7, #12]
 80035d0:	47a0      	blx	r4
 80035d2:	2101      	movs	r1, #1
 80035d4:	68f8      	ldr	r0, [r7, #12]
 80035d6:	f003 fb19 	bl	8006c0c <ucg_com_SetCSLineStatus>
 80035da:	2301      	movs	r3, #1
 80035dc:	e00c      	b.n	80035f8 <ucg_dev_ic_st7735_18+0xe8>
 80035de:	68f8      	ldr	r0, [r7, #12]
 80035e0:	f7ff fe80 	bl	80032e4 <ucg_handle_st7735_l90fx>
 80035e4:	2301      	movs	r3, #1
 80035e6:	e007      	b.n	80035f8 <ucg_dev_ic_st7735_18+0xe8>
 80035e8:	f9b7 300a 	ldrsh.w	r3, [r7, #10]
 80035ec:	687a      	ldr	r2, [r7, #4]
 80035ee:	4619      	mov	r1, r3
 80035f0:	68f8      	ldr	r0, [r7, #12]
 80035f2:	f7ff fe47 	bl	8003284 <ucg_dev_default_cb>
 80035f6:	4603      	mov	r3, r0
 80035f8:	4618      	mov	r0, r3
 80035fa:	371c      	adds	r7, #28
 80035fc:	46bd      	mov	sp, r7
 80035fe:	bd90      	pop	{r4, r7, pc}
 8003600:	08007a54 	.word	0x08007a54
 8003604:	080079a8 	.word	0x080079a8

08003608 <ucg_ext_st7735_18>:
 8003608:	b580      	push	{r7, lr}
 800360a:	b084      	sub	sp, #16
 800360c:	af00      	add	r7, sp, #0
 800360e:	60f8      	str	r0, [r7, #12]
 8003610:	460b      	mov	r3, r1
 8003612:	607a      	str	r2, [r7, #4]
 8003614:	817b      	strh	r3, [r7, #10]
 8003616:	f9b7 300a 	ldrsh.w	r3, [r7, #10]
 800361a:	2b17      	cmp	r3, #23
 800361c:	d103      	bne.n	8003626 <ucg_ext_st7735_18+0x1e>
 800361e:	68f8      	ldr	r0, [r7, #12]
 8003620:	f7ff fecc 	bl	80033bc <ucg_handle_st7735_l90se>
 8003624:	bf00      	nop
 8003626:	2301      	movs	r3, #1
 8003628:	4618      	mov	r0, r3
 800362a:	3710      	adds	r7, #16
 800362c:	46bd      	mov	sp, r7
 800362e:	bd80      	pop	{r7, pc}

08003630 <ucg_PowerDown>:
 8003630:	b580      	push	{r7, lr}
 8003632:	b082      	sub	sp, #8
 8003634:	af00      	add	r7, sp, #0
 8003636:	6078      	str	r0, [r7, #4]
 8003638:	687b      	ldr	r3, [r7, #4]
 800363a:	781b      	ldrb	r3, [r3, #0]
 800363c:	f003 0301 	and.w	r3, r3, #1
 8003640:	b2db      	uxtb	r3, r3
 8003642:	2b00      	cmp	r3, #0
 8003644:	d00a      	beq.n	800365c <ucg_PowerDown+0x2c>
 8003646:	687b      	ldr	r3, [r7, #4]
 8003648:	689b      	ldr	r3, [r3, #8]
 800364a:	2200      	movs	r2, #0
 800364c:	210b      	movs	r1, #11
 800364e:	6878      	ldr	r0, [r7, #4]
 8003650:	4798      	blx	r3
 8003652:	687a      	ldr	r2, [r7, #4]
 8003654:	7813      	ldrb	r3, [r2, #0]
 8003656:	f36f 0300 	bfc	r3, #0, #1
 800365a:	7013      	strb	r3, [r2, #0]
 800365c:	bf00      	nop
 800365e:	3708      	adds	r7, #8
 8003660:	46bd      	mov	sp, r7
 8003662:	bd80      	pop	{r7, pc}

08003664 <ucg_PowerUp>:
 8003664:	b580      	push	{r7, lr}
 8003666:	b084      	sub	sp, #16
 8003668:	af00      	add	r7, sp, #0
 800366a:	6078      	str	r0, [r7, #4]
 800366c:	6878      	ldr	r0, [r7, #4]
 800366e:	f7ff ffdf 	bl	8003630 <ucg_PowerDown>
 8003672:	687b      	ldr	r3, [r7, #4]
 8003674:	689b      	ldr	r3, [r3, #8]
 8003676:	2200      	movs	r2, #0
 8003678:	210a      	movs	r1, #10
 800367a:	6878      	ldr	r0, [r7, #4]
 800367c:	4798      	blx	r3
 800367e:	4603      	mov	r3, r0
 8003680:	81fb      	strh	r3, [r7, #14]
 8003682:	f9b7 300e 	ldrsh.w	r3, [r7, #14]
 8003686:	2b00      	cmp	r3, #0
 8003688:	d004      	beq.n	8003694 <ucg_PowerUp+0x30>
 800368a:	687a      	ldr	r2, [r7, #4]
 800368c:	7813      	ldrb	r3, [r2, #0]
 800368e:	f043 0301 	orr.w	r3, r3, #1
 8003692:	7013      	strb	r3, [r2, #0]
 8003694:	f9b7 300e 	ldrsh.w	r3, [r7, #14]
 8003698:	4618      	mov	r0, r3
 800369a:	3710      	adds	r7, #16
 800369c:	46bd      	mov	sp, r7
 800369e:	bd80      	pop	{r7, pc}

080036a0 <ucg_SetClipBox>:
 80036a0:	b580      	push	{r7, lr}
 80036a2:	b082      	sub	sp, #8
 80036a4:	af00      	add	r7, sp, #0
 80036a6:	6078      	str	r0, [r7, #4]
 80036a8:	6039      	str	r1, [r7, #0]
 80036aa:	687b      	ldr	r3, [r7, #4]
 80036ac:	689b      	ldr	r3, [r3, #8]
 80036ae:	683a      	ldr	r2, [r7, #0]
 80036b0:	210c      	movs	r1, #12
 80036b2:	6878      	ldr	r0, [r7, #4]
 80036b4:	4798      	blx	r3
 80036b6:	bf00      	nop
 80036b8:	3708      	adds	r7, #8
 80036ba:	46bd      	mov	sp, r7
 80036bc:	bd80      	pop	{r7, pc}

080036be <ucg_SetMaxClipRange>:
 80036be:	b580      	push	{r7, lr}
 80036c0:	b084      	sub	sp, #16
 80036c2:	af00      	add	r7, sp, #0
 80036c4:	6078      	str	r0, [r7, #4]
 80036c6:	687a      	ldr	r2, [r7, #4]
 80036c8:	f107 030c 	add.w	r3, r7, #12
 80036cc:	3202      	adds	r2, #2
 80036ce:	6810      	ldr	r0, [r2, #0]
 80036d0:	6018      	str	r0, [r3, #0]
 80036d2:	2300      	movs	r3, #0
 80036d4:	813b      	strh	r3, [r7, #8]
 80036d6:	2300      	movs	r3, #0
 80036d8:	817b      	strh	r3, [r7, #10]
 80036da:	f107 0308 	add.w	r3, r7, #8
 80036de:	4619      	mov	r1, r3
 80036e0:	6878      	ldr	r0, [r7, #4]
 80036e2:	f7ff ffdd 	bl	80036a0 <ucg_SetClipBox>
 80036e6:	bf00      	nop
 80036e8:	3710      	adds	r7, #16
 80036ea:	46bd      	mov	sp, r7
 80036ec:	bd80      	pop	{r7, pc}

080036ee <ucg_GetDimension>:
 80036ee:	b580      	push	{r7, lr}
 80036f0:	b082      	sub	sp, #8
 80036f2:	af00      	add	r7, sp, #0
 80036f4:	6078      	str	r0, [r7, #4]
 80036f6:	687b      	ldr	r3, [r7, #4]
 80036f8:	689b      	ldr	r3, [r3, #8]
 80036fa:	687a      	ldr	r2, [r7, #4]
 80036fc:	3202      	adds	r2, #2
 80036fe:	210f      	movs	r1, #15
 8003700:	6878      	ldr	r0, [r7, #4]
 8003702:	4798      	blx	r3
 8003704:	6878      	ldr	r0, [r7, #4]
 8003706:	f7ff ffda 	bl	80036be <ucg_SetMaxClipRange>
 800370a:	bf00      	nop
 800370c:	3708      	adds	r7, #8
 800370e:	46bd      	mov	sp, r7
 8003710:	bd80      	pop	{r7, pc}

08003712 <ucg_DrawL90FXWithArg>:
 8003712:	b580      	push	{r7, lr}
 8003714:	b082      	sub	sp, #8
 8003716:	af00      	add	r7, sp, #0
 8003718:	6078      	str	r0, [r7, #4]
 800371a:	687b      	ldr	r3, [r7, #4]
 800371c:	689b      	ldr	r3, [r3, #8]
 800371e:	687a      	ldr	r2, [r7, #4]
 8003720:	3224      	adds	r2, #36	; 0x24
 8003722:	2115      	movs	r1, #21
 8003724:	6878      	ldr	r0, [r7, #4]
 8003726:	4798      	blx	r3
 8003728:	bf00      	nop
 800372a:	3708      	adds	r7, #8
 800372c:	46bd      	mov	sp, r7
 800372e:	bd80      	pop	{r7, pc}

08003730 <ucg_dev_st7735_18x128x128>:
 8003730:	b580      	push	{r7, lr}
 8003732:	b084      	sub	sp, #16
 8003734:	af00      	add	r7, sp, #0
 8003736:	60f8      	str	r0, [r7, #12]
 8003738:	460b      	mov	r3, r1
 800373a:	607a      	str	r2, [r7, #4]
 800373c:	817b      	strh	r3, [r7, #10]
 800373e:	f9b7 300a 	ldrsh.w	r3, [r7, #10]
 8003742:	2b0b      	cmp	r3, #11
 8003744:	d015      	beq.n	8003772 <ucg_dev_st7735_18x128x128+0x42>
 8003746:	2b0f      	cmp	r3, #15
 8003748:	d01c      	beq.n	8003784 <ucg_dev_st7735_18x128x128+0x54>
 800374a:	2b0a      	cmp	r3, #10
 800374c:	d122      	bne.n	8003794 <ucg_dev_st7735_18x128x128+0x64>
 800374e:	f9b7 300a 	ldrsh.w	r3, [r7, #10]
 8003752:	687a      	ldr	r2, [r7, #4]
 8003754:	4619      	mov	r1, r3
 8003756:	68f8      	ldr	r0, [r7, #12]
 8003758:	f7ff feda 	bl	8003510 <ucg_dev_ic_st7735_18>
 800375c:	4603      	mov	r3, r0
 800375e:	2b00      	cmp	r3, #0
 8003760:	d101      	bne.n	8003766 <ucg_dev_st7735_18x128x128+0x36>
 8003762:	2300      	movs	r3, #0
 8003764:	e01e      	b.n	80037a4 <ucg_dev_st7735_18x128x128+0x74>
 8003766:	4911      	ldr	r1, [pc, #68]	; (80037ac <ucg_dev_st7735_18x128x128+0x7c>)
 8003768:	68f8      	ldr	r0, [r7, #12]
 800376a:	f003 fb03 	bl	8006d74 <ucg_com_SendCmdSeq>
 800376e:	2301      	movs	r3, #1
 8003770:	e018      	b.n	80037a4 <ucg_dev_st7735_18x128x128+0x74>
 8003772:	f9b7 300a 	ldrsh.w	r3, [r7, #10]
 8003776:	687a      	ldr	r2, [r7, #4]
 8003778:	4619      	mov	r1, r3
 800377a:	68f8      	ldr	r0, [r7, #12]
 800377c:	f7ff fec8 	bl	8003510 <ucg_dev_ic_st7735_18>
 8003780:	4603      	mov	r3, r0
 8003782:	e00f      	b.n	80037a4 <ucg_dev_st7735_18x128x128+0x74>
 8003784:	687b      	ldr	r3, [r7, #4]
 8003786:	2280      	movs	r2, #128	; 0x80
 8003788:	801a      	strh	r2, [r3, #0]
 800378a:	687b      	ldr	r3, [r7, #4]
 800378c:	2280      	movs	r2, #128	; 0x80
 800378e:	805a      	strh	r2, [r3, #2]
 8003790:	2301      	movs	r3, #1
 8003792:	e007      	b.n	80037a4 <ucg_dev_st7735_18x128x128+0x74>
 8003794:	f9b7 300a 	ldrsh.w	r3, [r7, #10]
 8003798:	687a      	ldr	r2, [r7, #4]
 800379a:	4619      	mov	r1, r3
 800379c:	68f8      	ldr	r0, [r7, #12]
 800379e:	f7ff feb7 	bl	8003510 <ucg_dev_ic_st7735_18>
 80037a2:	4603      	mov	r3, r0
 80037a4:	4618      	mov	r0, r3
 80037a6:	3710      	adds	r7, #16
 80037a8:	46bd      	mov	sp, r7
 80037aa:	bd80      	pop	{r7, pc}
 80037ac:	08007a5c 	.word	0x08007a5c

080037b0 <ucg_font_get_byte>:
 80037b0:	b480      	push	{r7}
 80037b2:	b083      	sub	sp, #12
 80037b4:	af00      	add	r7, sp, #0
 80037b6:	6078      	str	r0, [r7, #4]
 80037b8:	460b      	mov	r3, r1
 80037ba:	70fb      	strb	r3, [r7, #3]
 80037bc:	78fb      	ldrb	r3, [r7, #3]
 80037be:	687a      	ldr	r2, [r7, #4]
 80037c0:	4413      	add	r3, r2
 80037c2:	607b      	str	r3, [r7, #4]
 80037c4:	687b      	ldr	r3, [r7, #4]
 80037c6:	781b      	ldrb	r3, [r3, #0]
 80037c8:	4618      	mov	r0, r3
 80037ca:	370c      	adds	r7, #12
 80037cc:	46bd      	mov	sp, r7
 80037ce:	f85d 7b04 	ldr.w	r7, [sp], #4
 80037d2:	4770      	bx	lr

080037d4 <ucg_font_get_word>:
 80037d4:	b480      	push	{r7}
 80037d6:	b085      	sub	sp, #20
 80037d8:	af00      	add	r7, sp, #0
 80037da:	6078      	str	r0, [r7, #4]
 80037dc:	460b      	mov	r3, r1
 80037de:	70fb      	strb	r3, [r7, #3]
 80037e0:	78fb      	ldrb	r3, [r7, #3]
 80037e2:	687a      	ldr	r2, [r7, #4]
 80037e4:	4413      	add	r3, r2
 80037e6:	607b      	str	r3, [r7, #4]
 80037e8:	687b      	ldr	r3, [r7, #4]
 80037ea:	781b      	ldrb	r3, [r3, #0]
 80037ec:	81fb      	strh	r3, [r7, #14]
 80037ee:	687b      	ldr	r3, [r7, #4]
 80037f0:	3301      	adds	r3, #1
 80037f2:	607b      	str	r3, [r7, #4]
 80037f4:	89fb      	ldrh	r3, [r7, #14]
 80037f6:	021b      	lsls	r3, r3, #8
 80037f8:	81fb      	strh	r3, [r7, #14]
 80037fa:	687b      	ldr	r3, [r7, #4]
 80037fc:	781b      	ldrb	r3, [r3, #0]
 80037fe:	b29a      	uxth	r2, r3
 8003800:	89fb      	ldrh	r3, [r7, #14]
 8003802:	4413      	add	r3, r2
 8003804:	81fb      	strh	r3, [r7, #14]
 8003806:	89fb      	ldrh	r3, [r7, #14]
 8003808:	4618      	mov	r0, r3
 800380a:	3714      	adds	r7, #20
 800380c:	46bd      	mov	sp, r7
 800380e:	f85d 7b04 	ldr.w	r7, [sp], #4
 8003812:	4770      	bx	lr

08003814 <ucg_read_font_info>:
 8003814:	b580      	push	{r7, lr}
 8003816:	b082      	sub	sp, #8
 8003818:	af00      	add	r7, sp, #0
 800381a:	6078      	str	r0, [r7, #4]
 800381c:	6039      	str	r1, [r7, #0]
 800381e:	2100      	movs	r1, #0
 8003820:	6838      	ldr	r0, [r7, #0]
 8003822:	f7ff ffc5 	bl	80037b0 <ucg_font_get_byte>
 8003826:	4603      	mov	r3, r0
 8003828:	461a      	mov	r2, r3
 800382a:	687b      	ldr	r3, [r7, #4]
 800382c:	701a      	strb	r2, [r3, #0]
 800382e:	2101      	movs	r1, #1
 8003830:	6838      	ldr	r0, [r7, #0]
 8003832:	f7ff ffbd 	bl	80037b0 <ucg_font_get_byte>
 8003836:	4603      	mov	r3, r0
 8003838:	461a      	mov	r2, r3
 800383a:	687b      	ldr	r3, [r7, #4]
 800383c:	705a      	strb	r2, [r3, #1]
 800383e:	2102      	movs	r1, #2
 8003840:	6838      	ldr	r0, [r7, #0]
 8003842:	f7ff ffb5 	bl	80037b0 <ucg_font_get_byte>
 8003846:	4603      	mov	r3, r0
 8003848:	461a      	mov	r2, r3
 800384a:	687b      	ldr	r3, [r7, #4]
 800384c:	709a      	strb	r2, [r3, #2]
 800384e:	2103      	movs	r1, #3
 8003850:	6838      	ldr	r0, [r7, #0]
 8003852:	f7ff ffad 	bl	80037b0 <ucg_font_get_byte>
 8003856:	4603      	mov	r3, r0
 8003858:	461a      	mov	r2, r3
 800385a:	687b      	ldr	r3, [r7, #4]
 800385c:	70da      	strb	r2, [r3, #3]
 800385e:	2104      	movs	r1, #4
 8003860:	6838      	ldr	r0, [r7, #0]
 8003862:	f7ff ffa5 	bl	80037b0 <ucg_font_get_byte>
 8003866:	4603      	mov	r3, r0
 8003868:	461a      	mov	r2, r3
 800386a:	687b      	ldr	r3, [r7, #4]
 800386c:	711a      	strb	r2, [r3, #4]
 800386e:	2105      	movs	r1, #5
 8003870:	6838      	ldr	r0, [r7, #0]
 8003872:	f7ff ff9d 	bl	80037b0 <ucg_font_get_byte>
 8003876:	4603      	mov	r3, r0
 8003878:	461a      	mov	r2, r3
 800387a:	687b      	ldr	r3, [r7, #4]
 800387c:	715a      	strb	r2, [r3, #5]
 800387e:	2106      	movs	r1, #6
 8003880:	6838      	ldr	r0, [r7, #0]
 8003882:	f7ff ff95 	bl	80037b0 <ucg_font_get_byte>
 8003886:	4603      	mov	r3, r0
 8003888:	461a      	mov	r2, r3
 800388a:	687b      	ldr	r3, [r7, #4]
 800388c:	719a      	strb	r2, [r3, #6]
 800388e:	2107      	movs	r1, #7
 8003890:	6838      	ldr	r0, [r7, #0]
 8003892:	f7ff ff8d 	bl	80037b0 <ucg_font_get_byte>
 8003896:	4603      	mov	r3, r0
 8003898:	461a      	mov	r2, r3
 800389a:	687b      	ldr	r3, [r7, #4]
 800389c:	71da      	strb	r2, [r3, #7]
 800389e:	2108      	movs	r1, #8
 80038a0:	6838      	ldr	r0, [r7, #0]
 80038a2:	f7ff ff85 	bl	80037b0 <ucg_font_get_byte>
 80038a6:	4603      	mov	r3, r0
 80038a8:	461a      	mov	r2, r3
 80038aa:	687b      	ldr	r3, [r7, #4]
 80038ac:	721a      	strb	r2, [r3, #8]
 80038ae:	2109      	movs	r1, #9
 80038b0:	6838      	ldr	r0, [r7, #0]
 80038b2:	f7ff ff7d 	bl	80037b0 <ucg_font_get_byte>
 80038b6:	4603      	mov	r3, r0
 80038b8:	b25a      	sxtb	r2, r3
 80038ba:	687b      	ldr	r3, [r7, #4]
 80038bc:	725a      	strb	r2, [r3, #9]
 80038be:	210a      	movs	r1, #10
 80038c0:	6838      	ldr	r0, [r7, #0]
 80038c2:	f7ff ff75 	bl	80037b0 <ucg_font_get_byte>
 80038c6:	4603      	mov	r3, r0
 80038c8:	b25a      	sxtb	r2, r3
 80038ca:	687b      	ldr	r3, [r7, #4]
 80038cc:	729a      	strb	r2, [r3, #10]
 80038ce:	210b      	movs	r1, #11
 80038d0:	6838      	ldr	r0, [r7, #0]
 80038d2:	f7ff ff6d 	bl	80037b0 <ucg_font_get_byte>
 80038d6:	4603      	mov	r3, r0
 80038d8:	b25a      	sxtb	r2, r3
 80038da:	687b      	ldr	r3, [r7, #4]
 80038dc:	72da      	strb	r2, [r3, #11]
 80038de:	210c      	movs	r1, #12
 80038e0:	6838      	ldr	r0, [r7, #0]
 80038e2:	f7ff ff65 	bl	80037b0 <ucg_font_get_byte>
 80038e6:	4603      	mov	r3, r0
 80038e8:	b25a      	sxtb	r2, r3
 80038ea:	687b      	ldr	r3, [r7, #4]
 80038ec:	731a      	strb	r2, [r3, #12]
 80038ee:	210d      	movs	r1, #13
 80038f0:	6838      	ldr	r0, [r7, #0]
 80038f2:	f7ff ff5d 	bl	80037b0 <ucg_font_get_byte>
 80038f6:	4603      	mov	r3, r0
 80038f8:	b25a      	sxtb	r2, r3
 80038fa:	687b      	ldr	r3, [r7, #4]
 80038fc:	735a      	strb	r2, [r3, #13]
 80038fe:	210e      	movs	r1, #14
 8003900:	6838      	ldr	r0, [r7, #0]
 8003902:	f7ff ff55 	bl	80037b0 <ucg_font_get_byte>
 8003906:	4603      	mov	r3, r0
 8003908:	b25a      	sxtb	r2, r3
 800390a:	687b      	ldr	r3, [r7, #4]
 800390c:	739a      	strb	r2, [r3, #14]
 800390e:	210f      	movs	r1, #15
 8003910:	6838      	ldr	r0, [r7, #0]
 8003912:	f7ff ff4d 	bl	80037b0 <ucg_font_get_byte>
 8003916:	4603      	mov	r3, r0
 8003918:	b25a      	sxtb	r2, r3
 800391a:	687b      	ldr	r3, [r7, #4]
 800391c:	73da      	strb	r2, [r3, #15]
 800391e:	2110      	movs	r1, #16
 8003920:	6838      	ldr	r0, [r7, #0]
 8003922:	f7ff ff45 	bl	80037b0 <ucg_font_get_byte>
 8003926:	4603      	mov	r3, r0
 8003928:	b25a      	sxtb	r2, r3
 800392a:	687b      	ldr	r3, [r7, #4]
 800392c:	741a      	strb	r2, [r3, #16]
 800392e:	2111      	movs	r1, #17
 8003930:	6838      	ldr	r0, [r7, #0]
 8003932:	f7ff ff4f 	bl	80037d4 <ucg_font_get_word>
 8003936:	4603      	mov	r3, r0
 8003938:	461a      	mov	r2, r3
 800393a:	687b      	ldr	r3, [r7, #4]
 800393c:	825a      	strh	r2, [r3, #18]
 800393e:	2113      	movs	r1, #19
 8003940:	6838      	ldr	r0, [r7, #0]
 8003942:	f7ff ff47 	bl	80037d4 <ucg_font_get_word>
 8003946:	4603      	mov	r3, r0
 8003948:	461a      	mov	r2, r3
 800394a:	687b      	ldr	r3, [r7, #4]
 800394c:	829a      	strh	r2, [r3, #20]
 800394e:	bf00      	nop
 8003950:	3708      	adds	r7, #8
 8003952:	46bd      	mov	sp, r7
 8003954:	bd80      	pop	{r7, pc}

08003956 <ucg_font_decode_get_unsigned_bits>:
 8003956:	b480      	push	{r7}
 8003958:	b085      	sub	sp, #20
 800395a:	af00      	add	r7, sp, #0
 800395c:	6078      	str	r0, [r7, #4]
 800395e:	460b      	mov	r3, r1
 8003960:	70fb      	strb	r3, [r7, #3]
 8003962:	687b      	ldr	r3, [r7, #4]
 8003964:	7b1b      	ldrb	r3, [r3, #12]
 8003966:	737b      	strb	r3, [r7, #13]
 8003968:	687b      	ldr	r3, [r7, #4]
 800396a:	681b      	ldr	r3, [r3, #0]
 800396c:	781b      	ldrb	r3, [r3, #0]
 800396e:	73fb      	strb	r3, [r7, #15]
 8003970:	7bfa      	ldrb	r2, [r7, #15]
 8003972:	7b7b      	ldrb	r3, [r7, #13]
 8003974:	fa42 f303 	asr.w	r3, r2, r3
 8003978:	73fb      	strb	r3, [r7, #15]
 800397a:	7b7b      	ldrb	r3, [r7, #13]
 800397c:	73bb      	strb	r3, [r7, #14]
 800397e:	7bba      	ldrb	r2, [r7, #14]
 8003980:	78fb      	ldrb	r3, [r7, #3]
 8003982:	4413      	add	r3, r2
 8003984:	73bb      	strb	r3, [r7, #14]
 8003986:	7bbb      	ldrb	r3, [r7, #14]
 8003988:	2b07      	cmp	r3, #7
 800398a:	d91a      	bls.n	80039c2 <ucg_font_decode_get_unsigned_bits+0x6c>
 800398c:	2308      	movs	r3, #8
 800398e:	733b      	strb	r3, [r7, #12]
 8003990:	7b3a      	ldrb	r2, [r7, #12]
 8003992:	7b7b      	ldrb	r3, [r7, #13]
 8003994:	1ad3      	subs	r3, r2, r3
 8003996:	733b      	strb	r3, [r7, #12]
 8003998:	687b      	ldr	r3, [r7, #4]
 800399a:	681b      	ldr	r3, [r3, #0]
 800399c:	1c5a      	adds	r2, r3, #1
 800399e:	687b      	ldr	r3, [r7, #4]
 80039a0:	601a      	str	r2, [r3, #0]
 80039a2:	687b      	ldr	r3, [r7, #4]
 80039a4:	681b      	ldr	r3, [r3, #0]
 80039a6:	781b      	ldrb	r3, [r3, #0]
 80039a8:	461a      	mov	r2, r3
 80039aa:	7b3b      	ldrb	r3, [r7, #12]
 80039ac:	fa02 f303 	lsl.w	r3, r2, r3
 80039b0:	b25a      	sxtb	r2, r3
 80039b2:	f997 300f 	ldrsb.w	r3, [r7, #15]
 80039b6:	4313      	orrs	r3, r2
 80039b8:	b25b      	sxtb	r3, r3
 80039ba:	73fb      	strb	r3, [r7, #15]
 80039bc:	7bbb      	ldrb	r3, [r7, #14]
 80039be:	3b08      	subs	r3, #8
 80039c0:	73bb      	strb	r3, [r7, #14]
 80039c2:	78fb      	ldrb	r3, [r7, #3]
 80039c4:	f04f 32ff 	mov.w	r2, #4294967295
 80039c8:	fa02 f303 	lsl.w	r3, r2, r3
 80039cc:	b2db      	uxtb	r3, r3
 80039ce:	43db      	mvns	r3, r3
 80039d0:	b2da      	uxtb	r2, r3
 80039d2:	7bfb      	ldrb	r3, [r7, #15]
 80039d4:	4013      	ands	r3, r2
 80039d6:	73fb      	strb	r3, [r7, #15]
 80039d8:	687b      	ldr	r3, [r7, #4]
 80039da:	7bba      	ldrb	r2, [r7, #14]
 80039dc:	731a      	strb	r2, [r3, #12]
 80039de:	7bfb      	ldrb	r3, [r7, #15]
 80039e0:	4618      	mov	r0, r3
 80039e2:	3714      	adds	r7, #20
 80039e4:	46bd      	mov	sp, r7
 80039e6:	f85d 7b04 	ldr.w	r7, [sp], #4
 80039ea:	4770      	bx	lr

080039ec <ucg_font_decode_get_signed_bits>:
 80039ec:	b580      	push	{r7, lr}
 80039ee:	b084      	sub	sp, #16
 80039f0:	af00      	add	r7, sp, #0
 80039f2:	6078      	str	r0, [r7, #4]
 80039f4:	460b      	mov	r3, r1
 80039f6:	70fb      	strb	r3, [r7, #3]
 80039f8:	78fb      	ldrb	r3, [r7, #3]
 80039fa:	4619      	mov	r1, r3
 80039fc:	6878      	ldr	r0, [r7, #4]
 80039fe:	f7ff ffaa 	bl	8003956 <ucg_font_decode_get_unsigned_bits>
 8003a02:	4603      	mov	r3, r0
 8003a04:	73fb      	strb	r3, [r7, #15]
 8003a06:	2301      	movs	r3, #1
 8003a08:	73bb      	strb	r3, [r7, #14]
 8003a0a:	78fb      	ldrb	r3, [r7, #3]
 8003a0c:	3b01      	subs	r3, #1
 8003a0e:	70fb      	strb	r3, [r7, #3]
 8003a10:	f997 200e 	ldrsb.w	r2, [r7, #14]
 8003a14:	78fb      	ldrb	r3, [r7, #3]
 8003a16:	fa02 f303 	lsl.w	r3, r2, r3
 8003a1a:	73bb      	strb	r3, [r7, #14]
 8003a1c:	7bfa      	ldrb	r2, [r7, #15]
 8003a1e:	7bbb      	ldrb	r3, [r7, #14]
 8003a20:	1ad3      	subs	r3, r2, r3
 8003a22:	b2db      	uxtb	r3, r3
 8003a24:	73fb      	strb	r3, [r7, #15]
 8003a26:	f997 300f 	ldrsb.w	r3, [r7, #15]
 8003a2a:	4618      	mov	r0, r3
 8003a2c:	3710      	adds	r7, #16
 8003a2e:	46bd      	mov	sp, r7
 8003a30:	bd80      	pop	{r7, pc}

08003a32 <ucg_add_vector_y>:
 8003a32:	b490      	push	{r4, r7}
 8003a34:	b082      	sub	sp, #8
 8003a36:	af00      	add	r7, sp, #0
 8003a38:	4604      	mov	r4, r0
 8003a3a:	4608      	mov	r0, r1
 8003a3c:	4611      	mov	r1, r2
 8003a3e:	461a      	mov	r2, r3
 8003a40:	4623      	mov	r3, r4
 8003a42:	80fb      	strh	r3, [r7, #6]
 8003a44:	4603      	mov	r3, r0
 8003a46:	717b      	strb	r3, [r7, #5]
 8003a48:	460b      	mov	r3, r1
 8003a4a:	713b      	strb	r3, [r7, #4]
 8003a4c:	4613      	mov	r3, r2
 8003a4e:	70fb      	strb	r3, [r7, #3]
 8003a50:	78fb      	ldrb	r3, [r7, #3]
 8003a52:	2b01      	cmp	r3, #1
 8003a54:	d00b      	beq.n	8003a6e <ucg_add_vector_y+0x3c>
 8003a56:	2b02      	cmp	r3, #2
 8003a58:	d011      	beq.n	8003a7e <ucg_add_vector_y+0x4c>
 8003a5a:	2b00      	cmp	r3, #0
 8003a5c:	d117      	bne.n	8003a8e <ucg_add_vector_y+0x5c>
 8003a5e:	f997 3004 	ldrsb.w	r3, [r7, #4]
 8003a62:	b29a      	uxth	r2, r3
 8003a64:	88fb      	ldrh	r3, [r7, #6]
 8003a66:	4413      	add	r3, r2
 8003a68:	b29b      	uxth	r3, r3
 8003a6a:	80fb      	strh	r3, [r7, #6]
 8003a6c:	e017      	b.n	8003a9e <ucg_add_vector_y+0x6c>
 8003a6e:	f997 3005 	ldrsb.w	r3, [r7, #5]
 8003a72:	b29a      	uxth	r2, r3
 8003a74:	88fb      	ldrh	r3, [r7, #6]
 8003a76:	4413      	add	r3, r2
 8003a78:	b29b      	uxth	r3, r3
 8003a7a:	80fb      	strh	r3, [r7, #6]
 8003a7c:	e00f      	b.n	8003a9e <ucg_add_vector_y+0x6c>
 8003a7e:	88fa      	ldrh	r2, [r7, #6]
 8003a80:	f997 3004 	ldrsb.w	r3, [r7, #4]
 8003a84:	b29b      	uxth	r3, r3
 8003a86:	1ad3      	subs	r3, r2, r3
 8003a88:	b29b      	uxth	r3, r3
 8003a8a:	80fb      	strh	r3, [r7, #6]
 8003a8c:	e007      	b.n	8003a9e <ucg_add_vector_y+0x6c>
 8003a8e:	88fa      	ldrh	r2, [r7, #6]
 8003a90:	f997 3005 	ldrsb.w	r3, [r7, #5]
 8003a94:	b29b      	uxth	r3, r3
 8003a96:	1ad3      	subs	r3, r2, r3
 8003a98:	b29b      	uxth	r3, r3
 8003a9a:	80fb      	strh	r3, [r7, #6]
 8003a9c:	bf00      	nop
 8003a9e:	f9b7 3006 	ldrsh.w	r3, [r7, #6]
 8003aa2:	4618      	mov	r0, r3
 8003aa4:	3708      	adds	r7, #8
 8003aa6:	46bd      	mov	sp, r7
 8003aa8:	bc90      	pop	{r4, r7}
 8003aaa:	4770      	bx	lr

08003aac <ucg_add_vector_x>:
 8003aac:	b490      	push	{r4, r7}
 8003aae:	b082      	sub	sp, #8
 8003ab0:	af00      	add	r7, sp, #0
 8003ab2:	4604      	mov	r4, r0
 8003ab4:	4608      	mov	r0, r1
 8003ab6:	4611      	mov	r1, r2
 8003ab8:	461a      	mov	r2, r3
 8003aba:	4623      	mov	r3, r4
 8003abc:	80fb      	strh	r3, [r7, #6]
 8003abe:	4603      	mov	r3, r0
 8003ac0:	717b      	strb	r3, [r7, #5]
 8003ac2:	460b      	mov	r3, r1
 8003ac4:	713b      	strb	r3, [r7, #4]
 8003ac6:	4613      	mov	r3, r2
 8003ac8:	70fb      	strb	r3, [r7, #3]
 8003aca:	78fb      	ldrb	r3, [r7, #3]
 8003acc:	2b01      	cmp	r3, #1
 8003ace:	d00b      	beq.n	8003ae8 <ucg_add_vector_x+0x3c>
 8003ad0:	2b02      	cmp	r3, #2
 8003ad2:	d011      	beq.n	8003af8 <ucg_add_vector_x+0x4c>
 8003ad4:	2b00      	cmp	r3, #0
 8003ad6:	d117      	bne.n	8003b08 <ucg_add_vector_x+0x5c>
 8003ad8:	f997 3005 	ldrsb.w	r3, [r7, #5]
 8003adc:	b29a      	uxth	r2, r3
 8003ade:	88fb      	ldrh	r3, [r7, #6]
 8003ae0:	4413      	add	r3, r2
 8003ae2:	b29b      	uxth	r3, r3
 8003ae4:	80fb      	strh	r3, [r7, #6]
 8003ae6:	e017      	b.n	8003b18 <ucg_add_vector_x+0x6c>
 8003ae8:	88fa      	ldrh	r2, [r7, #6]
 8003aea:	f997 3004 	ldrsb.w	r3, [r7, #4]
 8003aee:	b29b      	uxth	r3, r3
 8003af0:	1ad3      	subs	r3, r2, r3
 8003af2:	b29b      	uxth	r3, r3
 8003af4:	80fb      	strh	r3, [r7, #6]
 8003af6:	e00f      	b.n	8003b18 <ucg_add_vector_x+0x6c>
 8003af8:	88fa      	ldrh	r2, [r7, #6]
 8003afa:	f997 3005 	ldrsb.w	r3, [r7, #5]
 8003afe:	b29b      	uxth	r3, r3
 8003b00:	1ad3      	subs	r3, r2, r3
 8003b02:	b29b      	uxth	r3, r3
 8003b04:	80fb      	strh	r3, [r7, #6]
 8003b06:	e007      	b.n	8003b18 <ucg_add_vector_x+0x6c>
 8003b08:	f997 3004 	ldrsb.w	r3, [r7, #4]
 8003b0c:	b29a      	uxth	r2, r3
 8003b0e:	88fb      	ldrh	r3, [r7, #6]
 8003b10:	4413      	add	r3, r2
 8003b12:	b29b      	uxth	r3, r3
 8003b14:	80fb      	strh	r3, [r7, #6]
 8003b16:	bf00      	nop
 8003b18:	f9b7 3006 	ldrsh.w	r3, [r7, #6]
 8003b1c:	4618      	mov	r0, r3
 8003b1e:	3708      	adds	r7, #8
 8003b20:	46bd      	mov	sp, r7
 8003b22:	bc90      	pop	{r4, r7}
 8003b24:	4770      	bx	lr

08003b26 <ucg_font_decode_len>:
 8003b26:	b590      	push	{r4, r7, lr}
 8003b28:	b089      	sub	sp, #36	; 0x24
 8003b2a:	af02      	add	r7, sp, #8
 8003b2c:	6078      	str	r0, [r7, #4]
 8003b2e:	460b      	mov	r3, r1
 8003b30:	70fb      	strb	r3, [r7, #3]
 8003b32:	4613      	mov	r3, r2
 8003b34:	70bb      	strb	r3, [r7, #2]
 8003b36:	687b      	ldr	r3, [r7, #4]
 8003b38:	3380      	adds	r3, #128	; 0x80
 8003b3a:	613b      	str	r3, [r7, #16]
 8003b3c:	78fb      	ldrb	r3, [r7, #3]
 8003b3e:	75fb      	strb	r3, [r7, #23]
 8003b40:	693b      	ldr	r3, [r7, #16]
 8003b42:	f993 3008 	ldrsb.w	r3, [r3, #8]
 8003b46:	757b      	strb	r3, [r7, #21]
 8003b48:	693b      	ldr	r3, [r7, #16]
 8003b4a:	f993 3009 	ldrsb.w	r3, [r3, #9]
 8003b4e:	753b      	strb	r3, [r7, #20]
 8003b50:	693b      	ldr	r3, [r7, #16]
 8003b52:	f993 300a 	ldrsb.w	r3, [r3, #10]
 8003b56:	73fb      	strb	r3, [r7, #15]
 8003b58:	7bfa      	ldrb	r2, [r7, #15]
 8003b5a:	7d7b      	ldrb	r3, [r7, #21]
 8003b5c:	1ad3      	subs	r3, r2, r3
 8003b5e:	73fb      	strb	r3, [r7, #15]
 8003b60:	7bfb      	ldrb	r3, [r7, #15]
 8003b62:	75bb      	strb	r3, [r7, #22]
 8003b64:	7dfa      	ldrb	r2, [r7, #23]
 8003b66:	7bfb      	ldrb	r3, [r7, #15]
 8003b68:	429a      	cmp	r2, r3
 8003b6a:	d201      	bcs.n	8003b70 <ucg_font_decode_len+0x4a>
 8003b6c:	7dfb      	ldrb	r3, [r7, #23]
 8003b6e:	75bb      	strb	r3, [r7, #22]
 8003b70:	693b      	ldr	r3, [r7, #16]
 8003b72:	889b      	ldrh	r3, [r3, #4]
 8003b74:	81bb      	strh	r3, [r7, #12]
 8003b76:	693b      	ldr	r3, [r7, #16]
 8003b78:	88db      	ldrh	r3, [r3, #6]
 8003b7a:	817b      	strh	r3, [r7, #10]
 8003b7c:	f997 1015 	ldrsb.w	r1, [r7, #21]
 8003b80:	f997 2014 	ldrsb.w	r2, [r7, #20]
 8003b84:	693b      	ldr	r3, [r7, #16]
 8003b86:	7b9b      	ldrb	r3, [r3, #14]
 8003b88:	f9b7 000c 	ldrsh.w	r0, [r7, #12]
 8003b8c:	f7ff ff8e 	bl	8003aac <ucg_add_vector_x>
 8003b90:	4603      	mov	r3, r0
 8003b92:	81bb      	strh	r3, [r7, #12]
 8003b94:	f997 1015 	ldrsb.w	r1, [r7, #21]
 8003b98:	f997 2014 	ldrsb.w	r2, [r7, #20]
 8003b9c:	693b      	ldr	r3, [r7, #16]
 8003b9e:	7b9b      	ldrb	r3, [r3, #14]
 8003ba0:	f9b7 000a 	ldrsh.w	r0, [r7, #10]
 8003ba4:	f7ff ff45 	bl	8003a32 <ucg_add_vector_y>
 8003ba8:	4603      	mov	r3, r0
 8003baa:	817b      	strh	r3, [r7, #10]
 8003bac:	78bb      	ldrb	r3, [r7, #2]
 8003bae:	2b00      	cmp	r3, #0
 8003bb0:	d011      	beq.n	8003bd6 <ucg_font_decode_len+0xb0>
 8003bb2:	7dbb      	ldrb	r3, [r7, #22]
 8003bb4:	b21c      	sxth	r4, r3
 8003bb6:	693b      	ldr	r3, [r7, #16]
 8003bb8:	7b9b      	ldrb	r3, [r3, #14]
 8003bba:	b21b      	sxth	r3, r3
 8003bbc:	f9b7 000a 	ldrsh.w	r0, [r7, #10]
 8003bc0:	f9b7 100c 	ldrsh.w	r1, [r7, #12]
 8003bc4:	2200      	movs	r2, #0
 8003bc6:	9201      	str	r2, [sp, #4]
 8003bc8:	9300      	str	r3, [sp, #0]
 8003bca:	4623      	mov	r3, r4
 8003bcc:	4602      	mov	r2, r0
 8003bce:	6878      	ldr	r0, [r7, #4]
 8003bd0:	f000 fbc0 	bl	8004354 <ucg_Draw90Line>
 8003bd4:	e014      	b.n	8003c00 <ucg_font_decode_len+0xda>
 8003bd6:	693b      	ldr	r3, [r7, #16]
 8003bd8:	7b5b      	ldrb	r3, [r3, #13]
 8003bda:	2b00      	cmp	r3, #0
 8003bdc:	d110      	bne.n	8003c00 <ucg_font_decode_len+0xda>
 8003bde:	7dbb      	ldrb	r3, [r7, #22]
 8003be0:	b21c      	sxth	r4, r3
 8003be2:	693b      	ldr	r3, [r7, #16]
 8003be4:	7b9b      	ldrb	r3, [r3, #14]
 8003be6:	b21b      	sxth	r3, r3
 8003be8:	f9b7 000a 	ldrsh.w	r0, [r7, #10]
 8003bec:	f9b7 100c 	ldrsh.w	r1, [r7, #12]
 8003bf0:	2201      	movs	r2, #1
 8003bf2:	9201      	str	r2, [sp, #4]
 8003bf4:	9300      	str	r3, [sp, #0]
 8003bf6:	4623      	mov	r3, r4
 8003bf8:	4602      	mov	r2, r0
 8003bfa:	6878      	ldr	r0, [r7, #4]
 8003bfc:	f000 fbaa 	bl	8004354 <ucg_Draw90Line>
 8003c00:	7dfa      	ldrb	r2, [r7, #23]
 8003c02:	7bfb      	ldrb	r3, [r7, #15]
 8003c04:	429a      	cmp	r2, r3
 8003c06:	d309      	bcc.n	8003c1c <ucg_font_decode_len+0xf6>
 8003c08:	7dfa      	ldrb	r2, [r7, #23]
 8003c0a:	7bfb      	ldrb	r3, [r7, #15]
 8003c0c:	1ad3      	subs	r3, r2, r3
 8003c0e:	75fb      	strb	r3, [r7, #23]
 8003c10:	2300      	movs	r3, #0
 8003c12:	757b      	strb	r3, [r7, #21]
 8003c14:	7d3b      	ldrb	r3, [r7, #20]
 8003c16:	3301      	adds	r3, #1
 8003c18:	753b      	strb	r3, [r7, #20]
 8003c1a:	e799      	b.n	8003b50 <ucg_font_decode_len+0x2a>
 8003c1c:	bf00      	nop
 8003c1e:	7d7a      	ldrb	r2, [r7, #21]
 8003c20:	7dfb      	ldrb	r3, [r7, #23]
 8003c22:	4413      	add	r3, r2
 8003c24:	757b      	strb	r3, [r7, #21]
 8003c26:	f997 2015 	ldrsb.w	r2, [r7, #21]
 8003c2a:	693b      	ldr	r3, [r7, #16]
 8003c2c:	721a      	strb	r2, [r3, #8]
 8003c2e:	f997 2014 	ldrsb.w	r2, [r7, #20]
 8003c32:	693b      	ldr	r3, [r7, #16]
 8003c34:	725a      	strb	r2, [r3, #9]
 8003c36:	bf00      	nop
 8003c38:	371c      	adds	r7, #28
 8003c3a:	46bd      	mov	sp, r7
 8003c3c:	bd90      	pop	{r4, r7, pc}

08003c3e <ucg_font_setup_decode>:
 8003c3e:	b580      	push	{r7, lr}
 8003c40:	b084      	sub	sp, #16
 8003c42:	af00      	add	r7, sp, #0
 8003c44:	6078      	str	r0, [r7, #4]
 8003c46:	6039      	str	r1, [r7, #0]
 8003c48:	687b      	ldr	r3, [r7, #4]
 8003c4a:	3380      	adds	r3, #128	; 0x80
 8003c4c:	60fb      	str	r3, [r7, #12]
 8003c4e:	68fb      	ldr	r3, [r7, #12]
 8003c50:	683a      	ldr	r2, [r7, #0]
 8003c52:	601a      	str	r2, [r3, #0]
 8003c54:	68fb      	ldr	r3, [r7, #12]
 8003c56:	2200      	movs	r2, #0
 8003c58:	731a      	strb	r2, [r3, #12]
 8003c5a:	68fb      	ldr	r3, [r7, #12]
 8003c5c:	681b      	ldr	r3, [r3, #0]
 8003c5e:	1c5a      	adds	r2, r3, #1
 8003c60:	68fb      	ldr	r3, [r7, #12]
 8003c62:	601a      	str	r2, [r3, #0]
 8003c64:	68fb      	ldr	r3, [r7, #12]
 8003c66:	681b      	ldr	r3, [r3, #0]
 8003c68:	1c5a      	adds	r2, r3, #1
 8003c6a:	68fb      	ldr	r3, [r7, #12]
 8003c6c:	601a      	str	r2, [r3, #0]
 8003c6e:	687b      	ldr	r3, [r7, #4]
 8003c70:	f893 3094 	ldrb.w	r3, [r3, #148]	; 0x94
 8003c74:	4619      	mov	r1, r3
 8003c76:	68f8      	ldr	r0, [r7, #12]
 8003c78:	f7ff fe6d 	bl	8003956 <ucg_font_decode_get_unsigned_bits>
 8003c7c:	4603      	mov	r3, r0
 8003c7e:	b25a      	sxtb	r2, r3
 8003c80:	68fb      	ldr	r3, [r7, #12]
 8003c82:	729a      	strb	r2, [r3, #10]
 8003c84:	687b      	ldr	r3, [r7, #4]
 8003c86:	f893 3095 	ldrb.w	r3, [r3, #149]	; 0x95
 8003c8a:	4619      	mov	r1, r3
 8003c8c:	68f8      	ldr	r0, [r7, #12]
 8003c8e:	f7ff fe62 	bl	8003956 <ucg_font_decode_get_unsigned_bits>
 8003c92:	4603      	mov	r3, r0
 8003c94:	b25a      	sxtb	r2, r3
 8003c96:	68fb      	ldr	r3, [r7, #12]
 8003c98:	72da      	strb	r2, [r3, #11]
 8003c9a:	bf00      	nop
 8003c9c:	3710      	adds	r7, #16
 8003c9e:	46bd      	mov	sp, r7
 8003ca0:	bd80      	pop	{r7, pc}

08003ca2 <ucg_font_decode_glyph>:
 8003ca2:	b580      	push	{r7, lr}
 8003ca4:	b084      	sub	sp, #16
 8003ca6:	af00      	add	r7, sp, #0
 8003ca8:	6078      	str	r0, [r7, #4]
 8003caa:	6039      	str	r1, [r7, #0]
 8003cac:	6839      	ldr	r1, [r7, #0]
 8003cae:	6878      	ldr	r0, [r7, #4]
 8003cb0:	f7ff ffc5 	bl	8003c3e <ucg_font_setup_decode>
 8003cb4:	687b      	ldr	r3, [r7, #4]
 8003cb6:	f893 308b 	ldrb.w	r3, [r3, #139]	; 0x8b
 8003cba:	73fb      	strb	r3, [r7, #15]
 8003cbc:	687b      	ldr	r3, [r7, #4]
 8003cbe:	f103 0280 	add.w	r2, r3, #128	; 0x80
 8003cc2:	687b      	ldr	r3, [r7, #4]
 8003cc4:	f893 3096 	ldrb.w	r3, [r3, #150]	; 0x96
 8003cc8:	4619      	mov	r1, r3
 8003cca:	4610      	mov	r0, r2
 8003ccc:	f7ff fe8e 	bl	80039ec <ucg_font_decode_get_signed_bits>
 8003cd0:	4603      	mov	r3, r0
 8003cd2:	73bb      	strb	r3, [r7, #14]
 8003cd4:	687b      	ldr	r3, [r7, #4]
 8003cd6:	f103 0280 	add.w	r2, r3, #128	; 0x80
 8003cda:	687b      	ldr	r3, [r7, #4]
 8003cdc:	f893 3097 	ldrb.w	r3, [r3, #151]	; 0x97
 8003ce0:	4619      	mov	r1, r3
 8003ce2:	4610      	mov	r0, r2
 8003ce4:	f7ff fe82 	bl	80039ec <ucg_font_decode_get_signed_bits>
 8003ce8:	4603      	mov	r3, r0
 8003cea:	737b      	strb	r3, [r7, #13]
 8003cec:	687b      	ldr	r3, [r7, #4]
 8003cee:	f103 0280 	add.w	r2, r3, #128	; 0x80
 8003cf2:	687b      	ldr	r3, [r7, #4]
 8003cf4:	f893 3098 	ldrb.w	r3, [r3, #152]	; 0x98
 8003cf8:	4619      	mov	r1, r3
 8003cfa:	4610      	mov	r0, r2
 8003cfc:	f7ff fe76 	bl	80039ec <ucg_font_decode_get_signed_bits>
 8003d00:	4603      	mov	r3, r0
 8003d02:	733b      	strb	r3, [r7, #12]
 8003d04:	687b      	ldr	r3, [r7, #4]
 8003d06:	f993 308a 	ldrsb.w	r3, [r3, #138]	; 0x8a
 8003d0a:	2b00      	cmp	r3, #0
 8003d0c:	dd69      	ble.n	8003de2 <ucg_font_decode_glyph+0x140>
 8003d0e:	687b      	ldr	r3, [r7, #4]
 8003d10:	f9b3 0084 	ldrsh.w	r0, [r3, #132]	; 0x84
 8003d14:	7bfa      	ldrb	r2, [r7, #15]
 8003d16:	7b7b      	ldrb	r3, [r7, #13]
 8003d18:	4413      	add	r3, r2
 8003d1a:	b2db      	uxtb	r3, r3
 8003d1c:	425b      	negs	r3, r3
 8003d1e:	b2db      	uxtb	r3, r3
 8003d20:	b25a      	sxtb	r2, r3
 8003d22:	687b      	ldr	r3, [r7, #4]
 8003d24:	f893 308e 	ldrb.w	r3, [r3, #142]	; 0x8e
 8003d28:	f997 100e 	ldrsb.w	r1, [r7, #14]
 8003d2c:	f7ff febe 	bl	8003aac <ucg_add_vector_x>
 8003d30:	4603      	mov	r3, r0
 8003d32:	461a      	mov	r2, r3
 8003d34:	687b      	ldr	r3, [r7, #4]
 8003d36:	f8a3 2084 	strh.w	r2, [r3, #132]	; 0x84
 8003d3a:	687b      	ldr	r3, [r7, #4]
 8003d3c:	f9b3 0086 	ldrsh.w	r0, [r3, #134]	; 0x86
 8003d40:	7bfa      	ldrb	r2, [r7, #15]
 8003d42:	7b7b      	ldrb	r3, [r7, #13]
 8003d44:	4413      	add	r3, r2
 8003d46:	b2db      	uxtb	r3, r3
 8003d48:	425b      	negs	r3, r3
 8003d4a:	b2db      	uxtb	r3, r3
 8003d4c:	b25a      	sxtb	r2, r3
 8003d4e:	687b      	ldr	r3, [r7, #4]
 8003d50:	f893 308e 	ldrb.w	r3, [r3, #142]	; 0x8e
 8003d54:	f997 100e 	ldrsb.w	r1, [r7, #14]
 8003d58:	f7ff fe6b 	bl	8003a32 <ucg_add_vector_y>
 8003d5c:	4603      	mov	r3, r0
 8003d5e:	461a      	mov	r2, r3
 8003d60:	687b      	ldr	r3, [r7, #4]
 8003d62:	f8a3 2086 	strh.w	r2, [r3, #134]	; 0x86
 8003d66:	687b      	ldr	r3, [r7, #4]
 8003d68:	2200      	movs	r2, #0
 8003d6a:	f883 2088 	strb.w	r2, [r3, #136]	; 0x88
 8003d6e:	687b      	ldr	r3, [r7, #4]
 8003d70:	2200      	movs	r2, #0
 8003d72:	f883 2089 	strb.w	r2, [r3, #137]	; 0x89
 8003d76:	687b      	ldr	r3, [r7, #4]
 8003d78:	f103 0280 	add.w	r2, r3, #128	; 0x80
 8003d7c:	687b      	ldr	r3, [r7, #4]
 8003d7e:	f893 3092 	ldrb.w	r3, [r3, #146]	; 0x92
 8003d82:	4619      	mov	r1, r3
 8003d84:	4610      	mov	r0, r2
 8003d86:	f7ff fde6 	bl	8003956 <ucg_font_decode_get_unsigned_bits>
 8003d8a:	4603      	mov	r3, r0
 8003d8c:	72fb      	strb	r3, [r7, #11]
 8003d8e:	687b      	ldr	r3, [r7, #4]
 8003d90:	f103 0280 	add.w	r2, r3, #128	; 0x80
 8003d94:	687b      	ldr	r3, [r7, #4]
 8003d96:	f893 3093 	ldrb.w	r3, [r3, #147]	; 0x93
 8003d9a:	4619      	mov	r1, r3
 8003d9c:	4610      	mov	r0, r2
 8003d9e:	f7ff fdda 	bl	8003956 <ucg_font_decode_get_unsigned_bits>
 8003da2:	4603      	mov	r3, r0
 8003da4:	72bb      	strb	r3, [r7, #10]
 8003da6:	7afb      	ldrb	r3, [r7, #11]
 8003da8:	2200      	movs	r2, #0
 8003daa:	4619      	mov	r1, r3
 8003dac:	6878      	ldr	r0, [r7, #4]
 8003dae:	f7ff feba 	bl	8003b26 <ucg_font_decode_len>
 8003db2:	7abb      	ldrb	r3, [r7, #10]
 8003db4:	2201      	movs	r2, #1
 8003db6:	4619      	mov	r1, r3
 8003db8:	6878      	ldr	r0, [r7, #4]
 8003dba:	f7ff feb4 	bl	8003b26 <ucg_font_decode_len>
 8003dbe:	687b      	ldr	r3, [r7, #4]
 8003dc0:	3380      	adds	r3, #128	; 0x80
 8003dc2:	2101      	movs	r1, #1
 8003dc4:	4618      	mov	r0, r3
 8003dc6:	f7ff fdc6 	bl	8003956 <ucg_font_decode_get_unsigned_bits>
 8003dca:	4603      	mov	r3, r0
 8003dcc:	2b00      	cmp	r3, #0
 8003dce:	d1ea      	bne.n	8003da6 <ucg_font_decode_glyph+0x104>
 8003dd0:	687b      	ldr	r3, [r7, #4]
 8003dd2:	f993 3089 	ldrsb.w	r3, [r3, #137]	; 0x89
 8003dd6:	f997 200f 	ldrsb.w	r2, [r7, #15]
 8003dda:	429a      	cmp	r2, r3
 8003ddc:	dd00      	ble.n	8003de0 <ucg_font_decode_glyph+0x13e>
 8003dde:	e7ca      	b.n	8003d76 <ucg_font_decode_glyph+0xd4>
 8003de0:	bf00      	nop
 8003de2:	f997 300c 	ldrsb.w	r3, [r7, #12]
 8003de6:	4618      	mov	r0, r3
 8003de8:	3710      	adds	r7, #16
 8003dea:	46bd      	mov	sp, r7
 8003dec:	bd80      	pop	{r7, pc}

08003dee <ucg_font_get_glyph_data>:
 8003dee:	b480      	push	{r7}
 8003df0:	b085      	sub	sp, #20
 8003df2:	af00      	add	r7, sp, #0
 8003df4:	6078      	str	r0, [r7, #4]
 8003df6:	460b      	mov	r3, r1
 8003df8:	70fb      	strb	r3, [r7, #3]
 8003dfa:	687b      	ldr	r3, [r7, #4]
 8003dfc:	6f9b      	ldr	r3, [r3, #120]	; 0x78
 8003dfe:	60fb      	str	r3, [r7, #12]
 8003e00:	68fb      	ldr	r3, [r7, #12]
 8003e02:	3315      	adds	r3, #21
 8003e04:	60fb      	str	r3, [r7, #12]
 8003e06:	78fb      	ldrb	r3, [r7, #3]
 8003e08:	2b60      	cmp	r3, #96	; 0x60
 8003e0a:	d907      	bls.n	8003e1c <ucg_font_get_glyph_data+0x2e>
 8003e0c:	687b      	ldr	r3, [r7, #4]
 8003e0e:	f8b3 30a4 	ldrh.w	r3, [r3, #164]	; 0xa4
 8003e12:	461a      	mov	r2, r3
 8003e14:	68fb      	ldr	r3, [r7, #12]
 8003e16:	4413      	add	r3, r2
 8003e18:	60fb      	str	r3, [r7, #12]
 8003e1a:	e009      	b.n	8003e30 <ucg_font_get_glyph_data+0x42>
 8003e1c:	78fb      	ldrb	r3, [r7, #3]
 8003e1e:	2b40      	cmp	r3, #64	; 0x40
 8003e20:	d906      	bls.n	8003e30 <ucg_font_get_glyph_data+0x42>
 8003e22:	687b      	ldr	r3, [r7, #4]
 8003e24:	f8b3 30a2 	ldrh.w	r3, [r3, #162]	; 0xa2
 8003e28:	461a      	mov	r2, r3
 8003e2a:	68fb      	ldr	r3, [r7, #12]
 8003e2c:	4413      	add	r3, r2
 8003e2e:	60fb      	str	r3, [r7, #12]
 8003e30:	68fb      	ldr	r3, [r7, #12]
 8003e32:	3301      	adds	r3, #1
 8003e34:	781b      	ldrb	r3, [r3, #0]
 8003e36:	2b00      	cmp	r3, #0
 8003e38:	d00e      	beq.n	8003e58 <ucg_font_get_glyph_data+0x6a>
 8003e3a:	68fb      	ldr	r3, [r7, #12]
 8003e3c:	781b      	ldrb	r3, [r3, #0]
 8003e3e:	78fa      	ldrb	r2, [r7, #3]
 8003e40:	429a      	cmp	r2, r3
 8003e42:	d101      	bne.n	8003e48 <ucg_font_get_glyph_data+0x5a>
 8003e44:	68fb      	ldr	r3, [r7, #12]
 8003e46:	e009      	b.n	8003e5c <ucg_font_get_glyph_data+0x6e>
 8003e48:	68fb      	ldr	r3, [r7, #12]
 8003e4a:	3301      	adds	r3, #1
 8003e4c:	781b      	ldrb	r3, [r3, #0]
 8003e4e:	461a      	mov	r2, r3
 8003e50:	68fb      	ldr	r3, [r7, #12]
 8003e52:	4413      	add	r3, r2
 8003e54:	60fb      	str	r3, [r7, #12]
 8003e56:	e7eb      	b.n	8003e30 <ucg_font_get_glyph_data+0x42>
 8003e58:	bf00      	nop
 8003e5a:	2300      	movs	r3, #0
 8003e5c:	4618      	mov	r0, r3
 8003e5e:	3714      	adds	r7, #20
 8003e60:	46bd      	mov	sp, r7
 8003e62:	f85d 7b04 	ldr.w	r7, [sp], #4
 8003e66:	4770      	bx	lr

08003e68 <ucg_font_draw_glyph>:
 8003e68:	b580      	push	{r7, lr}
 8003e6a:	b086      	sub	sp, #24
 8003e6c:	af00      	add	r7, sp, #0
 8003e6e:	60f8      	str	r0, [r7, #12]
 8003e70:	4608      	mov	r0, r1
 8003e72:	4611      	mov	r1, r2
 8003e74:	461a      	mov	r2, r3
 8003e76:	4603      	mov	r3, r0
 8003e78:	817b      	strh	r3, [r7, #10]
 8003e7a:	460b      	mov	r3, r1
 8003e7c:	813b      	strh	r3, [r7, #8]
 8003e7e:	4613      	mov	r3, r2
 8003e80:	71fb      	strb	r3, [r7, #7]
 8003e82:	2300      	movs	r3, #0
 8003e84:	82fb      	strh	r3, [r7, #22]
 8003e86:	68fb      	ldr	r3, [r7, #12]
 8003e88:	897a      	ldrh	r2, [r7, #10]
 8003e8a:	f8a3 2084 	strh.w	r2, [r3, #132]	; 0x84
 8003e8e:	68fb      	ldr	r3, [r7, #12]
 8003e90:	893a      	ldrh	r2, [r7, #8]
 8003e92:	f8a3 2086 	strh.w	r2, [r3, #134]	; 0x86
 8003e96:	68fb      	ldr	r3, [r7, #12]
 8003e98:	79fa      	ldrb	r2, [r7, #7]
 8003e9a:	f883 208e 	strb.w	r2, [r3, #142]	; 0x8e
 8003e9e:	f897 3020 	ldrb.w	r3, [r7, #32]
 8003ea2:	4619      	mov	r1, r3
 8003ea4:	68f8      	ldr	r0, [r7, #12]
 8003ea6:	f7ff ffa2 	bl	8003dee <ucg_font_get_glyph_data>
 8003eaa:	6138      	str	r0, [r7, #16]
 8003eac:	693b      	ldr	r3, [r7, #16]
 8003eae:	2b00      	cmp	r3, #0
 8003eb0:	d005      	beq.n	8003ebe <ucg_font_draw_glyph+0x56>
 8003eb2:	6939      	ldr	r1, [r7, #16]
 8003eb4:	68f8      	ldr	r0, [r7, #12]
 8003eb6:	f7ff fef4 	bl	8003ca2 <ucg_font_decode_glyph>
 8003eba:	4603      	mov	r3, r0
 8003ebc:	82fb      	strh	r3, [r7, #22]
 8003ebe:	f9b7 3016 	ldrsh.w	r3, [r7, #22]
 8003ec2:	4618      	mov	r0, r3
 8003ec4:	3718      	adds	r7, #24
 8003ec6:	46bd      	mov	sp, r7
 8003ec8:	bd80      	pop	{r7, pc}

08003eca <ucg_SetFontMode>:
 8003eca:	b480      	push	{r7}
 8003ecc:	b083      	sub	sp, #12
 8003ece:	af00      	add	r7, sp, #0
 8003ed0:	6078      	str	r0, [r7, #4]
 8003ed2:	460b      	mov	r3, r1
 8003ed4:	70fb      	strb	r3, [r7, #3]
 8003ed6:	687b      	ldr	r3, [r7, #4]
 8003ed8:	78fa      	ldrb	r2, [r7, #3]
 8003eda:	f883 208d 	strb.w	r2, [r3, #141]	; 0x8d
 8003ede:	bf00      	nop
 8003ee0:	370c      	adds	r7, #12
 8003ee2:	46bd      	mov	sp, r7
 8003ee4:	f85d 7b04 	ldr.w	r7, [sp], #4
 8003ee8:	4770      	bx	lr
	...

08003eec <ucg_DrawGlyph>:
 8003eec:	b580      	push	{r7, lr}
 8003eee:	b086      	sub	sp, #24
 8003ef0:	af02      	add	r7, sp, #8
 8003ef2:	60f8      	str	r0, [r7, #12]
 8003ef4:	4608      	mov	r0, r1
 8003ef6:	4611      	mov	r1, r2
 8003ef8:	461a      	mov	r2, r3
 8003efa:	4603      	mov	r3, r0
 8003efc:	817b      	strh	r3, [r7, #10]
 8003efe:	460b      	mov	r3, r1
 8003f00:	813b      	strh	r3, [r7, #8]
 8003f02:	4613      	mov	r3, r2
 8003f04:	71fb      	strb	r3, [r7, #7]
 8003f06:	79fb      	ldrb	r3, [r7, #7]
 8003f08:	2b03      	cmp	r3, #3
 8003f0a:	d837      	bhi.n	8003f7c <ucg_DrawGlyph+0x90>
 8003f0c:	a201      	add	r2, pc, #4	; (adr r2, 8003f14 <ucg_DrawGlyph+0x28>)
 8003f0e:	f852 f023 	ldr.w	pc, [r2, r3, lsl #2]
 8003f12:	bf00      	nop
 8003f14:	08003f25 	.word	0x08003f25
 8003f18:	08003f3b 	.word	0x08003f3b
 8003f1c:	08003f51 	.word	0x08003f51
 8003f20:	08003f67 	.word	0x08003f67
 8003f24:	68fb      	ldr	r3, [r7, #12]
 8003f26:	6fdb      	ldr	r3, [r3, #124]	; 0x7c
 8003f28:	68f8      	ldr	r0, [r7, #12]
 8003f2a:	4798      	blx	r3
 8003f2c:	4603      	mov	r3, r0
 8003f2e:	b29a      	uxth	r2, r3
 8003f30:	893b      	ldrh	r3, [r7, #8]
 8003f32:	4413      	add	r3, r2
 8003f34:	b29b      	uxth	r3, r3
 8003f36:	813b      	strh	r3, [r7, #8]
 8003f38:	e020      	b.n	8003f7c <ucg_DrawGlyph+0x90>
 8003f3a:	68fb      	ldr	r3, [r7, #12]
 8003f3c:	6fdb      	ldr	r3, [r3, #124]	; 0x7c
 8003f3e:	68f8      	ldr	r0, [r7, #12]
 8003f40:	4798      	blx	r3
 8003f42:	4603      	mov	r3, r0
 8003f44:	897a      	ldrh	r2, [r7, #10]
 8003f46:	b29b      	uxth	r3, r3
 8003f48:	1ad3      	subs	r3, r2, r3
 8003f4a:	b29b      	uxth	r3, r3
 8003f4c:	817b      	strh	r3, [r7, #10]
 8003f4e:	e015      	b.n	8003f7c <ucg_DrawGlyph+0x90>
 8003f50:	68fb      	ldr	r3, [r7, #12]
 8003f52:	6fdb      	ldr	r3, [r3, #124]	; 0x7c
 8003f54:	68f8      	ldr	r0, [r7, #12]
 8003f56:	4798      	blx	r3
 8003f58:	4603      	mov	r3, r0
 8003f5a:	893a      	ldrh	r2, [r7, #8]
 8003f5c:	b29b      	uxth	r3, r3
 8003f5e:	1ad3      	subs	r3, r2, r3
 8003f60:	b29b      	uxth	r3, r3
 8003f62:	813b      	strh	r3, [r7, #8]
 8003f64:	e00a      	b.n	8003f7c <ucg_DrawGlyph+0x90>
 8003f66:	68fb      	ldr	r3, [r7, #12]
 8003f68:	6fdb      	ldr	r3, [r3, #124]	; 0x7c
 8003f6a:	68f8      	ldr	r0, [r7, #12]
 8003f6c:	4798      	blx	r3
 8003f6e:	4603      	mov	r3, r0
 8003f70:	b29a      	uxth	r2, r3
 8003f72:	897b      	ldrh	r3, [r7, #10]
 8003f74:	4413      	add	r3, r2
 8003f76:	b29b      	uxth	r3, r3
 8003f78:	817b      	strh	r3, [r7, #10]
 8003f7a:	bf00      	nop
 8003f7c:	79f8      	ldrb	r0, [r7, #7]
 8003f7e:	f9b7 2008 	ldrsh.w	r2, [r7, #8]
 8003f82:	f9b7 100a 	ldrsh.w	r1, [r7, #10]
 8003f86:	7e3b      	ldrb	r3, [r7, #24]
 8003f88:	9300      	str	r3, [sp, #0]
 8003f8a:	4603      	mov	r3, r0
 8003f8c:	68f8      	ldr	r0, [r7, #12]
 8003f8e:	f7ff ff6b 	bl	8003e68 <ucg_font_draw_glyph>
 8003f92:	4603      	mov	r3, r0
 8003f94:	4618      	mov	r0, r3
 8003f96:	3710      	adds	r7, #16
 8003f98:	46bd      	mov	sp, r7
 8003f9a:	bd80      	pop	{r7, pc}

08003f9c <task_drawString>:
 8003f9c:	b580      	push	{r7, lr}
 8003f9e:	b086      	sub	sp, #24
 8003fa0:	af02      	add	r7, sp, #8
 8003fa2:	6078      	str	r0, [r7, #4]
 8003fa4:	2300      	movs	r3, #0
 8003fa6:	81fb      	strh	r3, [r7, #14]
 8003fa8:	687b      	ldr	r3, [r7, #4]
 8003faa:	60bb      	str	r3, [r7, #8]
 8003fac:	4b45      	ldr	r3, [pc, #276]	; (80040c4 <task_drawString+0x128>)
 8003fae:	781b      	ldrb	r3, [r3, #0]
 8003fb0:	2b00      	cmp	r3, #0
 8003fb2:	d002      	beq.n	8003fba <task_drawString+0x1e>
 8003fb4:	2b01      	cmp	r3, #1
 8003fb6:	d01e      	beq.n	8003ff6 <task_drawString+0x5a>
 8003fb8:	e07b      	b.n	80040b2 <task_drawString+0x116>
 8003fba:	4843      	ldr	r0, [pc, #268]	; (80040c8 <task_drawString+0x12c>)
 8003fbc:	f000 fb5d 	bl	800467a <bufNumItems>
 8003fc0:	4603      	mov	r3, r0
 8003fc2:	2b00      	cmp	r3, #0
 8003fc4:	d007      	beq.n	8003fd6 <task_drawString+0x3a>
 8003fc6:	4941      	ldr	r1, [pc, #260]	; (80040cc <task_drawString+0x130>)
 8003fc8:	483f      	ldr	r0, [pc, #252]	; (80040c8 <task_drawString+0x12c>)
 8003fca:	f000 fbef 	bl	80047ac <bufDeDat>
 8003fce:	4b3d      	ldr	r3, [pc, #244]	; (80040c4 <task_drawString+0x128>)
 8003fd0:	2201      	movs	r2, #1
 8003fd2:	701a      	strb	r2, [r3, #0]
 8003fd4:	e071      	b.n	80040ba <task_drawString+0x11e>
 8003fd6:	4b3e      	ldr	r3, [pc, #248]	; (80040d0 <task_drawString+0x134>)
 8003fd8:	781b      	ldrb	r3, [r3, #0]
 8003fda:	2bff      	cmp	r3, #255	; 0xff
 8003fdc:	d007      	beq.n	8003fee <task_drawString+0x52>
 8003fde:	4b3c      	ldr	r3, [pc, #240]	; (80040d0 <task_drawString+0x134>)
 8003fe0:	781b      	ldrb	r3, [r3, #0]
 8003fe2:	4618      	mov	r0, r3
 8003fe4:	f7fd fde2 	bl	8001bac <TimerStop>
 8003fe8:	4b39      	ldr	r3, [pc, #228]	; (80040d0 <task_drawString+0x134>)
 8003fea:	22ff      	movs	r2, #255	; 0xff
 8003fec:	701a      	strb	r2, [r3, #0]
 8003fee:	4b35      	ldr	r3, [pc, #212]	; (80040c4 <task_drawString+0x128>)
 8003ff0:	2200      	movs	r2, #0
 8003ff2:	701a      	strb	r2, [r3, #0]
 8003ff4:	e061      	b.n	80040ba <task_drawString+0x11e>
 8003ff6:	4b35      	ldr	r3, [pc, #212]	; (80040cc <task_drawString+0x130>)
 8003ff8:	689b      	ldr	r3, [r3, #8]
 8003ffa:	781b      	ldrb	r3, [r3, #0]
 8003ffc:	2b00      	cmp	r3, #0
 8003ffe:	d054      	beq.n	80040aa <task_drawString+0x10e>
 8004000:	4b32      	ldr	r3, [pc, #200]	; (80040cc <task_drawString+0x130>)
 8004002:	f9b3 1000 	ldrsh.w	r1, [r3]
 8004006:	4b31      	ldr	r3, [pc, #196]	; (80040cc <task_drawString+0x130>)
 8004008:	f9b3 2002 	ldrsh.w	r2, [r3, #2]
 800400c:	4b2f      	ldr	r3, [pc, #188]	; (80040cc <task_drawString+0x130>)
 800400e:	7918      	ldrb	r0, [r3, #4]
 8004010:	4b2e      	ldr	r3, [pc, #184]	; (80040cc <task_drawString+0x130>)
 8004012:	689b      	ldr	r3, [r3, #8]
 8004014:	781b      	ldrb	r3, [r3, #0]
 8004016:	9300      	str	r3, [sp, #0]
 8004018:	4603      	mov	r3, r0
 800401a:	68b8      	ldr	r0, [r7, #8]
 800401c:	f7ff ff66 	bl	8003eec <ucg_DrawGlyph>
 8004020:	4603      	mov	r3, r0
 8004022:	81fb      	strh	r3, [r7, #14]
 8004024:	4b29      	ldr	r3, [pc, #164]	; (80040cc <task_drawString+0x130>)
 8004026:	791b      	ldrb	r3, [r3, #4]
 8004028:	2b03      	cmp	r3, #3
 800402a:	d837      	bhi.n	800409c <task_drawString+0x100>
 800402c:	a201      	add	r2, pc, #4	; (adr r2, 8004034 <task_drawString+0x98>)
 800402e:	f852 f023 	ldr.w	pc, [r2, r3, lsl #2]
 8004032:	bf00      	nop
 8004034:	08004045 	.word	0x08004045
 8004038:	0800405b 	.word	0x0800405b
 800403c:	08004071 	.word	0x08004071
 8004040:	08004087 	.word	0x08004087
 8004044:	4b21      	ldr	r3, [pc, #132]	; (80040cc <task_drawString+0x130>)
 8004046:	f9b3 3000 	ldrsh.w	r3, [r3]
 800404a:	b29a      	uxth	r2, r3
 800404c:	89fb      	ldrh	r3, [r7, #14]
 800404e:	4413      	add	r3, r2
 8004050:	b29b      	uxth	r3, r3
 8004052:	b21a      	sxth	r2, r3
 8004054:	4b1d      	ldr	r3, [pc, #116]	; (80040cc <task_drawString+0x130>)
 8004056:	801a      	strh	r2, [r3, #0]
 8004058:	e021      	b.n	800409e <task_drawString+0x102>
 800405a:	4b1c      	ldr	r3, [pc, #112]	; (80040cc <task_drawString+0x130>)
 800405c:	f9b3 3002 	ldrsh.w	r3, [r3, #2]
 8004060:	b29a      	uxth	r2, r3
 8004062:	89fb      	ldrh	r3, [r7, #14]
 8004064:	4413      	add	r3, r2
 8004066:	b29b      	uxth	r3, r3
 8004068:	b21a      	sxth	r2, r3
 800406a:	4b18      	ldr	r3, [pc, #96]	; (80040cc <task_drawString+0x130>)
 800406c:	805a      	strh	r2, [r3, #2]
 800406e:	e016      	b.n	800409e <task_drawString+0x102>
 8004070:	4b16      	ldr	r3, [pc, #88]	; (80040cc <task_drawString+0x130>)
 8004072:	f9b3 3000 	ldrsh.w	r3, [r3]
 8004076:	b29a      	uxth	r2, r3
 8004078:	89fb      	ldrh	r3, [r7, #14]
 800407a:	1ad3      	subs	r3, r2, r3
 800407c:	b29b      	uxth	r3, r3
 800407e:	b21a      	sxth	r2, r3
 8004080:	4b12      	ldr	r3, [pc, #72]	; (80040cc <task_drawString+0x130>)
 8004082:	801a      	strh	r2, [r3, #0]
 8004084:	e00b      	b.n	800409e <task_drawString+0x102>
 8004086:	4b11      	ldr	r3, [pc, #68]	; (80040cc <task_drawString+0x130>)
 8004088:	f9b3 3002 	ldrsh.w	r3, [r3, #2]
 800408c:	b29a      	uxth	r2, r3
 800408e:	89fb      	ldrh	r3, [r7, #14]
 8004090:	1ad3      	subs	r3, r2, r3
 8004092:	b29b      	uxth	r3, r3
 8004094:	b21a      	sxth	r2, r3
 8004096:	4b0d      	ldr	r3, [pc, #52]	; (80040cc <task_drawString+0x130>)
 8004098:	805a      	strh	r2, [r3, #2]
 800409a:	e000      	b.n	800409e <task_drawString+0x102>
 800409c:	bf00      	nop
 800409e:	4b0b      	ldr	r3, [pc, #44]	; (80040cc <task_drawString+0x130>)
 80040a0:	689b      	ldr	r3, [r3, #8]
 80040a2:	3301      	adds	r3, #1
 80040a4:	4a09      	ldr	r2, [pc, #36]	; (80040cc <task_drawString+0x130>)
 80040a6:	6093      	str	r3, [r2, #8]
 80040a8:	e007      	b.n	80040ba <task_drawString+0x11e>
 80040aa:	4b06      	ldr	r3, [pc, #24]	; (80040c4 <task_drawString+0x128>)
 80040ac:	2200      	movs	r2, #0
 80040ae:	701a      	strb	r2, [r3, #0]
 80040b0:	e003      	b.n	80040ba <task_drawString+0x11e>
 80040b2:	4b04      	ldr	r3, [pc, #16]	; (80040c4 <task_drawString+0x128>)
 80040b4:	2200      	movs	r2, #0
 80040b6:	701a      	strb	r2, [r3, #0]
 80040b8:	bf00      	nop
 80040ba:	bf00      	nop
 80040bc:	3710      	adds	r7, #16
 80040be:	46bd      	mov	sp, r7
 80040c0:	bd80      	pop	{r7, pc}
 80040c2:	bf00      	nop
 80040c4:	20001624 	.word	0x20001624
 80040c8:	20000614 	.word	0x20000614
 80040cc:	200016b8 	.word	0x200016b8
 80040d0:	20000027 	.word	0x20000027

080040d4 <ucg_DrawString>:
 80040d4:	b580      	push	{r7, lr}
 80040d6:	b08a      	sub	sp, #40	; 0x28
 80040d8:	af02      	add	r7, sp, #8
 80040da:	60f8      	str	r0, [r7, #12]
 80040dc:	4608      	mov	r0, r1
 80040de:	4611      	mov	r1, r2
 80040e0:	461a      	mov	r2, r3
 80040e2:	4603      	mov	r3, r0
 80040e4:	817b      	strh	r3, [r7, #10]
 80040e6:	460b      	mov	r3, r1
 80040e8:	813b      	strh	r3, [r7, #8]
 80040ea:	4613      	mov	r3, r2
 80040ec:	71fb      	strb	r3, [r7, #7]
 80040ee:	2300      	movs	r3, #0
 80040f0:	83fb      	strh	r3, [r7, #30]
 80040f2:	897b      	ldrh	r3, [r7, #10]
 80040f4:	823b      	strh	r3, [r7, #16]
 80040f6:	893b      	ldrh	r3, [r7, #8]
 80040f8:	827b      	strh	r3, [r7, #18]
 80040fa:	79fb      	ldrb	r3, [r7, #7]
 80040fc:	753b      	strb	r3, [r7, #20]
 80040fe:	6abb      	ldr	r3, [r7, #40]	; 0x28
 8004100:	61bb      	str	r3, [r7, #24]
 8004102:	f107 0310 	add.w	r3, r7, #16
 8004106:	4619      	mov	r1, r3
 8004108:	480c      	ldr	r0, [pc, #48]	; (800413c <ucg_DrawString+0x68>)
 800410a:	f000 fb01 	bl	8004710 <bufEnDat>
 800410e:	4b0c      	ldr	r3, [pc, #48]	; (8004140 <ucg_DrawString+0x6c>)
 8004110:	781b      	ldrb	r3, [r3, #0]
 8004112:	2bff      	cmp	r3, #255	; 0xff
 8004114:	d10b      	bne.n	800412e <ucg_DrawString+0x5a>
 8004116:	68fb      	ldr	r3, [r7, #12]
 8004118:	9300      	str	r3, [sp, #0]
 800411a:	4b0a      	ldr	r3, [pc, #40]	; (8004144 <ucg_DrawString+0x70>)
 800411c:	22ff      	movs	r2, #255	; 0xff
 800411e:	211e      	movs	r1, #30
 8004120:	4809      	ldr	r0, [pc, #36]	; (8004148 <ucg_DrawString+0x74>)
 8004122:	f7fd fcc5 	bl	8001ab0 <TimerStart>
 8004126:	4603      	mov	r3, r0
 8004128:	461a      	mov	r2, r3
 800412a:	4b05      	ldr	r3, [pc, #20]	; (8004140 <ucg_DrawString+0x6c>)
 800412c:	701a      	strb	r2, [r3, #0]
 800412e:	f9b7 301e 	ldrsh.w	r3, [r7, #30]
 8004132:	4618      	mov	r0, r3
 8004134:	3720      	adds	r7, #32
 8004136:	46bd      	mov	sp, r7
 8004138:	bd80      	pop	{r7, pc}
 800413a:	bf00      	nop
 800413c:	20000614 	.word	0x20000614
 8004140:	20000027 	.word	0x20000027
 8004144:	08003f9d 	.word	0x08003f9d
 8004148:	0800798c 	.word	0x0800798c

0800414c <ucg_UpdateRefHeight>:
 800414c:	b480      	push	{r7}
 800414e:	b083      	sub	sp, #12
 8004150:	af00      	add	r7, sp, #0
 8004152:	6078      	str	r0, [r7, #4]
 8004154:	687b      	ldr	r3, [r7, #4]
 8004156:	6f9b      	ldr	r3, [r3, #120]	; 0x78
 8004158:	2b00      	cmp	r3, #0
 800415a:	d05d      	beq.n	8004218 <ucg_UpdateRefHeight+0xcc>
 800415c:	687b      	ldr	r3, [r7, #4]
 800415e:	f993 209d 	ldrsb.w	r2, [r3, #157]	; 0x9d
 8004162:	687b      	ldr	r3, [r7, #4]
 8004164:	f883 20ac 	strb.w	r2, [r3, #172]	; 0xac
 8004168:	687b      	ldr	r3, [r7, #4]
 800416a:	f993 209e 	ldrsb.w	r2, [r3, #158]	; 0x9e
 800416e:	687b      	ldr	r3, [r7, #4]
 8004170:	f883 20ad 	strb.w	r2, [r3, #173]	; 0xad
 8004174:	687b      	ldr	r3, [r7, #4]
 8004176:	f893 30ab 	ldrb.w	r3, [r3, #171]	; 0xab
 800417a:	2b00      	cmp	r3, #0
 800417c:	d04d      	beq.n	800421a <ucg_UpdateRefHeight+0xce>
 800417e:	687b      	ldr	r3, [r7, #4]
 8004180:	f893 30ab 	ldrb.w	r3, [r3, #171]	; 0xab
 8004184:	2b01      	cmp	r3, #1
 8004186:	d11c      	bne.n	80041c2 <ucg_UpdateRefHeight+0x76>
 8004188:	687b      	ldr	r3, [r7, #4]
 800418a:	f993 20ac 	ldrsb.w	r2, [r3, #172]	; 0xac
 800418e:	687b      	ldr	r3, [r7, #4]
 8004190:	f993 309f 	ldrsb.w	r3, [r3, #159]	; 0x9f
 8004194:	429a      	cmp	r2, r3
 8004196:	da05      	bge.n	80041a4 <ucg_UpdateRefHeight+0x58>
 8004198:	687b      	ldr	r3, [r7, #4]
 800419a:	f993 209f 	ldrsb.w	r2, [r3, #159]	; 0x9f
 800419e:	687b      	ldr	r3, [r7, #4]
 80041a0:	f883 20ac 	strb.w	r2, [r3, #172]	; 0xac
 80041a4:	687b      	ldr	r3, [r7, #4]
 80041a6:	f993 20ad 	ldrsb.w	r2, [r3, #173]	; 0xad
 80041aa:	687b      	ldr	r3, [r7, #4]
 80041ac:	f993 30a0 	ldrsb.w	r3, [r3, #160]	; 0xa0
 80041b0:	429a      	cmp	r2, r3
 80041b2:	dd32      	ble.n	800421a <ucg_UpdateRefHeight+0xce>
 80041b4:	687b      	ldr	r3, [r7, #4]
 80041b6:	f993 20a0 	ldrsb.w	r2, [r3, #160]	; 0xa0
 80041ba:	687b      	ldr	r3, [r7, #4]
 80041bc:	f883 20ad 	strb.w	r2, [r3, #173]	; 0xad
 80041c0:	e02b      	b.n	800421a <ucg_UpdateRefHeight+0xce>
 80041c2:	687b      	ldr	r3, [r7, #4]
 80041c4:	f993 30ac 	ldrsb.w	r3, [r3, #172]	; 0xac
 80041c8:	461a      	mov	r2, r3
 80041ca:	687b      	ldr	r3, [r7, #4]
 80041cc:	f993 309a 	ldrsb.w	r3, [r3, #154]	; 0x9a
 80041d0:	4619      	mov	r1, r3
 80041d2:	687b      	ldr	r3, [r7, #4]
 80041d4:	f993 309c 	ldrsb.w	r3, [r3, #156]	; 0x9c
 80041d8:	440b      	add	r3, r1
 80041da:	429a      	cmp	r2, r3
 80041dc:	da0d      	bge.n	80041fa <ucg_UpdateRefHeight+0xae>
 80041de:	687b      	ldr	r3, [r7, #4]
 80041e0:	f993 309a 	ldrsb.w	r3, [r3, #154]	; 0x9a
 80041e4:	b2da      	uxtb	r2, r3
 80041e6:	687b      	ldr	r3, [r7, #4]
 80041e8:	f993 309c 	ldrsb.w	r3, [r3, #156]	; 0x9c
 80041ec:	b2db      	uxtb	r3, r3
 80041ee:	4413      	add	r3, r2
 80041f0:	b2db      	uxtb	r3, r3
 80041f2:	b25a      	sxtb	r2, r3
 80041f4:	687b      	ldr	r3, [r7, #4]
 80041f6:	f883 20ac 	strb.w	r2, [r3, #172]	; 0xac
 80041fa:	687b      	ldr	r3, [r7, #4]
 80041fc:	f993 20ad 	ldrsb.w	r2, [r3, #173]	; 0xad
 8004200:	687b      	ldr	r3, [r7, #4]
 8004202:	f993 309c 	ldrsb.w	r3, [r3, #156]	; 0x9c
 8004206:	429a      	cmp	r2, r3
 8004208:	dd07      	ble.n	800421a <ucg_UpdateRefHeight+0xce>
 800420a:	687b      	ldr	r3, [r7, #4]
 800420c:	f993 209c 	ldrsb.w	r2, [r3, #156]	; 0x9c
 8004210:	687b      	ldr	r3, [r7, #4]
 8004212:	f883 20ad 	strb.w	r2, [r3, #173]	; 0xad
 8004216:	e000      	b.n	800421a <ucg_UpdateRefHeight+0xce>
 8004218:	bf00      	nop
 800421a:	370c      	adds	r7, #12
 800421c:	46bd      	mov	sp, r7
 800421e:	f85d 7b04 	ldr.w	r7, [sp], #4
 8004222:	4770      	bx	lr

08004224 <ucg_font_calc_vref_font>:
 8004224:	b480      	push	{r7}
 8004226:	b083      	sub	sp, #12
 8004228:	af00      	add	r7, sp, #0
 800422a:	6078      	str	r0, [r7, #4]
 800422c:	2300      	movs	r3, #0
 800422e:	4618      	mov	r0, r3
 8004230:	370c      	adds	r7, #12
 8004232:	46bd      	mov	sp, r7
 8004234:	f85d 7b04 	ldr.w	r7, [sp], #4
 8004238:	4770      	bx	lr
	...

0800423c <ucg_SetFontPosBaseline>:
 800423c:	b480      	push	{r7}
 800423e:	b083      	sub	sp, #12
 8004240:	af00      	add	r7, sp, #0
 8004242:	6078      	str	r0, [r7, #4]
 8004244:	687b      	ldr	r3, [r7, #4]
 8004246:	4a04      	ldr	r2, [pc, #16]	; (8004258 <ucg_SetFontPosBaseline+0x1c>)
 8004248:	67da      	str	r2, [r3, #124]	; 0x7c
 800424a:	bf00      	nop
 800424c:	370c      	adds	r7, #12
 800424e:	46bd      	mov	sp, r7
 8004250:	f85d 7b04 	ldr.w	r7, [sp], #4
 8004254:	4770      	bx	lr
 8004256:	bf00      	nop
 8004258:	08004225 	.word	0x08004225

0800425c <ucg_SetFont>:
 800425c:	b580      	push	{r7, lr}
 800425e:	b082      	sub	sp, #8
 8004260:	af00      	add	r7, sp, #0
 8004262:	6078      	str	r0, [r7, #4]
 8004264:	6039      	str	r1, [r7, #0]
 8004266:	687b      	ldr	r3, [r7, #4]
 8004268:	6f9b      	ldr	r3, [r3, #120]	; 0x78
 800426a:	683a      	ldr	r2, [r7, #0]
 800426c:	429a      	cmp	r2, r3
 800426e:	d012      	beq.n	8004296 <ucg_SetFont+0x3a>
 8004270:	687b      	ldr	r3, [r7, #4]
 8004272:	683a      	ldr	r2, [r7, #0]
 8004274:	679a      	str	r2, [r3, #120]	; 0x78
 8004276:	687b      	ldr	r3, [r7, #4]
 8004278:	3390      	adds	r3, #144	; 0x90
 800427a:	6839      	ldr	r1, [r7, #0]
 800427c:	4618      	mov	r0, r3
 800427e:	f7ff fac9 	bl	8003814 <ucg_read_font_info>
 8004282:	6878      	ldr	r0, [r7, #4]
 8004284:	f7ff ff62 	bl	800414c <ucg_UpdateRefHeight>
 8004288:	f44f 5380 	mov.w	r3, #4096	; 0x1000
 800428c:	220c      	movs	r2, #12
 800428e:	4904      	ldr	r1, [pc, #16]	; (80042a0 <ucg_SetFont+0x44>)
 8004290:	4804      	ldr	r0, [pc, #16]	; (80042a4 <ucg_SetFont+0x48>)
 8004292:	f000 f9d7 	bl	8004644 <bufInit>
 8004296:	bf00      	nop
 8004298:	3708      	adds	r7, #8
 800429a:	46bd      	mov	sp, r7
 800429c:	bd80      	pop	{r7, pc}
 800429e:	bf00      	nop
 80042a0:	20000614 	.word	0x20000614
 80042a4:	20000624 	.word	0x20000624

080042a8 <ucg_init_struct>:
 80042a8:	b480      	push	{r7}
 80042aa:	b083      	sub	sp, #12
 80042ac:	af00      	add	r7, sp, #0
 80042ae:	6078      	str	r0, [r7, #4]
 80042b0:	687a      	ldr	r2, [r7, #4]
 80042b2:	7813      	ldrb	r3, [r2, #0]
 80042b4:	f36f 0300 	bfc	r3, #0, #1
 80042b8:	7013      	strb	r3, [r2, #0]
 80042ba:	687b      	ldr	r3, [r7, #4]
 80042bc:	2200      	movs	r2, #0
 80042be:	611a      	str	r2, [r3, #16]
 80042c0:	687b      	ldr	r3, [r7, #4]
 80042c2:	2201      	movs	r2, #1
 80042c4:	865a      	strh	r2, [r3, #50]	; 0x32
 80042c6:	687b      	ldr	r3, [r7, #4]
 80042c8:	2200      	movs	r2, #0
 80042ca:	679a      	str	r2, [r3, #120]	; 0x78
 80042cc:	687b      	ldr	r3, [r7, #4]
 80042ce:	2201      	movs	r2, #1
 80042d0:	f883 208d 	strb.w	r2, [r3, #141]	; 0x8d
 80042d4:	687b      	ldr	r3, [r7, #4]
 80042d6:	2200      	movs	r2, #0
 80042d8:	f883 20ae 	strb.w	r2, [r3, #174]	; 0xae
 80042dc:	687b      	ldr	r3, [r7, #4]
 80042de:	2200      	movs	r2, #0
 80042e0:	f883 20af 	strb.w	r2, [r3, #175]	; 0xaf
 80042e4:	687b      	ldr	r3, [r7, #4]
 80042e6:	2200      	movs	r2, #0
 80042e8:	f883 20b0 	strb.w	r2, [r3, #176]	; 0xb0
 80042ec:	bf00      	nop
 80042ee:	370c      	adds	r7, #12
 80042f0:	46bd      	mov	sp, r7
 80042f2:	f85d 7b04 	ldr.w	r7, [sp], #4
 80042f6:	4770      	bx	lr

080042f8 <ucg_Init>:
 80042f8:	b580      	push	{r7, lr}
 80042fa:	b086      	sub	sp, #24
 80042fc:	af00      	add	r7, sp, #0
 80042fe:	60f8      	str	r0, [r7, #12]
 8004300:	60b9      	str	r1, [r7, #8]
 8004302:	607a      	str	r2, [r7, #4]
 8004304:	603b      	str	r3, [r7, #0]
 8004306:	68f8      	ldr	r0, [r7, #12]
 8004308:	f7ff ffce 	bl	80042a8 <ucg_init_struct>
 800430c:	687b      	ldr	r3, [r7, #4]
 800430e:	2b00      	cmp	r3, #0
 8004310:	d103      	bne.n	800431a <ucg_Init+0x22>
 8004312:	68fb      	ldr	r3, [r7, #12]
 8004314:	4a0e      	ldr	r2, [pc, #56]	; (8004350 <ucg_Init+0x58>)
 8004316:	60da      	str	r2, [r3, #12]
 8004318:	e002      	b.n	8004320 <ucg_Init+0x28>
 800431a:	68fb      	ldr	r3, [r7, #12]
 800431c:	687a      	ldr	r2, [r7, #4]
 800431e:	60da      	str	r2, [r3, #12]
 8004320:	68fb      	ldr	r3, [r7, #12]
 8004322:	68ba      	ldr	r2, [r7, #8]
 8004324:	609a      	str	r2, [r3, #8]
 8004326:	68fb      	ldr	r3, [r7, #12]
 8004328:	683a      	ldr	r2, [r7, #0]
 800432a:	61da      	str	r2, [r3, #28]
 800432c:	68f8      	ldr	r0, [r7, #12]
 800432e:	f7ff ff85 	bl	800423c <ucg_SetFontPosBaseline>
 8004332:	68f8      	ldr	r0, [r7, #12]
 8004334:	f7ff f996 	bl	8003664 <ucg_PowerUp>
 8004338:	4603      	mov	r3, r0
 800433a:	82fb      	strh	r3, [r7, #22]
 800433c:	68f8      	ldr	r0, [r7, #12]
 800433e:	f7ff f9d6 	bl	80036ee <ucg_GetDimension>
 8004342:	f9b7 3016 	ldrsh.w	r3, [r7, #22]
 8004346:	4618      	mov	r0, r3
 8004348:	3718      	adds	r7, #24
 800434a:	46bd      	mov	sp, r7
 800434c:	bd80      	pop	{r7, pc}
 800434e:	bf00      	nop
 8004350:	080032c9 	.word	0x080032c9

08004354 <ucg_Draw90Line>:
 8004354:	b580      	push	{r7, lr}
 8004356:	b084      	sub	sp, #16
 8004358:	af00      	add	r7, sp, #0
 800435a:	60f8      	str	r0, [r7, #12]
 800435c:	4608      	mov	r0, r1
 800435e:	4611      	mov	r1, r2
 8004360:	461a      	mov	r2, r3
 8004362:	4603      	mov	r3, r0
 8004364:	817b      	strh	r3, [r7, #10]
 8004366:	460b      	mov	r3, r1
 8004368:	813b      	strh	r3, [r7, #8]
 800436a:	4613      	mov	r3, r2
 800436c:	80fb      	strh	r3, [r7, #6]
 800436e:	f9b7 201c 	ldrsh.w	r2, [r7, #28]
 8004372:	68f9      	ldr	r1, [r7, #12]
 8004374:	4613      	mov	r3, r2
 8004376:	005b      	lsls	r3, r3, #1
 8004378:	4413      	add	r3, r2
 800437a:	440b      	add	r3, r1
 800437c:	333a      	adds	r3, #58	; 0x3a
 800437e:	781a      	ldrb	r2, [r3, #0]
 8004380:	68fb      	ldr	r3, [r7, #12]
 8004382:	f883 2028 	strb.w	r2, [r3, #40]	; 0x28
 8004386:	f9b7 201c 	ldrsh.w	r2, [r7, #28]
 800438a:	68f9      	ldr	r1, [r7, #12]
 800438c:	4613      	mov	r3, r2
 800438e:	005b      	lsls	r3, r3, #1
 8004390:	4413      	add	r3, r2
 8004392:	440b      	add	r3, r1
 8004394:	333b      	adds	r3, #59	; 0x3b
 8004396:	781a      	ldrb	r2, [r3, #0]
 8004398:	68fb      	ldr	r3, [r7, #12]
 800439a:	f883 2029 	strb.w	r2, [r3, #41]	; 0x29
 800439e:	f9b7 201c 	ldrsh.w	r2, [r7, #28]
 80043a2:	68f9      	ldr	r1, [r7, #12]
 80043a4:	4613      	mov	r3, r2
 80043a6:	005b      	lsls	r3, r3, #1
 80043a8:	4413      	add	r3, r2
 80043aa:	440b      	add	r3, r1
 80043ac:	333c      	adds	r3, #60	; 0x3c
 80043ae:	781a      	ldrb	r2, [r3, #0]
 80043b0:	68fb      	ldr	r3, [r7, #12]
 80043b2:	f883 202a 	strb.w	r2, [r3, #42]	; 0x2a
 80043b6:	68fb      	ldr	r3, [r7, #12]
 80043b8:	897a      	ldrh	r2, [r7, #10]
 80043ba:	849a      	strh	r2, [r3, #36]	; 0x24
 80043bc:	68fb      	ldr	r3, [r7, #12]
 80043be:	893a      	ldrh	r2, [r7, #8]
 80043c0:	84da      	strh	r2, [r3, #38]	; 0x26
 80043c2:	68fb      	ldr	r3, [r7, #12]
 80043c4:	88fa      	ldrh	r2, [r7, #6]
 80043c6:	859a      	strh	r2, [r3, #44]	; 0x2c
 80043c8:	68fb      	ldr	r3, [r7, #12]
 80043ca:	8b3a      	ldrh	r2, [r7, #24]
 80043cc:	85da      	strh	r2, [r3, #46]	; 0x2e
 80043ce:	68f8      	ldr	r0, [r7, #12]
 80043d0:	f7ff f99f 	bl	8003712 <ucg_DrawL90FXWithArg>
 80043d4:	bf00      	nop
 80043d6:	3710      	adds	r7, #16
 80043d8:	46bd      	mov	sp, r7
 80043da:	bd80      	pop	{r7, pc}

080043dc <ucg_DrawHLine>:
 80043dc:	b580      	push	{r7, lr}
 80043de:	b086      	sub	sp, #24
 80043e0:	af02      	add	r7, sp, #8
 80043e2:	60f8      	str	r0, [r7, #12]
 80043e4:	4608      	mov	r0, r1
 80043e6:	4611      	mov	r1, r2
 80043e8:	461a      	mov	r2, r3
 80043ea:	4603      	mov	r3, r0
 80043ec:	817b      	strh	r3, [r7, #10]
 80043ee:	460b      	mov	r3, r1
 80043f0:	813b      	strh	r3, [r7, #8]
 80043f2:	4613      	mov	r3, r2
 80043f4:	80fb      	strh	r3, [r7, #6]
 80043f6:	f9b7 0006 	ldrsh.w	r0, [r7, #6]
 80043fa:	f9b7 2008 	ldrsh.w	r2, [r7, #8]
 80043fe:	f9b7 100a 	ldrsh.w	r1, [r7, #10]
 8004402:	2300      	movs	r3, #0
 8004404:	9301      	str	r3, [sp, #4]
 8004406:	2300      	movs	r3, #0
 8004408:	9300      	str	r3, [sp, #0]
 800440a:	4603      	mov	r3, r0
 800440c:	68f8      	ldr	r0, [r7, #12]
 800440e:	f7ff ffa1 	bl	8004354 <ucg_Draw90Line>
 8004412:	bf00      	nop
 8004414:	3710      	adds	r7, #16
 8004416:	46bd      	mov	sp, r7
 8004418:	bd80      	pop	{r7, pc}

0800441a <ucg_SetColor>:
 800441a:	b480      	push	{r7}
 800441c:	b083      	sub	sp, #12
 800441e:	af00      	add	r7, sp, #0
 8004420:	6078      	str	r0, [r7, #4]
 8004422:	4608      	mov	r0, r1
 8004424:	4611      	mov	r1, r2
 8004426:	461a      	mov	r2, r3
 8004428:	4603      	mov	r3, r0
 800442a:	70fb      	strb	r3, [r7, #3]
 800442c:	460b      	mov	r3, r1
 800442e:	70bb      	strb	r3, [r7, #2]
 8004430:	4613      	mov	r3, r2
 8004432:	707b      	strb	r3, [r7, #1]
 8004434:	78fa      	ldrb	r2, [r7, #3]
 8004436:	6879      	ldr	r1, [r7, #4]
 8004438:	4613      	mov	r3, r2
 800443a:	005b      	lsls	r3, r3, #1
 800443c:	4413      	add	r3, r2
 800443e:	440b      	add	r3, r1
 8004440:	333a      	adds	r3, #58	; 0x3a
 8004442:	78ba      	ldrb	r2, [r7, #2]
 8004444:	701a      	strb	r2, [r3, #0]
 8004446:	78fa      	ldrb	r2, [r7, #3]
 8004448:	6879      	ldr	r1, [r7, #4]
 800444a:	4613      	mov	r3, r2
 800444c:	005b      	lsls	r3, r3, #1
 800444e:	4413      	add	r3, r2
 8004450:	440b      	add	r3, r1
 8004452:	333b      	adds	r3, #59	; 0x3b
 8004454:	787a      	ldrb	r2, [r7, #1]
 8004456:	701a      	strb	r2, [r3, #0]
 8004458:	78fa      	ldrb	r2, [r7, #3]
 800445a:	6879      	ldr	r1, [r7, #4]
 800445c:	4613      	mov	r3, r2
 800445e:	005b      	lsls	r3, r3, #1
 8004460:	4413      	add	r3, r2
 8004462:	440b      	add	r3, r1
 8004464:	333c      	adds	r3, #60	; 0x3c
 8004466:	7c3a      	ldrb	r2, [r7, #16]
 8004468:	701a      	strb	r2, [r3, #0]
 800446a:	bf00      	nop
 800446c:	370c      	adds	r7, #12
 800446e:	46bd      	mov	sp, r7
 8004470:	f85d 7b04 	ldr.w	r7, [sp], #4
 8004474:	4770      	bx	lr

08004476 <ucg_UndoRotate>:
 8004476:	b580      	push	{r7, lr}
 8004478:	b082      	sub	sp, #8
 800447a:	af00      	add	r7, sp, #0
 800447c:	6078      	str	r0, [r7, #4]
 800447e:	687b      	ldr	r3, [r7, #4]
 8004480:	691b      	ldr	r3, [r3, #16]
 8004482:	2b00      	cmp	r3, #0
 8004484:	d006      	beq.n	8004494 <ucg_UndoRotate+0x1e>
 8004486:	687b      	ldr	r3, [r7, #4]
 8004488:	691a      	ldr	r2, [r3, #16]
 800448a:	687b      	ldr	r3, [r7, #4]
 800448c:	609a      	str	r2, [r3, #8]
 800448e:	687b      	ldr	r3, [r7, #4]
 8004490:	2200      	movs	r2, #0
 8004492:	611a      	str	r2, [r3, #16]
 8004494:	6878      	ldr	r0, [r7, #4]
 8004496:	f7ff f92a 	bl	80036ee <ucg_GetDimension>
 800449a:	6878      	ldr	r0, [r7, #4]
 800449c:	f7ff f90f 	bl	80036be <ucg_SetMaxClipRange>
 80044a0:	bf00      	nop
 80044a2:	3708      	adds	r7, #8
 80044a4:	46bd      	mov	sp, r7
 80044a6:	bd80      	pop	{r7, pc}

080044a8 <ucg_rotate_180_xy>:
 80044a8:	b480      	push	{r7}
 80044aa:	b085      	sub	sp, #20
 80044ac:	af00      	add	r7, sp, #0
 80044ae:	6078      	str	r0, [r7, #4]
 80044b0:	6039      	str	r1, [r7, #0]
 80044b2:	687b      	ldr	r3, [r7, #4]
 80044b4:	8adb      	ldrh	r3, [r3, #22]
 80044b6:	81fb      	strh	r3, [r7, #14]
 80044b8:	89fa      	ldrh	r2, [r7, #14]
 80044ba:	683b      	ldr	r3, [r7, #0]
 80044bc:	f9b3 3002 	ldrsh.w	r3, [r3, #2]
 80044c0:	b29b      	uxth	r3, r3
 80044c2:	1ad3      	subs	r3, r2, r3
 80044c4:	b29b      	uxth	r3, r3
 80044c6:	81fb      	strh	r3, [r7, #14]
 80044c8:	f9b7 300e 	ldrsh.w	r3, [r7, #14]
 80044cc:	b29b      	uxth	r3, r3
 80044ce:	3b01      	subs	r3, #1
 80044d0:	b29b      	uxth	r3, r3
 80044d2:	81fb      	strh	r3, [r7, #14]
 80044d4:	683b      	ldr	r3, [r7, #0]
 80044d6:	89fa      	ldrh	r2, [r7, #14]
 80044d8:	805a      	strh	r2, [r3, #2]
 80044da:	687b      	ldr	r3, [r7, #4]
 80044dc:	8a9b      	ldrh	r3, [r3, #20]
 80044de:	81bb      	strh	r3, [r7, #12]
 80044e0:	89ba      	ldrh	r2, [r7, #12]
 80044e2:	683b      	ldr	r3, [r7, #0]
 80044e4:	f9b3 3000 	ldrsh.w	r3, [r3]
 80044e8:	b29b      	uxth	r3, r3
 80044ea:	1ad3      	subs	r3, r2, r3
 80044ec:	b29b      	uxth	r3, r3
 80044ee:	81bb      	strh	r3, [r7, #12]
 80044f0:	f9b7 300c 	ldrsh.w	r3, [r7, #12]
 80044f4:	b29b      	uxth	r3, r3
 80044f6:	3b01      	subs	r3, #1
 80044f8:	b29b      	uxth	r3, r3
 80044fa:	81bb      	strh	r3, [r7, #12]
 80044fc:	683b      	ldr	r3, [r7, #0]
 80044fe:	89ba      	ldrh	r2, [r7, #12]
 8004500:	801a      	strh	r2, [r3, #0]
 8004502:	bf00      	nop
 8004504:	3714      	adds	r7, #20
 8004506:	46bd      	mov	sp, r7
 8004508:	f85d 7b04 	ldr.w	r7, [sp], #4
 800450c:	4770      	bx	lr
	...

08004510 <ucg_dev_rotate180>:
 8004510:	b580      	push	{r7, lr}
 8004512:	b084      	sub	sp, #16
 8004514:	af00      	add	r7, sp, #0
 8004516:	60f8      	str	r0, [r7, #12]
 8004518:	460b      	mov	r3, r1
 800451a:	607a      	str	r2, [r7, #4]
 800451c:	817b      	strh	r3, [r7, #10]
 800451e:	f9b7 300a 	ldrsh.w	r3, [r7, #10]
 8004522:	3b0c      	subs	r3, #12
 8004524:	2b0b      	cmp	r3, #11
 8004526:	d866      	bhi.n	80045f6 <ucg_dev_rotate180+0xe6>
 8004528:	a201      	add	r2, pc, #4	; (adr r2, 8004530 <ucg_dev_rotate180+0x20>)
 800452a:	f852 f023 	ldr.w	pc, [r2, r3, lsl #2]
 800452e:	bf00      	nop
 8004530:	0800457f 	.word	0x0800457f
 8004534:	080045f7 	.word	0x080045f7
 8004538:	080045f7 	.word	0x080045f7
 800453c:	08004561 	.word	0x08004561
 8004540:	080045f7 	.word	0x080045f7
 8004544:	080045f7 	.word	0x080045f7
 8004548:	080045f7 	.word	0x080045f7
 800454c:	080045f7 	.word	0x080045f7
 8004550:	080045c7 	.word	0x080045c7
 8004554:	080045c7 	.word	0x080045c7
 8004558:	080045f7 	.word	0x080045f7
 800455c:	080045c7 	.word	0x080045c7
 8004560:	68fb      	ldr	r3, [r7, #12]
 8004562:	691b      	ldr	r3, [r3, #16]
 8004564:	68fa      	ldr	r2, [r7, #12]
 8004566:	3214      	adds	r2, #20
 8004568:	f9b7 100a 	ldrsh.w	r1, [r7, #10]
 800456c:	68f8      	ldr	r0, [r7, #12]
 800456e:	4798      	blx	r3
 8004570:	687a      	ldr	r2, [r7, #4]
 8004572:	68fb      	ldr	r3, [r7, #12]
 8004574:	3314      	adds	r3, #20
 8004576:	6818      	ldr	r0, [r3, #0]
 8004578:	6010      	str	r0, [r2, #0]
 800457a:	2301      	movs	r3, #1
 800457c:	e043      	b.n	8004606 <ucg_dev_rotate180+0xf6>
 800457e:	687b      	ldr	r3, [r7, #4]
 8004580:	f9b3 3002 	ldrsh.w	r3, [r3, #2]
 8004584:	b29a      	uxth	r2, r3
 8004586:	687b      	ldr	r3, [r7, #4]
 8004588:	f9b3 3006 	ldrsh.w	r3, [r3, #6]
 800458c:	b29b      	uxth	r3, r3
 800458e:	4413      	add	r3, r2
 8004590:	b29b      	uxth	r3, r3
 8004592:	3b01      	subs	r3, #1
 8004594:	b29b      	uxth	r3, r3
 8004596:	b21a      	sxth	r2, r3
 8004598:	687b      	ldr	r3, [r7, #4]
 800459a:	805a      	strh	r2, [r3, #2]
 800459c:	687b      	ldr	r3, [r7, #4]
 800459e:	f9b3 3000 	ldrsh.w	r3, [r3]
 80045a2:	b29a      	uxth	r2, r3
 80045a4:	687b      	ldr	r3, [r7, #4]
 80045a6:	f9b3 3004 	ldrsh.w	r3, [r3, #4]
 80045aa:	b29b      	uxth	r3, r3
 80045ac:	4413      	add	r3, r2
 80045ae:	b29b      	uxth	r3, r3
 80045b0:	3b01      	subs	r3, #1
 80045b2:	b29b      	uxth	r3, r3
 80045b4:	b21a      	sxth	r2, r3
 80045b6:	687b      	ldr	r3, [r7, #4]
 80045b8:	801a      	strh	r2, [r3, #0]
 80045ba:	687b      	ldr	r3, [r7, #4]
 80045bc:	4619      	mov	r1, r3
 80045be:	68f8      	ldr	r0, [r7, #12]
 80045c0:	f7ff ff72 	bl	80044a8 <ucg_rotate_180_xy>
 80045c4:	e017      	b.n	80045f6 <ucg_dev_rotate180+0xe6>
 80045c6:	68fb      	ldr	r3, [r7, #12]
 80045c8:	f9b3 302e 	ldrsh.w	r3, [r3, #46]	; 0x2e
 80045cc:	b29b      	uxth	r3, r3
 80045ce:	3302      	adds	r3, #2
 80045d0:	b29b      	uxth	r3, r3
 80045d2:	b21a      	sxth	r2, r3
 80045d4:	68fb      	ldr	r3, [r7, #12]
 80045d6:	85da      	strh	r2, [r3, #46]	; 0x2e
 80045d8:	68fb      	ldr	r3, [r7, #12]
 80045da:	f9b3 302e 	ldrsh.w	r3, [r3, #46]	; 0x2e
 80045de:	f003 0303 	and.w	r3, r3, #3
 80045e2:	b21a      	sxth	r2, r3
 80045e4:	68fb      	ldr	r3, [r7, #12]
 80045e6:	85da      	strh	r2, [r3, #46]	; 0x2e
 80045e8:	68fb      	ldr	r3, [r7, #12]
 80045ea:	3324      	adds	r3, #36	; 0x24
 80045ec:	4619      	mov	r1, r3
 80045ee:	68f8      	ldr	r0, [r7, #12]
 80045f0:	f7ff ff5a 	bl	80044a8 <ucg_rotate_180_xy>
 80045f4:	bf00      	nop
 80045f6:	68fb      	ldr	r3, [r7, #12]
 80045f8:	691b      	ldr	r3, [r3, #16]
 80045fa:	f9b7 100a 	ldrsh.w	r1, [r7, #10]
 80045fe:	687a      	ldr	r2, [r7, #4]
 8004600:	68f8      	ldr	r0, [r7, #12]
 8004602:	4798      	blx	r3
 8004604:	4603      	mov	r3, r0
 8004606:	4618      	mov	r0, r3
 8004608:	3710      	adds	r7, #16
 800460a:	46bd      	mov	sp, r7
 800460c:	bd80      	pop	{r7, pc}
 800460e:	bf00      	nop

08004610 <ucg_SetRotate180>:
 8004610:	b580      	push	{r7, lr}
 8004612:	b082      	sub	sp, #8
 8004614:	af00      	add	r7, sp, #0
 8004616:	6078      	str	r0, [r7, #4]
 8004618:	6878      	ldr	r0, [r7, #4]
 800461a:	f7ff ff2c 	bl	8004476 <ucg_UndoRotate>
 800461e:	687b      	ldr	r3, [r7, #4]
 8004620:	689a      	ldr	r2, [r3, #8]
 8004622:	687b      	ldr	r3, [r7, #4]
 8004624:	611a      	str	r2, [r3, #16]
 8004626:	687b      	ldr	r3, [r7, #4]
 8004628:	4a05      	ldr	r2, [pc, #20]	; (8004640 <ucg_SetRotate180+0x30>)
 800462a:	609a      	str	r2, [r3, #8]
 800462c:	6878      	ldr	r0, [r7, #4]
 800462e:	f7ff f85e 	bl	80036ee <ucg_GetDimension>
 8004632:	6878      	ldr	r0, [r7, #4]
 8004634:	f7ff f843 	bl	80036be <ucg_SetMaxClipRange>
 8004638:	bf00      	nop
 800463a:	3708      	adds	r7, #8
 800463c:	46bd      	mov	sp, r7
 800463e:	bd80      	pop	{r7, pc}
 8004640:	08004511 	.word	0x08004511

08004644 <bufInit>:
 8004644:	b580      	push	{r7, lr}
 8004646:	b084      	sub	sp, #16
 8004648:	af00      	add	r7, sp, #0
 800464a:	60f8      	str	r0, [r7, #12]
 800464c:	60b9      	str	r1, [r7, #8]
 800464e:	4611      	mov	r1, r2
 8004650:	461a      	mov	r2, r3
 8004652:	460b      	mov	r3, r1
 8004654:	71fb      	strb	r3, [r7, #7]
 8004656:	4613      	mov	r3, r2
 8004658:	80bb      	strh	r3, [r7, #4]
 800465a:	68bb      	ldr	r3, [r7, #8]
 800465c:	88ba      	ldrh	r2, [r7, #4]
 800465e:	801a      	strh	r2, [r3, #0]
 8004660:	68bb      	ldr	r3, [r7, #8]
 8004662:	79fa      	ldrb	r2, [r7, #7]
 8004664:	711a      	strb	r2, [r3, #4]
 8004666:	68bb      	ldr	r3, [r7, #8]
 8004668:	68fa      	ldr	r2, [r7, #12]
 800466a:	60da      	str	r2, [r3, #12]
 800466c:	68b8      	ldr	r0, [r7, #8]
 800466e:	f000 f836 	bl	80046de <bufFlush>
 8004672:	bf00      	nop
 8004674:	3710      	adds	r7, #16
 8004676:	46bd      	mov	sp, r7
 8004678:	bd80      	pop	{r7, pc}

0800467a <bufNumItems>:
 800467a:	b480      	push	{r7}
 800467c:	b083      	sub	sp, #12
 800467e:	af00      	add	r7, sp, #0
 8004680:	6078      	str	r0, [r7, #4]
 8004682:	687b      	ldr	r3, [r7, #4]
 8004684:	885b      	ldrh	r3, [r3, #2]
 8004686:	4618      	mov	r0, r3
 8004688:	370c      	adds	r7, #12
 800468a:	46bd      	mov	sp, r7
 800468c:	f85d 7b04 	ldr.w	r7, [sp], #4
 8004690:	4770      	bx	lr

08004692 <bufIsFull>:
 8004692:	b480      	push	{r7}
 8004694:	b083      	sub	sp, #12
 8004696:	af00      	add	r7, sp, #0
 8004698:	6078      	str	r0, [r7, #4]
 800469a:	687b      	ldr	r3, [r7, #4]
 800469c:	885a      	ldrh	r2, [r3, #2]
 800469e:	687b      	ldr	r3, [r7, #4]
 80046a0:	881b      	ldrh	r3, [r3, #0]
 80046a2:	429a      	cmp	r2, r3
 80046a4:	bf2c      	ite	cs
 80046a6:	2301      	movcs	r3, #1
 80046a8:	2300      	movcc	r3, #0
 80046aa:	b2db      	uxtb	r3, r3
 80046ac:	4618      	mov	r0, r3
 80046ae:	370c      	adds	r7, #12
 80046b0:	46bd      	mov	sp, r7
 80046b2:	f85d 7b04 	ldr.w	r7, [sp], #4
 80046b6:	4770      	bx	lr

080046b8 <bufIsEmpty>:
 80046b8:	b480      	push	{r7}
 80046ba:	b083      	sub	sp, #12
 80046bc:	af00      	add	r7, sp, #0
 80046be:	6078      	str	r0, [r7, #4]
 80046c0:	687b      	ldr	r3, [r7, #4]
 80046c2:	88da      	ldrh	r2, [r3, #6]
 80046c4:	687b      	ldr	r3, [r7, #4]
 80046c6:	891b      	ldrh	r3, [r3, #8]
 80046c8:	429a      	cmp	r2, r3
 80046ca:	bf0c      	ite	eq
 80046cc:	2301      	moveq	r3, #1
 80046ce:	2300      	movne	r3, #0
 80046d0:	b2db      	uxtb	r3, r3
 80046d2:	4618      	mov	r0, r3
 80046d4:	370c      	adds	r7, #12
 80046d6:	46bd      	mov	sp, r7
 80046d8:	f85d 7b04 	ldr.w	r7, [sp], #4
 80046dc:	4770      	bx	lr

080046de <bufFlush>:
 80046de:	b580      	push	{r7, lr}
 80046e0:	b082      	sub	sp, #8
 80046e2:	af00      	add	r7, sp, #0
 80046e4:	6078      	str	r0, [r7, #4]
 80046e6:	687b      	ldr	r3, [r7, #4]
 80046e8:	2200      	movs	r2, #0
 80046ea:	80da      	strh	r2, [r3, #6]
 80046ec:	687b      	ldr	r3, [r7, #4]
 80046ee:	2200      	movs	r2, #0
 80046f0:	811a      	strh	r2, [r3, #8]
 80046f2:	687b      	ldr	r3, [r7, #4]
 80046f4:	2200      	movs	r2, #0
 80046f6:	805a      	strh	r2, [r3, #2]
 80046f8:	687b      	ldr	r3, [r7, #4]
 80046fa:	68d8      	ldr	r0, [r3, #12]
 80046fc:	687b      	ldr	r3, [r7, #4]
 80046fe:	881b      	ldrh	r3, [r3, #0]
 8004700:	461a      	mov	r2, r3
 8004702:	2100      	movs	r1, #0
 8004704:	f000 f894 	bl	8004830 <memsetl>
 8004708:	bf00      	nop
 800470a:	3708      	adds	r7, #8
 800470c:	46bd      	mov	sp, r7
 800470e:	bd80      	pop	{r7, pc}

08004710 <bufEnDat>:
 8004710:	b580      	push	{r7, lr}
 8004712:	b084      	sub	sp, #16
 8004714:	af00      	add	r7, sp, #0
 8004716:	6078      	str	r0, [r7, #4]
 8004718:	6039      	str	r1, [r7, #0]
 800471a:	b672      	cpsid	i
 800471c:	2300      	movs	r3, #0
 800471e:	73fb      	strb	r3, [r7, #15]
 8004720:	e021      	b.n	8004766 <bufEnDat+0x56>
 8004722:	7bfb      	ldrb	r3, [r7, #15]
 8004724:	683a      	ldr	r2, [r7, #0]
 8004726:	441a      	add	r2, r3
 8004728:	687b      	ldr	r3, [r7, #4]
 800472a:	68db      	ldr	r3, [r3, #12]
 800472c:	6879      	ldr	r1, [r7, #4]
 800472e:	88c9      	ldrh	r1, [r1, #6]
 8004730:	440b      	add	r3, r1
 8004732:	7812      	ldrb	r2, [r2, #0]
 8004734:	701a      	strb	r2, [r3, #0]
 8004736:	687b      	ldr	r3, [r7, #4]
 8004738:	88db      	ldrh	r3, [r3, #6]
 800473a:	3301      	adds	r3, #1
 800473c:	b29b      	uxth	r3, r3
 800473e:	b21a      	sxth	r2, r3
 8004740:	687b      	ldr	r3, [r7, #4]
 8004742:	881b      	ldrh	r3, [r3, #0]
 8004744:	3b01      	subs	r3, #1
 8004746:	b29b      	uxth	r3, r3
 8004748:	b21b      	sxth	r3, r3
 800474a:	4013      	ands	r3, r2
 800474c:	b21b      	sxth	r3, r3
 800474e:	b29a      	uxth	r2, r3
 8004750:	687b      	ldr	r3, [r7, #4]
 8004752:	80da      	strh	r2, [r3, #6]
 8004754:	687b      	ldr	r3, [r7, #4]
 8004756:	885b      	ldrh	r3, [r3, #2]
 8004758:	3301      	adds	r3, #1
 800475a:	b29a      	uxth	r2, r3
 800475c:	687b      	ldr	r3, [r7, #4]
 800475e:	805a      	strh	r2, [r3, #2]
 8004760:	7bfb      	ldrb	r3, [r7, #15]
 8004762:	3301      	adds	r3, #1
 8004764:	73fb      	strb	r3, [r7, #15]
 8004766:	687b      	ldr	r3, [r7, #4]
 8004768:	791b      	ldrb	r3, [r3, #4]
 800476a:	7bfa      	ldrb	r2, [r7, #15]
 800476c:	429a      	cmp	r2, r3
 800476e:	d3d8      	bcc.n	8004722 <bufEnDat+0x12>
 8004770:	6878      	ldr	r0, [r7, #4]
 8004772:	f7ff ff8e 	bl	8004692 <bufIsFull>
 8004776:	4603      	mov	r3, r0
 8004778:	2b00      	cmp	r3, #0
 800477a:	d011      	beq.n	80047a0 <bufEnDat+0x90>
 800477c:	687b      	ldr	r3, [r7, #4]
 800477e:	891a      	ldrh	r2, [r3, #8]
 8004780:	687b      	ldr	r3, [r7, #4]
 8004782:	791b      	ldrb	r3, [r3, #4]
 8004784:	b29b      	uxth	r3, r3
 8004786:	4413      	add	r3, r2
 8004788:	b29b      	uxth	r3, r3
 800478a:	b21a      	sxth	r2, r3
 800478c:	687b      	ldr	r3, [r7, #4]
 800478e:	881b      	ldrh	r3, [r3, #0]
 8004790:	3b01      	subs	r3, #1
 8004792:	b29b      	uxth	r3, r3
 8004794:	b21b      	sxth	r3, r3
 8004796:	4013      	ands	r3, r2
 8004798:	b21b      	sxth	r3, r3
 800479a:	b29a      	uxth	r2, r3
 800479c:	687b      	ldr	r3, [r7, #4]
 800479e:	811a      	strh	r2, [r3, #8]
 80047a0:	b662      	cpsie	i
 80047a2:	2300      	movs	r3, #0
 80047a4:	4618      	mov	r0, r3
 80047a6:	3710      	adds	r7, #16
 80047a8:	46bd      	mov	sp, r7
 80047aa:	bd80      	pop	{r7, pc}

080047ac <bufDeDat>:
 80047ac:	b580      	push	{r7, lr}
 80047ae:	b084      	sub	sp, #16
 80047b0:	af00      	add	r7, sp, #0
 80047b2:	6078      	str	r0, [r7, #4]
 80047b4:	6039      	str	r1, [r7, #0]
 80047b6:	b672      	cpsid	i
 80047b8:	6878      	ldr	r0, [r7, #4]
 80047ba:	f7ff ff7d 	bl	80046b8 <bufIsEmpty>
 80047be:	4603      	mov	r3, r0
 80047c0:	2b00      	cmp	r3, #0
 80047c2:	d005      	beq.n	80047d0 <bufDeDat+0x24>
 80047c4:	687b      	ldr	r3, [r7, #4]
 80047c6:	2200      	movs	r2, #0
 80047c8:	805a      	strh	r2, [r3, #2]
 80047ca:	b662      	cpsie	i
 80047cc:	2302      	movs	r3, #2
 80047ce:	e02b      	b.n	8004828 <bufDeDat+0x7c>
 80047d0:	2300      	movs	r3, #0
 80047d2:	73fb      	strb	r3, [r7, #15]
 80047d4:	e021      	b.n	800481a <bufDeDat+0x6e>
 80047d6:	687b      	ldr	r3, [r7, #4]
 80047d8:	68db      	ldr	r3, [r3, #12]
 80047da:	687a      	ldr	r2, [r7, #4]
 80047dc:	8912      	ldrh	r2, [r2, #8]
 80047de:	441a      	add	r2, r3
 80047e0:	7bfb      	ldrb	r3, [r7, #15]
 80047e2:	6839      	ldr	r1, [r7, #0]
 80047e4:	440b      	add	r3, r1
 80047e6:	7812      	ldrb	r2, [r2, #0]
 80047e8:	701a      	strb	r2, [r3, #0]
 80047ea:	687b      	ldr	r3, [r7, #4]
 80047ec:	891b      	ldrh	r3, [r3, #8]
 80047ee:	3301      	adds	r3, #1
 80047f0:	b29b      	uxth	r3, r3
 80047f2:	b21a      	sxth	r2, r3
 80047f4:	687b      	ldr	r3, [r7, #4]
 80047f6:	881b      	ldrh	r3, [r3, #0]
 80047f8:	3b01      	subs	r3, #1
 80047fa:	b29b      	uxth	r3, r3
 80047fc:	b21b      	sxth	r3, r3
 80047fe:	4013      	ands	r3, r2
 8004800:	b21b      	sxth	r3, r3
 8004802:	b29a      	uxth	r2, r3
 8004804:	687b      	ldr	r3, [r7, #4]
 8004806:	811a      	strh	r2, [r3, #8]
 8004808:	687b      	ldr	r3, [r7, #4]
 800480a:	885b      	ldrh	r3, [r3, #2]
 800480c:	3b01      	subs	r3, #1
 800480e:	b29a      	uxth	r2, r3
 8004810:	687b      	ldr	r3, [r7, #4]
 8004812:	805a      	strh	r2, [r3, #2]
 8004814:	7bfb      	ldrb	r3, [r7, #15]
 8004816:	3301      	adds	r3, #1
 8004818:	73fb      	strb	r3, [r7, #15]
 800481a:	687b      	ldr	r3, [r7, #4]
 800481c:	791b      	ldrb	r3, [r3, #4]
 800481e:	7bfa      	ldrb	r2, [r7, #15]
 8004820:	429a      	cmp	r2, r3
 8004822:	d3d8      	bcc.n	80047d6 <bufDeDat+0x2a>
 8004824:	b662      	cpsie	i
 8004826:	2300      	movs	r3, #0
 8004828:	4618      	mov	r0, r3
 800482a:	3710      	adds	r7, #16
 800482c:	46bd      	mov	sp, r7
 800482e:	bd80      	pop	{r7, pc}

08004830 <memsetl>:
 8004830:	b480      	push	{r7}
 8004832:	b083      	sub	sp, #12
 8004834:	af00      	add	r7, sp, #0
 8004836:	6078      	str	r0, [r7, #4]
 8004838:	460b      	mov	r3, r1
 800483a:	70fb      	strb	r3, [r7, #3]
 800483c:	4613      	mov	r3, r2
 800483e:	803b      	strh	r3, [r7, #0]
 8004840:	e004      	b.n	800484c <memsetl+0x1c>
 8004842:	687b      	ldr	r3, [r7, #4]
 8004844:	1c5a      	adds	r2, r3, #1
 8004846:	607a      	str	r2, [r7, #4]
 8004848:	78fa      	ldrb	r2, [r7, #3]
 800484a:	701a      	strb	r2, [r3, #0]
 800484c:	883b      	ldrh	r3, [r7, #0]
 800484e:	1e5a      	subs	r2, r3, #1
 8004850:	803a      	strh	r2, [r7, #0]
 8004852:	2b00      	cmp	r3, #0
 8004854:	d1f5      	bne.n	8004842 <memsetl+0x12>
 8004856:	bf00      	nop
 8004858:	370c      	adds	r7, #12
 800485a:	46bd      	mov	sp, r7
 800485c:	f85d 7b04 	ldr.w	r7, [sp], #4
 8004860:	4770      	bx	lr
	...

08004864 <NVIC_PriorityGroupConfig>:
 8004864:	b480      	push	{r7}
 8004866:	b083      	sub	sp, #12
 8004868:	af00      	add	r7, sp, #0
 800486a:	6078      	str	r0, [r7, #4]
 800486c:	4a06      	ldr	r2, [pc, #24]	; (8004888 <NVIC_PriorityGroupConfig+0x24>)
 800486e:	687b      	ldr	r3, [r7, #4]
 8004870:	f043 63bf 	orr.w	r3, r3, #100139008	; 0x5f80000
 8004874:	f443 3300 	orr.w	r3, r3, #131072	; 0x20000
 8004878:	60d3      	str	r3, [r2, #12]
 800487a:	bf00      	nop
 800487c:	370c      	adds	r7, #12
 800487e:	46bd      	mov	sp, r7
 8004880:	f85d 7b04 	ldr.w	r7, [sp], #4
 8004884:	4770      	bx	lr
 8004886:	bf00      	nop
 8004888:	e000ed00 	.word	0xe000ed00

0800488c <NVIC_Init>:
 800488c:	b480      	push	{r7}
 800488e:	b085      	sub	sp, #20
 8004890:	af00      	add	r7, sp, #0
 8004892:	6078      	str	r0, [r7, #4]
 8004894:	2300      	movs	r3, #0
 8004896:	73fb      	strb	r3, [r7, #15]
 8004898:	2300      	movs	r3, #0
 800489a:	73bb      	strb	r3, [r7, #14]
 800489c:	230f      	movs	r3, #15
 800489e:	737b      	strb	r3, [r7, #13]
 80048a0:	687b      	ldr	r3, [r7, #4]
 80048a2:	78db      	ldrb	r3, [r3, #3]
 80048a4:	2b00      	cmp	r3, #0
 80048a6:	d039      	beq.n	800491c <NVIC_Init+0x90>
 80048a8:	4b27      	ldr	r3, [pc, #156]	; (8004948 <NVIC_Init+0xbc>)
 80048aa:	68db      	ldr	r3, [r3, #12]
 80048ac:	43db      	mvns	r3, r3
 80048ae:	0a1b      	lsrs	r3, r3, #8
 80048b0:	b2db      	uxtb	r3, r3
 80048b2:	f003 0307 	and.w	r3, r3, #7
 80048b6:	73fb      	strb	r3, [r7, #15]
 80048b8:	7bfb      	ldrb	r3, [r7, #15]
 80048ba:	f1c3 0304 	rsb	r3, r3, #4
 80048be:	73bb      	strb	r3, [r7, #14]
 80048c0:	7b7a      	ldrb	r2, [r7, #13]
 80048c2:	7bfb      	ldrb	r3, [r7, #15]
 80048c4:	fa42 f303 	asr.w	r3, r2, r3
 80048c8:	737b      	strb	r3, [r7, #13]
 80048ca:	687b      	ldr	r3, [r7, #4]
 80048cc:	785b      	ldrb	r3, [r3, #1]
 80048ce:	461a      	mov	r2, r3
 80048d0:	7bbb      	ldrb	r3, [r7, #14]
 80048d2:	fa02 f303 	lsl.w	r3, r2, r3
 80048d6:	73fb      	strb	r3, [r7, #15]
 80048d8:	687b      	ldr	r3, [r7, #4]
 80048da:	789a      	ldrb	r2, [r3, #2]
 80048dc:	7b7b      	ldrb	r3, [r7, #13]
 80048de:	4013      	ands	r3, r2
 80048e0:	b2da      	uxtb	r2, r3
 80048e2:	7bfb      	ldrb	r3, [r7, #15]
 80048e4:	4313      	orrs	r3, r2
 80048e6:	73fb      	strb	r3, [r7, #15]
 80048e8:	7bfb      	ldrb	r3, [r7, #15]
 80048ea:	011b      	lsls	r3, r3, #4
 80048ec:	73fb      	strb	r3, [r7, #15]
 80048ee:	4a17      	ldr	r2, [pc, #92]	; (800494c <NVIC_Init+0xc0>)
 80048f0:	687b      	ldr	r3, [r7, #4]
 80048f2:	781b      	ldrb	r3, [r3, #0]
 80048f4:	4413      	add	r3, r2
 80048f6:	7bfa      	ldrb	r2, [r7, #15]
 80048f8:	f883 2300 	strb.w	r2, [r3, #768]	; 0x300
 80048fc:	687b      	ldr	r3, [r7, #4]
 80048fe:	781b      	ldrb	r3, [r3, #0]
 8004900:	f003 031f 	and.w	r3, r3, #31
 8004904:	4911      	ldr	r1, [pc, #68]	; (800494c <NVIC_Init+0xc0>)
 8004906:	687a      	ldr	r2, [r7, #4]
 8004908:	7812      	ldrb	r2, [r2, #0]
 800490a:	0952      	lsrs	r2, r2, #5
 800490c:	b2d2      	uxtb	r2, r2
 800490e:	4610      	mov	r0, r2
 8004910:	2201      	movs	r2, #1
 8004912:	fa02 f303 	lsl.w	r3, r2, r3
 8004916:	f841 3020 	str.w	r3, [r1, r0, lsl #2]
 800491a:	e00f      	b.n	800493c <NVIC_Init+0xb0>
 800491c:	687b      	ldr	r3, [r7, #4]
 800491e:	781b      	ldrb	r3, [r3, #0]
 8004920:	f003 031f 	and.w	r3, r3, #31
 8004924:	4909      	ldr	r1, [pc, #36]	; (800494c <NVIC_Init+0xc0>)
 8004926:	687a      	ldr	r2, [r7, #4]
 8004928:	7812      	ldrb	r2, [r2, #0]
 800492a:	0952      	lsrs	r2, r2, #5
 800492c:	b2d2      	uxtb	r2, r2
 800492e:	4610      	mov	r0, r2
 8004930:	2201      	movs	r2, #1
 8004932:	409a      	lsls	r2, r3
 8004934:	f100 0320 	add.w	r3, r0, #32
 8004938:	f841 2023 	str.w	r2, [r1, r3, lsl #2]
 800493c:	bf00      	nop
 800493e:	3714      	adds	r7, #20
 8004940:	46bd      	mov	sp, r7
 8004942:	f85d 7b04 	ldr.w	r7, [sp], #4
 8004946:	4770      	bx	lr
 8004948:	e000ed00 	.word	0xe000ed00
 800494c:	e000e100 	.word	0xe000e100

08004950 <ADC_DeInit>:
 8004950:	b580      	push	{r7, lr}
 8004952:	af00      	add	r7, sp, #0
 8004954:	2101      	movs	r1, #1
 8004956:	f44f 7080 	mov.w	r0, #256	; 0x100
 800495a:	f000 ff83 	bl	8005864 <RCC_APB2PeriphResetCmd>
 800495e:	2100      	movs	r1, #0
 8004960:	f44f 7080 	mov.w	r0, #256	; 0x100
 8004964:	f000 ff7e 	bl	8005864 <RCC_APB2PeriphResetCmd>
 8004968:	bf00      	nop
 800496a:	bd80      	pop	{r7, pc}

0800496c <ADC_Init>:
 800496c:	b480      	push	{r7}
 800496e:	b085      	sub	sp, #20
 8004970:	af00      	add	r7, sp, #0
 8004972:	6078      	str	r0, [r7, #4]
 8004974:	6039      	str	r1, [r7, #0]
 8004976:	2300      	movs	r3, #0
 8004978:	60fb      	str	r3, [r7, #12]
 800497a:	2300      	movs	r3, #0
 800497c:	72fb      	strb	r3, [r7, #11]
 800497e:	687b      	ldr	r3, [r7, #4]
 8004980:	685b      	ldr	r3, [r3, #4]
 8004982:	60fb      	str	r3, [r7, #12]
 8004984:	68fb      	ldr	r3, [r7, #12]
 8004986:	f023 7340 	bic.w	r3, r3, #50331648	; 0x3000000
 800498a:	f423 7380 	bic.w	r3, r3, #256	; 0x100
 800498e:	60fb      	str	r3, [r7, #12]
 8004990:	683b      	ldr	r3, [r7, #0]
 8004992:	791b      	ldrb	r3, [r3, #4]
 8004994:	021a      	lsls	r2, r3, #8
 8004996:	683b      	ldr	r3, [r7, #0]
 8004998:	681b      	ldr	r3, [r3, #0]
 800499a:	4313      	orrs	r3, r2
 800499c:	68fa      	ldr	r2, [r7, #12]
 800499e:	4313      	orrs	r3, r2
 80049a0:	60fb      	str	r3, [r7, #12]
 80049a2:	687b      	ldr	r3, [r7, #4]
 80049a4:	68fa      	ldr	r2, [r7, #12]
 80049a6:	605a      	str	r2, [r3, #4]
 80049a8:	687b      	ldr	r3, [r7, #4]
 80049aa:	689b      	ldr	r3, [r3, #8]
 80049ac:	60fb      	str	r3, [r7, #12]
 80049ae:	68fa      	ldr	r2, [r7, #12]
 80049b0:	4b18      	ldr	r3, [pc, #96]	; (8004a14 <ADC_Init+0xa8>)
 80049b2:	4013      	ands	r3, r2
 80049b4:	60fb      	str	r3, [r7, #12]
 80049b6:	683b      	ldr	r3, [r7, #0]
 80049b8:	691a      	ldr	r2, [r3, #16]
 80049ba:	683b      	ldr	r3, [r7, #0]
 80049bc:	68db      	ldr	r3, [r3, #12]
 80049be:	431a      	orrs	r2, r3
 80049c0:	683b      	ldr	r3, [r7, #0]
 80049c2:	689b      	ldr	r3, [r3, #8]
 80049c4:	431a      	orrs	r2, r3
 80049c6:	683b      	ldr	r3, [r7, #0]
 80049c8:	795b      	ldrb	r3, [r3, #5]
 80049ca:	005b      	lsls	r3, r3, #1
 80049cc:	4313      	orrs	r3, r2
 80049ce:	68fa      	ldr	r2, [r7, #12]
 80049d0:	4313      	orrs	r3, r2
 80049d2:	60fb      	str	r3, [r7, #12]
 80049d4:	687b      	ldr	r3, [r7, #4]
 80049d6:	68fa      	ldr	r2, [r7, #12]
 80049d8:	609a      	str	r2, [r3, #8]
 80049da:	687b      	ldr	r3, [r7, #4]
 80049dc:	6adb      	ldr	r3, [r3, #44]	; 0x2c
 80049de:	60fb      	str	r3, [r7, #12]
 80049e0:	68fb      	ldr	r3, [r7, #12]
 80049e2:	f423 0370 	bic.w	r3, r3, #15728640	; 0xf00000
 80049e6:	60fb      	str	r3, [r7, #12]
 80049e8:	683b      	ldr	r3, [r7, #0]
 80049ea:	7d1b      	ldrb	r3, [r3, #20]
 80049ec:	3b01      	subs	r3, #1
 80049ee:	b2da      	uxtb	r2, r3
 80049f0:	7afb      	ldrb	r3, [r7, #11]
 80049f2:	4313      	orrs	r3, r2
 80049f4:	72fb      	strb	r3, [r7, #11]
 80049f6:	7afb      	ldrb	r3, [r7, #11]
 80049f8:	051b      	lsls	r3, r3, #20
 80049fa:	68fa      	ldr	r2, [r7, #12]
 80049fc:	4313      	orrs	r3, r2
 80049fe:	60fb      	str	r3, [r7, #12]
 8004a00:	687b      	ldr	r3, [r7, #4]
 8004a02:	68fa      	ldr	r2, [r7, #12]
 8004a04:	62da      	str	r2, [r3, #44]	; 0x2c
 8004a06:	bf00      	nop
 8004a08:	3714      	adds	r7, #20
 8004a0a:	46bd      	mov	sp, r7
 8004a0c:	f85d 7b04 	ldr.w	r7, [sp], #4
 8004a10:	4770      	bx	lr
 8004a12:	bf00      	nop
 8004a14:	c0fff7fd 	.word	0xc0fff7fd

08004a18 <ADC_CommonInit>:
 8004a18:	b480      	push	{r7}
 8004a1a:	b085      	sub	sp, #20
 8004a1c:	af00      	add	r7, sp, #0
 8004a1e:	6078      	str	r0, [r7, #4]
 8004a20:	2300      	movs	r3, #0
 8004a22:	60fb      	str	r3, [r7, #12]
 8004a24:	4b0e      	ldr	r3, [pc, #56]	; (8004a60 <ADC_CommonInit+0x48>)
 8004a26:	685b      	ldr	r3, [r3, #4]
 8004a28:	60fb      	str	r3, [r7, #12]
 8004a2a:	68fa      	ldr	r2, [r7, #12]
 8004a2c:	4b0d      	ldr	r3, [pc, #52]	; (8004a64 <ADC_CommonInit+0x4c>)
 8004a2e:	4013      	ands	r3, r2
 8004a30:	60fb      	str	r3, [r7, #12]
 8004a32:	687b      	ldr	r3, [r7, #4]
 8004a34:	681a      	ldr	r2, [r3, #0]
 8004a36:	687b      	ldr	r3, [r7, #4]
 8004a38:	685b      	ldr	r3, [r3, #4]
 8004a3a:	431a      	orrs	r2, r3
 8004a3c:	687b      	ldr	r3, [r7, #4]
 8004a3e:	689b      	ldr	r3, [r3, #8]
 8004a40:	431a      	orrs	r2, r3
 8004a42:	687b      	ldr	r3, [r7, #4]
 8004a44:	68db      	ldr	r3, [r3, #12]
 8004a46:	4313      	orrs	r3, r2
 8004a48:	68fa      	ldr	r2, [r7, #12]
 8004a4a:	4313      	orrs	r3, r2
 8004a4c:	60fb      	str	r3, [r7, #12]
 8004a4e:	4a04      	ldr	r2, [pc, #16]	; (8004a60 <ADC_CommonInit+0x48>)
 8004a50:	68fb      	ldr	r3, [r7, #12]
 8004a52:	6053      	str	r3, [r2, #4]
 8004a54:	bf00      	nop
 8004a56:	3714      	adds	r7, #20
 8004a58:	46bd      	mov	sp, r7
 8004a5a:	f85d 7b04 	ldr.w	r7, [sp], #4
 8004a5e:	4770      	bx	lr
 8004a60:	40012300 	.word	0x40012300
 8004a64:	fffc30e0 	.word	0xfffc30e0

08004a68 <ADC_Cmd>:
 8004a68:	b480      	push	{r7}
 8004a6a:	b083      	sub	sp, #12
 8004a6c:	af00      	add	r7, sp, #0
 8004a6e:	6078      	str	r0, [r7, #4]
 8004a70:	460b      	mov	r3, r1
 8004a72:	70fb      	strb	r3, [r7, #3]
 8004a74:	78fb      	ldrb	r3, [r7, #3]
 8004a76:	2b00      	cmp	r3, #0
 8004a78:	d006      	beq.n	8004a88 <ADC_Cmd+0x20>
 8004a7a:	687b      	ldr	r3, [r7, #4]
 8004a7c:	689b      	ldr	r3, [r3, #8]
 8004a7e:	f043 0201 	orr.w	r2, r3, #1
 8004a82:	687b      	ldr	r3, [r7, #4]
 8004a84:	609a      	str	r2, [r3, #8]
 8004a86:	e005      	b.n	8004a94 <ADC_Cmd+0x2c>
 8004a88:	687b      	ldr	r3, [r7, #4]
 8004a8a:	689b      	ldr	r3, [r3, #8]
 8004a8c:	f023 0201 	bic.w	r2, r3, #1
 8004a90:	687b      	ldr	r3, [r7, #4]
 8004a92:	609a      	str	r2, [r3, #8]
 8004a94:	bf00      	nop
 8004a96:	370c      	adds	r7, #12
 8004a98:	46bd      	mov	sp, r7
 8004a9a:	f85d 7b04 	ldr.w	r7, [sp], #4
 8004a9e:	4770      	bx	lr

08004aa0 <ADC_RegularChannelConfig>:
 8004aa0:	b480      	push	{r7}
 8004aa2:	b085      	sub	sp, #20
 8004aa4:	af00      	add	r7, sp, #0
 8004aa6:	6078      	str	r0, [r7, #4]
 8004aa8:	4608      	mov	r0, r1
 8004aaa:	4611      	mov	r1, r2
 8004aac:	461a      	mov	r2, r3
 8004aae:	4603      	mov	r3, r0
 8004ab0:	70fb      	strb	r3, [r7, #3]
 8004ab2:	460b      	mov	r3, r1
 8004ab4:	70bb      	strb	r3, [r7, #2]
 8004ab6:	4613      	mov	r3, r2
 8004ab8:	707b      	strb	r3, [r7, #1]
 8004aba:	2300      	movs	r3, #0
 8004abc:	60fb      	str	r3, [r7, #12]
 8004abe:	2300      	movs	r3, #0
 8004ac0:	60bb      	str	r3, [r7, #8]
 8004ac2:	78fb      	ldrb	r3, [r7, #3]
 8004ac4:	2b09      	cmp	r3, #9
 8004ac6:	d923      	bls.n	8004b10 <ADC_RegularChannelConfig+0x70>
 8004ac8:	687b      	ldr	r3, [r7, #4]
 8004aca:	68db      	ldr	r3, [r3, #12]
 8004acc:	60fb      	str	r3, [r7, #12]
 8004ace:	78fb      	ldrb	r3, [r7, #3]
 8004ad0:	f1a3 020a 	sub.w	r2, r3, #10
 8004ad4:	4613      	mov	r3, r2
 8004ad6:	005b      	lsls	r3, r3, #1
 8004ad8:	4413      	add	r3, r2
 8004ada:	2207      	movs	r2, #7
 8004adc:	fa02 f303 	lsl.w	r3, r2, r3
 8004ae0:	60bb      	str	r3, [r7, #8]
 8004ae2:	68bb      	ldr	r3, [r7, #8]
 8004ae4:	43db      	mvns	r3, r3
 8004ae6:	68fa      	ldr	r2, [r7, #12]
 8004ae8:	4013      	ands	r3, r2
 8004aea:	60fb      	str	r3, [r7, #12]
 8004aec:	7879      	ldrb	r1, [r7, #1]
 8004aee:	78fb      	ldrb	r3, [r7, #3]
 8004af0:	f1a3 020a 	sub.w	r2, r3, #10
 8004af4:	4613      	mov	r3, r2
 8004af6:	005b      	lsls	r3, r3, #1
 8004af8:	4413      	add	r3, r2
 8004afa:	fa01 f303 	lsl.w	r3, r1, r3
 8004afe:	60bb      	str	r3, [r7, #8]
 8004b00:	68fa      	ldr	r2, [r7, #12]
 8004b02:	68bb      	ldr	r3, [r7, #8]
 8004b04:	4313      	orrs	r3, r2
 8004b06:	60fb      	str	r3, [r7, #12]
 8004b08:	687b      	ldr	r3, [r7, #4]
 8004b0a:	68fa      	ldr	r2, [r7, #12]
 8004b0c:	60da      	str	r2, [r3, #12]
 8004b0e:	e01e      	b.n	8004b4e <ADC_RegularChannelConfig+0xae>
 8004b10:	687b      	ldr	r3, [r7, #4]
 8004b12:	691b      	ldr	r3, [r3, #16]
 8004b14:	60fb      	str	r3, [r7, #12]
 8004b16:	78fa      	ldrb	r2, [r7, #3]
 8004b18:	4613      	mov	r3, r2
 8004b1a:	005b      	lsls	r3, r3, #1
 8004b1c:	4413      	add	r3, r2
 8004b1e:	2207      	movs	r2, #7
 8004b20:	fa02 f303 	lsl.w	r3, r2, r3
 8004b24:	60bb      	str	r3, [r7, #8]
 8004b26:	68bb      	ldr	r3, [r7, #8]
 8004b28:	43db      	mvns	r3, r3
 8004b2a:	68fa      	ldr	r2, [r7, #12]
 8004b2c:	4013      	ands	r3, r2
 8004b2e:	60fb      	str	r3, [r7, #12]
 8004b30:	7879      	ldrb	r1, [r7, #1]
 8004b32:	78fa      	ldrb	r2, [r7, #3]
 8004b34:	4613      	mov	r3, r2
 8004b36:	005b      	lsls	r3, r3, #1
 8004b38:	4413      	add	r3, r2
 8004b3a:	fa01 f303 	lsl.w	r3, r1, r3
 8004b3e:	60bb      	str	r3, [r7, #8]
 8004b40:	68fa      	ldr	r2, [r7, #12]
 8004b42:	68bb      	ldr	r3, [r7, #8]
 8004b44:	4313      	orrs	r3, r2
 8004b46:	60fb      	str	r3, [r7, #12]
 8004b48:	687b      	ldr	r3, [r7, #4]
 8004b4a:	68fa      	ldr	r2, [r7, #12]
 8004b4c:	611a      	str	r2, [r3, #16]
 8004b4e:	78bb      	ldrb	r3, [r7, #2]
 8004b50:	2b06      	cmp	r3, #6
 8004b52:	d821      	bhi.n	8004b98 <ADC_RegularChannelConfig+0xf8>
 8004b54:	687b      	ldr	r3, [r7, #4]
 8004b56:	6b5b      	ldr	r3, [r3, #52]	; 0x34
 8004b58:	60fb      	str	r3, [r7, #12]
 8004b5a:	78bb      	ldrb	r3, [r7, #2]
 8004b5c:	1e5a      	subs	r2, r3, #1
 8004b5e:	4613      	mov	r3, r2
 8004b60:	009b      	lsls	r3, r3, #2
 8004b62:	4413      	add	r3, r2
 8004b64:	221f      	movs	r2, #31
 8004b66:	fa02 f303 	lsl.w	r3, r2, r3
 8004b6a:	60bb      	str	r3, [r7, #8]
 8004b6c:	68bb      	ldr	r3, [r7, #8]
 8004b6e:	43db      	mvns	r3, r3
 8004b70:	68fa      	ldr	r2, [r7, #12]
 8004b72:	4013      	ands	r3, r2
 8004b74:	60fb      	str	r3, [r7, #12]
 8004b76:	78f9      	ldrb	r1, [r7, #3]
 8004b78:	78bb      	ldrb	r3, [r7, #2]
 8004b7a:	1e5a      	subs	r2, r3, #1
 8004b7c:	4613      	mov	r3, r2
 8004b7e:	009b      	lsls	r3, r3, #2
 8004b80:	4413      	add	r3, r2
 8004b82:	fa01 f303 	lsl.w	r3, r1, r3
 8004b86:	60bb      	str	r3, [r7, #8]
 8004b88:	68fa      	ldr	r2, [r7, #12]
 8004b8a:	68bb      	ldr	r3, [r7, #8]
 8004b8c:	4313      	orrs	r3, r2
 8004b8e:	60fb      	str	r3, [r7, #12]
 8004b90:	687b      	ldr	r3, [r7, #4]
 8004b92:	68fa      	ldr	r2, [r7, #12]
 8004b94:	635a      	str	r2, [r3, #52]	; 0x34
 8004b96:	e047      	b.n	8004c28 <ADC_RegularChannelConfig+0x188>
 8004b98:	78bb      	ldrb	r3, [r7, #2]
 8004b9a:	2b0c      	cmp	r3, #12
 8004b9c:	d821      	bhi.n	8004be2 <ADC_RegularChannelConfig+0x142>
 8004b9e:	687b      	ldr	r3, [r7, #4]
 8004ba0:	6b1b      	ldr	r3, [r3, #48]	; 0x30
 8004ba2:	60fb      	str	r3, [r7, #12]
 8004ba4:	78bb      	ldrb	r3, [r7, #2]
 8004ba6:	1fda      	subs	r2, r3, #7
 8004ba8:	4613      	mov	r3, r2
 8004baa:	009b      	lsls	r3, r3, #2
 8004bac:	4413      	add	r3, r2
 8004bae:	221f      	movs	r2, #31
 8004bb0:	fa02 f303 	lsl.w	r3, r2, r3
 8004bb4:	60bb      	str	r3, [r7, #8]
 8004bb6:	68bb      	ldr	r3, [r7, #8]
 8004bb8:	43db      	mvns	r3, r3
 8004bba:	68fa      	ldr	r2, [r7, #12]
 8004bbc:	4013      	ands	r3, r2
 8004bbe:	60fb      	str	r3, [r7, #12]
 8004bc0:	78f9      	ldrb	r1, [r7, #3]
 8004bc2:	78bb      	ldrb	r3, [r7, #2]
 8004bc4:	1fda      	subs	r2, r3, #7
 8004bc6:	4613      	mov	r3, r2
 8004bc8:	009b      	lsls	r3, r3, #2
 8004bca:	4413      	add	r3, r2
 8004bcc:	fa01 f303 	lsl.w	r3, r1, r3
 8004bd0:	60bb      	str	r3, [r7, #8]
 8004bd2:	68fa      	ldr	r2, [r7, #12]
 8004bd4:	68bb      	ldr	r3, [r7, #8]
 8004bd6:	4313      	orrs	r3, r2
 8004bd8:	60fb      	str	r3, [r7, #12]
 8004bda:	687b      	ldr	r3, [r7, #4]
 8004bdc:	68fa      	ldr	r2, [r7, #12]
 8004bde:	631a      	str	r2, [r3, #48]	; 0x30
 8004be0:	e022      	b.n	8004c28 <ADC_RegularChannelConfig+0x188>
 8004be2:	687b      	ldr	r3, [r7, #4]
 8004be4:	6adb      	ldr	r3, [r3, #44]	; 0x2c
 8004be6:	60fb      	str	r3, [r7, #12]
 8004be8:	78bb      	ldrb	r3, [r7, #2]
 8004bea:	f1a3 020d 	sub.w	r2, r3, #13
 8004bee:	4613      	mov	r3, r2
 8004bf0:	009b      	lsls	r3, r3, #2
 8004bf2:	4413      	add	r3, r2
 8004bf4:	221f      	movs	r2, #31
 8004bf6:	fa02 f303 	lsl.w	r3, r2, r3
 8004bfa:	60bb      	str	r3, [r7, #8]
 8004bfc:	68bb      	ldr	r3, [r7, #8]
 8004bfe:	43db      	mvns	r3, r3
 8004c00:	68fa      	ldr	r2, [r7, #12]
 8004c02:	4013      	ands	r3, r2
 8004c04:	60fb      	str	r3, [r7, #12]
 8004c06:	78f9      	ldrb	r1, [r7, #3]
 8004c08:	78bb      	ldrb	r3, [r7, #2]
 8004c0a:	f1a3 020d 	sub.w	r2, r3, #13
 8004c0e:	4613      	mov	r3, r2
 8004c10:	009b      	lsls	r3, r3, #2
 8004c12:	4413      	add	r3, r2
 8004c14:	fa01 f303 	lsl.w	r3, r1, r3
 8004c18:	60bb      	str	r3, [r7, #8]
 8004c1a:	68fa      	ldr	r2, [r7, #12]
 8004c1c:	68bb      	ldr	r3, [r7, #8]
 8004c1e:	4313      	orrs	r3, r2
 8004c20:	60fb      	str	r3, [r7, #12]
 8004c22:	687b      	ldr	r3, [r7, #4]
 8004c24:	68fa      	ldr	r2, [r7, #12]
 8004c26:	62da      	str	r2, [r3, #44]	; 0x2c
 8004c28:	bf00      	nop
 8004c2a:	3714      	adds	r7, #20
 8004c2c:	46bd      	mov	sp, r7
 8004c2e:	f85d 7b04 	ldr.w	r7, [sp], #4
 8004c32:	4770      	bx	lr

08004c34 <ADC_SoftwareStartConv>:
 8004c34:	b480      	push	{r7}
 8004c36:	b083      	sub	sp, #12
 8004c38:	af00      	add	r7, sp, #0
 8004c3a:	6078      	str	r0, [r7, #4]
 8004c3c:	687b      	ldr	r3, [r7, #4]
 8004c3e:	689b      	ldr	r3, [r3, #8]
 8004c40:	f043 4280 	orr.w	r2, r3, #1073741824	; 0x40000000
 8004c44:	687b      	ldr	r3, [r7, #4]
 8004c46:	609a      	str	r2, [r3, #8]
 8004c48:	bf00      	nop
 8004c4a:	370c      	adds	r7, #12
 8004c4c:	46bd      	mov	sp, r7
 8004c4e:	f85d 7b04 	ldr.w	r7, [sp], #4
 8004c52:	4770      	bx	lr

08004c54 <ADC_EOCOnEachRegularChannelCmd>:
 8004c54:	b480      	push	{r7}
 8004c56:	b083      	sub	sp, #12
 8004c58:	af00      	add	r7, sp, #0
 8004c5a:	6078      	str	r0, [r7, #4]
 8004c5c:	460b      	mov	r3, r1
 8004c5e:	70fb      	strb	r3, [r7, #3]
 8004c60:	78fb      	ldrb	r3, [r7, #3]
 8004c62:	2b00      	cmp	r3, #0
 8004c64:	d006      	beq.n	8004c74 <ADC_EOCOnEachRegularChannelCmd+0x20>
 8004c66:	687b      	ldr	r3, [r7, #4]
 8004c68:	689b      	ldr	r3, [r3, #8]
 8004c6a:	f443 6280 	orr.w	r2, r3, #1024	; 0x400
 8004c6e:	687b      	ldr	r3, [r7, #4]
 8004c70:	609a      	str	r2, [r3, #8]
 8004c72:	e005      	b.n	8004c80 <ADC_EOCOnEachRegularChannelCmd+0x2c>
 8004c74:	687b      	ldr	r3, [r7, #4]
 8004c76:	689b      	ldr	r3, [r3, #8]
 8004c78:	f423 6280 	bic.w	r2, r3, #1024	; 0x400
 8004c7c:	687b      	ldr	r3, [r7, #4]
 8004c7e:	609a      	str	r2, [r3, #8]
 8004c80:	bf00      	nop
 8004c82:	370c      	adds	r7, #12
 8004c84:	46bd      	mov	sp, r7
 8004c86:	f85d 7b04 	ldr.w	r7, [sp], #4
 8004c8a:	4770      	bx	lr

08004c8c <ADC_ContinuousModeCmd>:
 8004c8c:	b480      	push	{r7}
 8004c8e:	b083      	sub	sp, #12
 8004c90:	af00      	add	r7, sp, #0
 8004c92:	6078      	str	r0, [r7, #4]
 8004c94:	460b      	mov	r3, r1
 8004c96:	70fb      	strb	r3, [r7, #3]
 8004c98:	78fb      	ldrb	r3, [r7, #3]
 8004c9a:	2b00      	cmp	r3, #0
 8004c9c:	d006      	beq.n	8004cac <ADC_ContinuousModeCmd+0x20>
 8004c9e:	687b      	ldr	r3, [r7, #4]
 8004ca0:	689b      	ldr	r3, [r3, #8]
 8004ca2:	f043 0202 	orr.w	r2, r3, #2
 8004ca6:	687b      	ldr	r3, [r7, #4]
 8004ca8:	609a      	str	r2, [r3, #8]
 8004caa:	e005      	b.n	8004cb8 <ADC_ContinuousModeCmd+0x2c>
 8004cac:	687b      	ldr	r3, [r7, #4]
 8004cae:	689b      	ldr	r3, [r3, #8]
 8004cb0:	f023 0202 	bic.w	r2, r3, #2
 8004cb4:	687b      	ldr	r3, [r7, #4]
 8004cb6:	609a      	str	r2, [r3, #8]
 8004cb8:	bf00      	nop
 8004cba:	370c      	adds	r7, #12
 8004cbc:	46bd      	mov	sp, r7
 8004cbe:	f85d 7b04 	ldr.w	r7, [sp], #4
 8004cc2:	4770      	bx	lr

08004cc4 <ADC_DiscModeChannelCountConfig>:
 8004cc4:	b480      	push	{r7}
 8004cc6:	b085      	sub	sp, #20
 8004cc8:	af00      	add	r7, sp, #0
 8004cca:	6078      	str	r0, [r7, #4]
 8004ccc:	460b      	mov	r3, r1
 8004cce:	70fb      	strb	r3, [r7, #3]
 8004cd0:	2300      	movs	r3, #0
 8004cd2:	60fb      	str	r3, [r7, #12]
 8004cd4:	2300      	movs	r3, #0
 8004cd6:	60bb      	str	r3, [r7, #8]
 8004cd8:	687b      	ldr	r3, [r7, #4]
 8004cda:	685b      	ldr	r3, [r3, #4]
 8004cdc:	60fb      	str	r3, [r7, #12]
 8004cde:	68fb      	ldr	r3, [r7, #12]
 8004ce0:	f423 4360 	bic.w	r3, r3, #57344	; 0xe000
 8004ce4:	60fb      	str	r3, [r7, #12]
 8004ce6:	78fb      	ldrb	r3, [r7, #3]
 8004ce8:	3b01      	subs	r3, #1
 8004cea:	60bb      	str	r3, [r7, #8]
 8004cec:	68bb      	ldr	r3, [r7, #8]
 8004cee:	035b      	lsls	r3, r3, #13
 8004cf0:	68fa      	ldr	r2, [r7, #12]
 8004cf2:	4313      	orrs	r3, r2
 8004cf4:	60fb      	str	r3, [r7, #12]
 8004cf6:	687b      	ldr	r3, [r7, #4]
 8004cf8:	68fa      	ldr	r2, [r7, #12]
 8004cfa:	605a      	str	r2, [r3, #4]
 8004cfc:	bf00      	nop
 8004cfe:	3714      	adds	r7, #20
 8004d00:	46bd      	mov	sp, r7
 8004d02:	f85d 7b04 	ldr.w	r7, [sp], #4
 8004d06:	4770      	bx	lr

08004d08 <ADC_DiscModeCmd>:
 8004d08:	b480      	push	{r7}
 8004d0a:	b083      	sub	sp, #12
 8004d0c:	af00      	add	r7, sp, #0
 8004d0e:	6078      	str	r0, [r7, #4]
 8004d10:	460b      	mov	r3, r1
 8004d12:	70fb      	strb	r3, [r7, #3]
 8004d14:	78fb      	ldrb	r3, [r7, #3]
 8004d16:	2b00      	cmp	r3, #0
 8004d18:	d006      	beq.n	8004d28 <ADC_DiscModeCmd+0x20>
 8004d1a:	687b      	ldr	r3, [r7, #4]
 8004d1c:	685b      	ldr	r3, [r3, #4]
 8004d1e:	f443 6200 	orr.w	r2, r3, #2048	; 0x800
 8004d22:	687b      	ldr	r3, [r7, #4]
 8004d24:	605a      	str	r2, [r3, #4]
 8004d26:	e005      	b.n	8004d34 <ADC_DiscModeCmd+0x2c>
 8004d28:	687b      	ldr	r3, [r7, #4]
 8004d2a:	685b      	ldr	r3, [r3, #4]
 8004d2c:	f423 6200 	bic.w	r2, r3, #2048	; 0x800
 8004d30:	687b      	ldr	r3, [r7, #4]
 8004d32:	605a      	str	r2, [r3, #4]
 8004d34:	bf00      	nop
 8004d36:	370c      	adds	r7, #12
 8004d38:	46bd      	mov	sp, r7
 8004d3a:	f85d 7b04 	ldr.w	r7, [sp], #4
 8004d3e:	4770      	bx	lr

08004d40 <ADC_DMACmd>:
 8004d40:	b480      	push	{r7}
 8004d42:	b083      	sub	sp, #12
 8004d44:	af00      	add	r7, sp, #0
 8004d46:	6078      	str	r0, [r7, #4]
 8004d48:	460b      	mov	r3, r1
 8004d4a:	70fb      	strb	r3, [r7, #3]
 8004d4c:	78fb      	ldrb	r3, [r7, #3]
 8004d4e:	2b00      	cmp	r3, #0
 8004d50:	d006      	beq.n	8004d60 <ADC_DMACmd+0x20>
 8004d52:	687b      	ldr	r3, [r7, #4]
 8004d54:	689b      	ldr	r3, [r3, #8]
 8004d56:	f443 7280 	orr.w	r2, r3, #256	; 0x100
 8004d5a:	687b      	ldr	r3, [r7, #4]
 8004d5c:	609a      	str	r2, [r3, #8]
 8004d5e:	e005      	b.n	8004d6c <ADC_DMACmd+0x2c>
 8004d60:	687b      	ldr	r3, [r7, #4]
 8004d62:	689b      	ldr	r3, [r3, #8]
 8004d64:	f423 7280 	bic.w	r2, r3, #256	; 0x100
 8004d68:	687b      	ldr	r3, [r7, #4]
 8004d6a:	609a      	str	r2, [r3, #8]
 8004d6c:	bf00      	nop
 8004d6e:	370c      	adds	r7, #12
 8004d70:	46bd      	mov	sp, r7
 8004d72:	f85d 7b04 	ldr.w	r7, [sp], #4
 8004d76:	4770      	bx	lr

08004d78 <ADC_DMARequestAfterLastTransferCmd>:
 8004d78:	b480      	push	{r7}
 8004d7a:	b083      	sub	sp, #12
 8004d7c:	af00      	add	r7, sp, #0
 8004d7e:	6078      	str	r0, [r7, #4]
 8004d80:	460b      	mov	r3, r1
 8004d82:	70fb      	strb	r3, [r7, #3]
 8004d84:	78fb      	ldrb	r3, [r7, #3]
 8004d86:	2b00      	cmp	r3, #0
 8004d88:	d006      	beq.n	8004d98 <ADC_DMARequestAfterLastTransferCmd+0x20>
 8004d8a:	687b      	ldr	r3, [r7, #4]
 8004d8c:	689b      	ldr	r3, [r3, #8]
 8004d8e:	f443 7200 	orr.w	r2, r3, #512	; 0x200
 8004d92:	687b      	ldr	r3, [r7, #4]
 8004d94:	609a      	str	r2, [r3, #8]
 8004d96:	e005      	b.n	8004da4 <ADC_DMARequestAfterLastTransferCmd+0x2c>
 8004d98:	687b      	ldr	r3, [r7, #4]
 8004d9a:	689b      	ldr	r3, [r3, #8]
 8004d9c:	f423 7200 	bic.w	r2, r3, #512	; 0x200
 8004da0:	687b      	ldr	r3, [r7, #4]
 8004da2:	609a      	str	r2, [r3, #8]
 8004da4:	bf00      	nop
 8004da6:	370c      	adds	r7, #12
 8004da8:	46bd      	mov	sp, r7
 8004daa:	f85d 7b04 	ldr.w	r7, [sp], #4
 8004dae:	4770      	bx	lr

08004db0 <DMA_DeInit>:
 8004db0:	b480      	push	{r7}
 8004db2:	b083      	sub	sp, #12
 8004db4:	af00      	add	r7, sp, #0
 8004db6:	6078      	str	r0, [r7, #4]
 8004db8:	687b      	ldr	r3, [r7, #4]
 8004dba:	681b      	ldr	r3, [r3, #0]
 8004dbc:	f023 0201 	bic.w	r2, r3, #1
 8004dc0:	687b      	ldr	r3, [r7, #4]
 8004dc2:	601a      	str	r2, [r3, #0]
 8004dc4:	687b      	ldr	r3, [r7, #4]
 8004dc6:	2200      	movs	r2, #0
 8004dc8:	601a      	str	r2, [r3, #0]
 8004dca:	687b      	ldr	r3, [r7, #4]
 8004dcc:	2200      	movs	r2, #0
 8004dce:	605a      	str	r2, [r3, #4]
 8004dd0:	687b      	ldr	r3, [r7, #4]
 8004dd2:	2200      	movs	r2, #0
 8004dd4:	609a      	str	r2, [r3, #8]
 8004dd6:	687b      	ldr	r3, [r7, #4]
 8004dd8:	2200      	movs	r2, #0
 8004dda:	60da      	str	r2, [r3, #12]
 8004ddc:	687b      	ldr	r3, [r7, #4]
 8004dde:	2200      	movs	r2, #0
 8004de0:	611a      	str	r2, [r3, #16]
 8004de2:	687b      	ldr	r3, [r7, #4]
 8004de4:	2221      	movs	r2, #33	; 0x21
 8004de6:	615a      	str	r2, [r3, #20]
 8004de8:	687b      	ldr	r3, [r7, #4]
 8004dea:	4a46      	ldr	r2, [pc, #280]	; (8004f04 <DMA_DeInit+0x154>)
 8004dec:	4293      	cmp	r3, r2
 8004dee:	d103      	bne.n	8004df8 <DMA_DeInit+0x48>
 8004df0:	4b45      	ldr	r3, [pc, #276]	; (8004f08 <DMA_DeInit+0x158>)
 8004df2:	223d      	movs	r2, #61	; 0x3d
 8004df4:	609a      	str	r2, [r3, #8]
 8004df6:	e07e      	b.n	8004ef6 <DMA_DeInit+0x146>
 8004df8:	687b      	ldr	r3, [r7, #4]
 8004dfa:	4a44      	ldr	r2, [pc, #272]	; (8004f0c <DMA_DeInit+0x15c>)
 8004dfc:	4293      	cmp	r3, r2
 8004dfe:	d104      	bne.n	8004e0a <DMA_DeInit+0x5a>
 8004e00:	4b41      	ldr	r3, [pc, #260]	; (8004f08 <DMA_DeInit+0x158>)
 8004e02:	f44f 6274 	mov.w	r2, #3904	; 0xf40
 8004e06:	609a      	str	r2, [r3, #8]
 8004e08:	e075      	b.n	8004ef6 <DMA_DeInit+0x146>
 8004e0a:	687b      	ldr	r3, [r7, #4]
 8004e0c:	4a40      	ldr	r2, [pc, #256]	; (8004f10 <DMA_DeInit+0x160>)
 8004e0e:	4293      	cmp	r3, r2
 8004e10:	d104      	bne.n	8004e1c <DMA_DeInit+0x6c>
 8004e12:	4b3d      	ldr	r3, [pc, #244]	; (8004f08 <DMA_DeInit+0x158>)
 8004e14:	f44f 1274 	mov.w	r2, #3997696	; 0x3d0000
 8004e18:	609a      	str	r2, [r3, #8]
 8004e1a:	e06c      	b.n	8004ef6 <DMA_DeInit+0x146>
 8004e1c:	687b      	ldr	r3, [r7, #4]
 8004e1e:	4a3d      	ldr	r2, [pc, #244]	; (8004f14 <DMA_DeInit+0x164>)
 8004e20:	4293      	cmp	r3, r2
 8004e22:	d104      	bne.n	8004e2e <DMA_DeInit+0x7e>
 8004e24:	4b38      	ldr	r3, [pc, #224]	; (8004f08 <DMA_DeInit+0x158>)
 8004e26:	f04f 6274 	mov.w	r2, #255852544	; 0xf400000
 8004e2a:	609a      	str	r2, [r3, #8]
 8004e2c:	e063      	b.n	8004ef6 <DMA_DeInit+0x146>
 8004e2e:	687b      	ldr	r3, [r7, #4]
 8004e30:	4a39      	ldr	r2, [pc, #228]	; (8004f18 <DMA_DeInit+0x168>)
 8004e32:	4293      	cmp	r3, r2
 8004e34:	d103      	bne.n	8004e3e <DMA_DeInit+0x8e>
 8004e36:	4b34      	ldr	r3, [pc, #208]	; (8004f08 <DMA_DeInit+0x158>)
 8004e38:	4a38      	ldr	r2, [pc, #224]	; (8004f1c <DMA_DeInit+0x16c>)
 8004e3a:	60da      	str	r2, [r3, #12]
 8004e3c:	e05b      	b.n	8004ef6 <DMA_DeInit+0x146>
 8004e3e:	687b      	ldr	r3, [r7, #4]
 8004e40:	4a37      	ldr	r2, [pc, #220]	; (8004f20 <DMA_DeInit+0x170>)
 8004e42:	4293      	cmp	r3, r2
 8004e44:	d103      	bne.n	8004e4e <DMA_DeInit+0x9e>
 8004e46:	4b30      	ldr	r3, [pc, #192]	; (8004f08 <DMA_DeInit+0x158>)
 8004e48:	4a36      	ldr	r2, [pc, #216]	; (8004f24 <DMA_DeInit+0x174>)
 8004e4a:	60da      	str	r2, [r3, #12]
 8004e4c:	e053      	b.n	8004ef6 <DMA_DeInit+0x146>
 8004e4e:	687b      	ldr	r3, [r7, #4]
 8004e50:	4a35      	ldr	r2, [pc, #212]	; (8004f28 <DMA_DeInit+0x178>)
 8004e52:	4293      	cmp	r3, r2
 8004e54:	d103      	bne.n	8004e5e <DMA_DeInit+0xae>
 8004e56:	4b2c      	ldr	r3, [pc, #176]	; (8004f08 <DMA_DeInit+0x158>)
 8004e58:	4a34      	ldr	r2, [pc, #208]	; (8004f2c <DMA_DeInit+0x17c>)
 8004e5a:	60da      	str	r2, [r3, #12]
 8004e5c:	e04b      	b.n	8004ef6 <DMA_DeInit+0x146>
 8004e5e:	687b      	ldr	r3, [r7, #4]
 8004e60:	4a33      	ldr	r2, [pc, #204]	; (8004f30 <DMA_DeInit+0x180>)
 8004e62:	4293      	cmp	r3, r2
 8004e64:	d104      	bne.n	8004e70 <DMA_DeInit+0xc0>
 8004e66:	4b28      	ldr	r3, [pc, #160]	; (8004f08 <DMA_DeInit+0x158>)
 8004e68:	f04f 523d 	mov.w	r2, #792723456	; 0x2f400000
 8004e6c:	60da      	str	r2, [r3, #12]
 8004e6e:	e042      	b.n	8004ef6 <DMA_DeInit+0x146>
 8004e70:	687b      	ldr	r3, [r7, #4]
 8004e72:	4a30      	ldr	r2, [pc, #192]	; (8004f34 <DMA_DeInit+0x184>)
 8004e74:	4293      	cmp	r3, r2
 8004e76:	d103      	bne.n	8004e80 <DMA_DeInit+0xd0>
 8004e78:	4b2f      	ldr	r3, [pc, #188]	; (8004f38 <DMA_DeInit+0x188>)
 8004e7a:	223d      	movs	r2, #61	; 0x3d
 8004e7c:	609a      	str	r2, [r3, #8]
 8004e7e:	e03a      	b.n	8004ef6 <DMA_DeInit+0x146>
 8004e80:	687b      	ldr	r3, [r7, #4]
 8004e82:	4a2e      	ldr	r2, [pc, #184]	; (8004f3c <DMA_DeInit+0x18c>)
 8004e84:	4293      	cmp	r3, r2
 8004e86:	d104      	bne.n	8004e92 <DMA_DeInit+0xe2>
 8004e88:	4b2b      	ldr	r3, [pc, #172]	; (8004f38 <DMA_DeInit+0x188>)
 8004e8a:	f44f 6274 	mov.w	r2, #3904	; 0xf40
 8004e8e:	609a      	str	r2, [r3, #8]
 8004e90:	e031      	b.n	8004ef6 <DMA_DeInit+0x146>
 8004e92:	687b      	ldr	r3, [r7, #4]
 8004e94:	4a2a      	ldr	r2, [pc, #168]	; (8004f40 <DMA_DeInit+0x190>)
 8004e96:	4293      	cmp	r3, r2
 8004e98:	d104      	bne.n	8004ea4 <DMA_DeInit+0xf4>
 8004e9a:	4b27      	ldr	r3, [pc, #156]	; (8004f38 <DMA_DeInit+0x188>)
 8004e9c:	f44f 1274 	mov.w	r2, #3997696	; 0x3d0000
 8004ea0:	609a      	str	r2, [r3, #8]
 8004ea2:	e028      	b.n	8004ef6 <DMA_DeInit+0x146>
 8004ea4:	687b      	ldr	r3, [r7, #4]
 8004ea6:	4a27      	ldr	r2, [pc, #156]	; (8004f44 <DMA_DeInit+0x194>)
 8004ea8:	4293      	cmp	r3, r2
 8004eaa:	d104      	bne.n	8004eb6 <DMA_DeInit+0x106>
 8004eac:	4b22      	ldr	r3, [pc, #136]	; (8004f38 <DMA_DeInit+0x188>)
 8004eae:	f04f 6274 	mov.w	r2, #255852544	; 0xf400000
 8004eb2:	609a      	str	r2, [r3, #8]
 8004eb4:	e01f      	b.n	8004ef6 <DMA_DeInit+0x146>
 8004eb6:	687b      	ldr	r3, [r7, #4]
 8004eb8:	4a23      	ldr	r2, [pc, #140]	; (8004f48 <DMA_DeInit+0x198>)
 8004eba:	4293      	cmp	r3, r2
 8004ebc:	d103      	bne.n	8004ec6 <DMA_DeInit+0x116>
 8004ebe:	4b1e      	ldr	r3, [pc, #120]	; (8004f38 <DMA_DeInit+0x188>)
 8004ec0:	4a16      	ldr	r2, [pc, #88]	; (8004f1c <DMA_DeInit+0x16c>)
 8004ec2:	60da      	str	r2, [r3, #12]
 8004ec4:	e017      	b.n	8004ef6 <DMA_DeInit+0x146>
 8004ec6:	687b      	ldr	r3, [r7, #4]
 8004ec8:	4a20      	ldr	r2, [pc, #128]	; (8004f4c <DMA_DeInit+0x19c>)
 8004eca:	4293      	cmp	r3, r2
 8004ecc:	d103      	bne.n	8004ed6 <DMA_DeInit+0x126>
 8004ece:	4b1a      	ldr	r3, [pc, #104]	; (8004f38 <DMA_DeInit+0x188>)
 8004ed0:	4a14      	ldr	r2, [pc, #80]	; (8004f24 <DMA_DeInit+0x174>)
 8004ed2:	60da      	str	r2, [r3, #12]
 8004ed4:	e00f      	b.n	8004ef6 <DMA_DeInit+0x146>
 8004ed6:	687b      	ldr	r3, [r7, #4]
 8004ed8:	4a1d      	ldr	r2, [pc, #116]	; (8004f50 <DMA_DeInit+0x1a0>)
 8004eda:	4293      	cmp	r3, r2
 8004edc:	d103      	bne.n	8004ee6 <DMA_DeInit+0x136>
 8004ede:	4b16      	ldr	r3, [pc, #88]	; (8004f38 <DMA_DeInit+0x188>)
 8004ee0:	4a12      	ldr	r2, [pc, #72]	; (8004f2c <DMA_DeInit+0x17c>)
 8004ee2:	60da      	str	r2, [r3, #12]
 8004ee4:	e007      	b.n	8004ef6 <DMA_DeInit+0x146>
 8004ee6:	687b      	ldr	r3, [r7, #4]
 8004ee8:	4a1a      	ldr	r2, [pc, #104]	; (8004f54 <DMA_DeInit+0x1a4>)
 8004eea:	4293      	cmp	r3, r2
 8004eec:	d103      	bne.n	8004ef6 <DMA_DeInit+0x146>
 8004eee:	4b12      	ldr	r3, [pc, #72]	; (8004f38 <DMA_DeInit+0x188>)
 8004ef0:	f04f 523d 	mov.w	r2, #792723456	; 0x2f400000
 8004ef4:	60da      	str	r2, [r3, #12]
 8004ef6:	bf00      	nop
 8004ef8:	370c      	adds	r7, #12
 8004efa:	46bd      	mov	sp, r7
 8004efc:	f85d 7b04 	ldr.w	r7, [sp], #4
 8004f00:	4770      	bx	lr
 8004f02:	bf00      	nop
 8004f04:	40026010 	.word	0x40026010
 8004f08:	40026000 	.word	0x40026000
 8004f0c:	40026028 	.word	0x40026028
 8004f10:	40026040 	.word	0x40026040
 8004f14:	40026058 	.word	0x40026058
 8004f18:	40026070 	.word	0x40026070
 8004f1c:	2000003d 	.word	0x2000003d
 8004f20:	40026088 	.word	0x40026088
 8004f24:	20000f40 	.word	0x20000f40
 8004f28:	400260a0 	.word	0x400260a0
 8004f2c:	203d0000 	.word	0x203d0000
 8004f30:	400260b8 	.word	0x400260b8
 8004f34:	40026410 	.word	0x40026410
 8004f38:	40026400 	.word	0x40026400
 8004f3c:	40026428 	.word	0x40026428
 8004f40:	40026440 	.word	0x40026440
 8004f44:	40026458 	.word	0x40026458
 8004f48:	40026470 	.word	0x40026470
 8004f4c:	40026488 	.word	0x40026488
 8004f50:	400264a0 	.word	0x400264a0
 8004f54:	400264b8 	.word	0x400264b8

08004f58 <DMA_Init>:
 8004f58:	b480      	push	{r7}
 8004f5a:	b085      	sub	sp, #20
 8004f5c:	af00      	add	r7, sp, #0
 8004f5e:	6078      	str	r0, [r7, #4]
 8004f60:	6039      	str	r1, [r7, #0]
 8004f62:	2300      	movs	r3, #0
 8004f64:	60fb      	str	r3, [r7, #12]
 8004f66:	687b      	ldr	r3, [r7, #4]
 8004f68:	681b      	ldr	r3, [r3, #0]
 8004f6a:	60fb      	str	r3, [r7, #12]
 8004f6c:	68fa      	ldr	r2, [r7, #12]
 8004f6e:	4b25      	ldr	r3, [pc, #148]	; (8005004 <DMA_Init+0xac>)
 8004f70:	4013      	ands	r3, r2
 8004f72:	60fb      	str	r3, [r7, #12]
 8004f74:	683b      	ldr	r3, [r7, #0]
 8004f76:	681a      	ldr	r2, [r3, #0]
 8004f78:	683b      	ldr	r3, [r7, #0]
 8004f7a:	68db      	ldr	r3, [r3, #12]
 8004f7c:	431a      	orrs	r2, r3
 8004f7e:	683b      	ldr	r3, [r7, #0]
 8004f80:	695b      	ldr	r3, [r3, #20]
 8004f82:	431a      	orrs	r2, r3
 8004f84:	683b      	ldr	r3, [r7, #0]
 8004f86:	699b      	ldr	r3, [r3, #24]
 8004f88:	431a      	orrs	r2, r3
 8004f8a:	683b      	ldr	r3, [r7, #0]
 8004f8c:	69db      	ldr	r3, [r3, #28]
 8004f8e:	431a      	orrs	r2, r3
 8004f90:	683b      	ldr	r3, [r7, #0]
 8004f92:	6a1b      	ldr	r3, [r3, #32]
 8004f94:	431a      	orrs	r2, r3
 8004f96:	683b      	ldr	r3, [r7, #0]
 8004f98:	6a5b      	ldr	r3, [r3, #36]	; 0x24
 8004f9a:	431a      	orrs	r2, r3
 8004f9c:	683b      	ldr	r3, [r7, #0]
 8004f9e:	6a9b      	ldr	r3, [r3, #40]	; 0x28
 8004fa0:	431a      	orrs	r2, r3
 8004fa2:	683b      	ldr	r3, [r7, #0]
 8004fa4:	6b5b      	ldr	r3, [r3, #52]	; 0x34
 8004fa6:	431a      	orrs	r2, r3
 8004fa8:	683b      	ldr	r3, [r7, #0]
 8004faa:	6b9b      	ldr	r3, [r3, #56]	; 0x38
 8004fac:	4313      	orrs	r3, r2
 8004fae:	68fa      	ldr	r2, [r7, #12]
 8004fb0:	4313      	orrs	r3, r2
 8004fb2:	60fb      	str	r3, [r7, #12]
 8004fb4:	687b      	ldr	r3, [r7, #4]
 8004fb6:	68fa      	ldr	r2, [r7, #12]
 8004fb8:	601a      	str	r2, [r3, #0]
 8004fba:	687b      	ldr	r3, [r7, #4]
 8004fbc:	695b      	ldr	r3, [r3, #20]
 8004fbe:	60fb      	str	r3, [r7, #12]
 8004fc0:	68fb      	ldr	r3, [r7, #12]
 8004fc2:	f023 0307 	bic.w	r3, r3, #7
 8004fc6:	60fb      	str	r3, [r7, #12]
 8004fc8:	683b      	ldr	r3, [r7, #0]
 8004fca:	6ada      	ldr	r2, [r3, #44]	; 0x2c
 8004fcc:	683b      	ldr	r3, [r7, #0]
 8004fce:	6b1b      	ldr	r3, [r3, #48]	; 0x30
 8004fd0:	4313      	orrs	r3, r2
 8004fd2:	68fa      	ldr	r2, [r7, #12]
 8004fd4:	4313      	orrs	r3, r2
 8004fd6:	60fb      	str	r3, [r7, #12]
 8004fd8:	687b      	ldr	r3, [r7, #4]
 8004fda:	68fa      	ldr	r2, [r7, #12]
 8004fdc:	615a      	str	r2, [r3, #20]
 8004fde:	683b      	ldr	r3, [r7, #0]
 8004fe0:	691a      	ldr	r2, [r3, #16]
 8004fe2:	687b      	ldr	r3, [r7, #4]
 8004fe4:	605a      	str	r2, [r3, #4]
 8004fe6:	683b      	ldr	r3, [r7, #0]
 8004fe8:	685a      	ldr	r2, [r3, #4]
 8004fea:	687b      	ldr	r3, [r7, #4]
 8004fec:	609a      	str	r2, [r3, #8]
 8004fee:	683b      	ldr	r3, [r7, #0]
 8004ff0:	689a      	ldr	r2, [r3, #8]
 8004ff2:	687b      	ldr	r3, [r7, #4]
 8004ff4:	60da      	str	r2, [r3, #12]
 8004ff6:	bf00      	nop
 8004ff8:	3714      	adds	r7, #20
 8004ffa:	46bd      	mov	sp, r7
 8004ffc:	f85d 7b04 	ldr.w	r7, [sp], #4
 8005000:	4770      	bx	lr
 8005002:	bf00      	nop
 8005004:	f01c803f 	.word	0xf01c803f

08005008 <DMA_Cmd>:
 8005008:	b480      	push	{r7}
 800500a:	b083      	sub	sp, #12
 800500c:	af00      	add	r7, sp, #0
 800500e:	6078      	str	r0, [r7, #4]
 8005010:	460b      	mov	r3, r1
 8005012:	70fb      	strb	r3, [r7, #3]
 8005014:	78fb      	ldrb	r3, [r7, #3]
 8005016:	2b00      	cmp	r3, #0
 8005018:	d006      	beq.n	8005028 <DMA_Cmd+0x20>
 800501a:	687b      	ldr	r3, [r7, #4]
 800501c:	681b      	ldr	r3, [r3, #0]
 800501e:	f043 0201 	orr.w	r2, r3, #1
 8005022:	687b      	ldr	r3, [r7, #4]
 8005024:	601a      	str	r2, [r3, #0]
 8005026:	e005      	b.n	8005034 <DMA_Cmd+0x2c>
 8005028:	687b      	ldr	r3, [r7, #4]
 800502a:	681b      	ldr	r3, [r3, #0]
 800502c:	f023 0201 	bic.w	r2, r3, #1
 8005030:	687b      	ldr	r3, [r7, #4]
 8005032:	601a      	str	r2, [r3, #0]
 8005034:	bf00      	nop
 8005036:	370c      	adds	r7, #12
 8005038:	46bd      	mov	sp, r7
 800503a:	f85d 7b04 	ldr.w	r7, [sp], #4
 800503e:	4770      	bx	lr

08005040 <GPIO_Init>:
 8005040:	b480      	push	{r7}
 8005042:	b087      	sub	sp, #28
 8005044:	af00      	add	r7, sp, #0
 8005046:	6078      	str	r0, [r7, #4]
 8005048:	6039      	str	r1, [r7, #0]
 800504a:	2300      	movs	r3, #0
 800504c:	617b      	str	r3, [r7, #20]
 800504e:	2300      	movs	r3, #0
 8005050:	613b      	str	r3, [r7, #16]
 8005052:	2300      	movs	r3, #0
 8005054:	60fb      	str	r3, [r7, #12]
 8005056:	2300      	movs	r3, #0
 8005058:	617b      	str	r3, [r7, #20]
 800505a:	e076      	b.n	800514a <GPIO_Init+0x10a>
 800505c:	2201      	movs	r2, #1
 800505e:	697b      	ldr	r3, [r7, #20]
 8005060:	fa02 f303 	lsl.w	r3, r2, r3
 8005064:	613b      	str	r3, [r7, #16]
 8005066:	683b      	ldr	r3, [r7, #0]
 8005068:	681b      	ldr	r3, [r3, #0]
 800506a:	693a      	ldr	r2, [r7, #16]
 800506c:	4013      	ands	r3, r2
 800506e:	60fb      	str	r3, [r7, #12]
 8005070:	68fa      	ldr	r2, [r7, #12]
 8005072:	693b      	ldr	r3, [r7, #16]
 8005074:	429a      	cmp	r2, r3
 8005076:	d165      	bne.n	8005144 <GPIO_Init+0x104>
 8005078:	687b      	ldr	r3, [r7, #4]
 800507a:	681a      	ldr	r2, [r3, #0]
 800507c:	697b      	ldr	r3, [r7, #20]
 800507e:	005b      	lsls	r3, r3, #1
 8005080:	2103      	movs	r1, #3
 8005082:	fa01 f303 	lsl.w	r3, r1, r3
 8005086:	43db      	mvns	r3, r3
 8005088:	401a      	ands	r2, r3
 800508a:	687b      	ldr	r3, [r7, #4]
 800508c:	601a      	str	r2, [r3, #0]
 800508e:	687b      	ldr	r3, [r7, #4]
 8005090:	681a      	ldr	r2, [r3, #0]
 8005092:	683b      	ldr	r3, [r7, #0]
 8005094:	791b      	ldrb	r3, [r3, #4]
 8005096:	4619      	mov	r1, r3
 8005098:	697b      	ldr	r3, [r7, #20]
 800509a:	005b      	lsls	r3, r3, #1
 800509c:	fa01 f303 	lsl.w	r3, r1, r3
 80050a0:	431a      	orrs	r2, r3
 80050a2:	687b      	ldr	r3, [r7, #4]
 80050a4:	601a      	str	r2, [r3, #0]
 80050a6:	683b      	ldr	r3, [r7, #0]
 80050a8:	791b      	ldrb	r3, [r3, #4]
 80050aa:	2b01      	cmp	r3, #1
 80050ac:	d003      	beq.n	80050b6 <GPIO_Init+0x76>
 80050ae:	683b      	ldr	r3, [r7, #0]
 80050b0:	791b      	ldrb	r3, [r3, #4]
 80050b2:	2b02      	cmp	r3, #2
 80050b4:	d12e      	bne.n	8005114 <GPIO_Init+0xd4>
 80050b6:	687b      	ldr	r3, [r7, #4]
 80050b8:	689a      	ldr	r2, [r3, #8]
 80050ba:	697b      	ldr	r3, [r7, #20]
 80050bc:	005b      	lsls	r3, r3, #1
 80050be:	2103      	movs	r1, #3
 80050c0:	fa01 f303 	lsl.w	r3, r1, r3
 80050c4:	43db      	mvns	r3, r3
 80050c6:	401a      	ands	r2, r3
 80050c8:	687b      	ldr	r3, [r7, #4]
 80050ca:	609a      	str	r2, [r3, #8]
 80050cc:	687b      	ldr	r3, [r7, #4]
 80050ce:	689a      	ldr	r2, [r3, #8]
 80050d0:	683b      	ldr	r3, [r7, #0]
 80050d2:	795b      	ldrb	r3, [r3, #5]
 80050d4:	4619      	mov	r1, r3
 80050d6:	697b      	ldr	r3, [r7, #20]
 80050d8:	005b      	lsls	r3, r3, #1
 80050da:	fa01 f303 	lsl.w	r3, r1, r3
 80050de:	431a      	orrs	r2, r3
 80050e0:	687b      	ldr	r3, [r7, #4]
 80050e2:	609a      	str	r2, [r3, #8]
 80050e4:	687b      	ldr	r3, [r7, #4]
 80050e6:	685a      	ldr	r2, [r3, #4]
 80050e8:	697b      	ldr	r3, [r7, #20]
 80050ea:	b29b      	uxth	r3, r3
 80050ec:	4619      	mov	r1, r3
 80050ee:	2301      	movs	r3, #1
 80050f0:	408b      	lsls	r3, r1
 80050f2:	43db      	mvns	r3, r3
 80050f4:	401a      	ands	r2, r3
 80050f6:	687b      	ldr	r3, [r7, #4]
 80050f8:	605a      	str	r2, [r3, #4]
 80050fa:	687b      	ldr	r3, [r7, #4]
 80050fc:	685b      	ldr	r3, [r3, #4]
 80050fe:	683a      	ldr	r2, [r7, #0]
 8005100:	7992      	ldrb	r2, [r2, #6]
 8005102:	4611      	mov	r1, r2
 8005104:	697a      	ldr	r2, [r7, #20]
 8005106:	b292      	uxth	r2, r2
 8005108:	fa01 f202 	lsl.w	r2, r1, r2
 800510c:	b292      	uxth	r2, r2
 800510e:	431a      	orrs	r2, r3
 8005110:	687b      	ldr	r3, [r7, #4]
 8005112:	605a      	str	r2, [r3, #4]
 8005114:	687b      	ldr	r3, [r7, #4]
 8005116:	68da      	ldr	r2, [r3, #12]
 8005118:	697b      	ldr	r3, [r7, #20]
 800511a:	b29b      	uxth	r3, r3
 800511c:	005b      	lsls	r3, r3, #1
 800511e:	2103      	movs	r1, #3
 8005120:	fa01 f303 	lsl.w	r3, r1, r3
 8005124:	43db      	mvns	r3, r3
 8005126:	401a      	ands	r2, r3
 8005128:	687b      	ldr	r3, [r7, #4]
 800512a:	60da      	str	r2, [r3, #12]
 800512c:	687b      	ldr	r3, [r7, #4]
 800512e:	68da      	ldr	r2, [r3, #12]
 8005130:	683b      	ldr	r3, [r7, #0]
 8005132:	79db      	ldrb	r3, [r3, #7]
 8005134:	4619      	mov	r1, r3
 8005136:	697b      	ldr	r3, [r7, #20]
 8005138:	005b      	lsls	r3, r3, #1
 800513a:	fa01 f303 	lsl.w	r3, r1, r3
 800513e:	431a      	orrs	r2, r3
 8005140:	687b      	ldr	r3, [r7, #4]
 8005142:	60da      	str	r2, [r3, #12]
 8005144:	697b      	ldr	r3, [r7, #20]
 8005146:	3301      	adds	r3, #1
 8005148:	617b      	str	r3, [r7, #20]
 800514a:	697b      	ldr	r3, [r7, #20]
 800514c:	2b0f      	cmp	r3, #15
 800514e:	d985      	bls.n	800505c <GPIO_Init+0x1c>
 8005150:	bf00      	nop
 8005152:	371c      	adds	r7, #28
 8005154:	46bd      	mov	sp, r7
 8005156:	f85d 7b04 	ldr.w	r7, [sp], #4
 800515a:	4770      	bx	lr

0800515c <GPIO_ReadInputDataBit>:
 800515c:	b480      	push	{r7}
 800515e:	b085      	sub	sp, #20
 8005160:	af00      	add	r7, sp, #0
 8005162:	6078      	str	r0, [r7, #4]
 8005164:	460b      	mov	r3, r1
 8005166:	807b      	strh	r3, [r7, #2]
 8005168:	2300      	movs	r3, #0
 800516a:	73fb      	strb	r3, [r7, #15]
 800516c:	687b      	ldr	r3, [r7, #4]
 800516e:	691a      	ldr	r2, [r3, #16]
 8005170:	887b      	ldrh	r3, [r7, #2]
 8005172:	4013      	ands	r3, r2
 8005174:	2b00      	cmp	r3, #0
 8005176:	d002      	beq.n	800517e <GPIO_ReadInputDataBit+0x22>
 8005178:	2301      	movs	r3, #1
 800517a:	73fb      	strb	r3, [r7, #15]
 800517c:	e001      	b.n	8005182 <GPIO_ReadInputDataBit+0x26>
 800517e:	2300      	movs	r3, #0
 8005180:	73fb      	strb	r3, [r7, #15]
 8005182:	7bfb      	ldrb	r3, [r7, #15]
 8005184:	4618      	mov	r0, r3
 8005186:	3714      	adds	r7, #20
 8005188:	46bd      	mov	sp, r7
 800518a:	f85d 7b04 	ldr.w	r7, [sp], #4
 800518e:	4770      	bx	lr

08005190 <GPIO_SetBits>:
 8005190:	b480      	push	{r7}
 8005192:	b083      	sub	sp, #12
 8005194:	af00      	add	r7, sp, #0
 8005196:	6078      	str	r0, [r7, #4]
 8005198:	460b      	mov	r3, r1
 800519a:	807b      	strh	r3, [r7, #2]
 800519c:	687b      	ldr	r3, [r7, #4]
 800519e:	887a      	ldrh	r2, [r7, #2]
 80051a0:	831a      	strh	r2, [r3, #24]
 80051a2:	bf00      	nop
 80051a4:	370c      	adds	r7, #12
 80051a6:	46bd      	mov	sp, r7
 80051a8:	f85d 7b04 	ldr.w	r7, [sp], #4
 80051ac:	4770      	bx	lr

080051ae <GPIO_ResetBits>:
 80051ae:	b480      	push	{r7}
 80051b0:	b083      	sub	sp, #12
 80051b2:	af00      	add	r7, sp, #0
 80051b4:	6078      	str	r0, [r7, #4]
 80051b6:	460b      	mov	r3, r1
 80051b8:	807b      	strh	r3, [r7, #2]
 80051ba:	687b      	ldr	r3, [r7, #4]
 80051bc:	887a      	ldrh	r2, [r7, #2]
 80051be:	835a      	strh	r2, [r3, #26]
 80051c0:	bf00      	nop
 80051c2:	370c      	adds	r7, #12
 80051c4:	46bd      	mov	sp, r7
 80051c6:	f85d 7b04 	ldr.w	r7, [sp], #4
 80051ca:	4770      	bx	lr

080051cc <GPIO_WriteBit>:
 80051cc:	b480      	push	{r7}
 80051ce:	b083      	sub	sp, #12
 80051d0:	af00      	add	r7, sp, #0
 80051d2:	6078      	str	r0, [r7, #4]
 80051d4:	460b      	mov	r3, r1
 80051d6:	807b      	strh	r3, [r7, #2]
 80051d8:	4613      	mov	r3, r2
 80051da:	707b      	strb	r3, [r7, #1]
 80051dc:	787b      	ldrb	r3, [r7, #1]
 80051de:	2b00      	cmp	r3, #0
 80051e0:	d003      	beq.n	80051ea <GPIO_WriteBit+0x1e>
 80051e2:	687b      	ldr	r3, [r7, #4]
 80051e4:	887a      	ldrh	r2, [r7, #2]
 80051e6:	831a      	strh	r2, [r3, #24]
 80051e8:	e002      	b.n	80051f0 <GPIO_WriteBit+0x24>
 80051ea:	687b      	ldr	r3, [r7, #4]
 80051ec:	887a      	ldrh	r2, [r7, #2]
 80051ee:	835a      	strh	r2, [r3, #26]
 80051f0:	bf00      	nop
 80051f2:	370c      	adds	r7, #12
 80051f4:	46bd      	mov	sp, r7
 80051f6:	f85d 7b04 	ldr.w	r7, [sp], #4
 80051fa:	4770      	bx	lr

080051fc <GPIO_PinAFConfig>:
 80051fc:	b480      	push	{r7}
 80051fe:	b085      	sub	sp, #20
 8005200:	af00      	add	r7, sp, #0
 8005202:	6078      	str	r0, [r7, #4]
 8005204:	460b      	mov	r3, r1
 8005206:	807b      	strh	r3, [r7, #2]
 8005208:	4613      	mov	r3, r2
 800520a:	707b      	strb	r3, [r7, #1]
 800520c:	2300      	movs	r3, #0
 800520e:	60fb      	str	r3, [r7, #12]
 8005210:	2300      	movs	r3, #0
 8005212:	60bb      	str	r3, [r7, #8]
 8005214:	787a      	ldrb	r2, [r7, #1]
 8005216:	887b      	ldrh	r3, [r7, #2]
 8005218:	f003 0307 	and.w	r3, r3, #7
 800521c:	009b      	lsls	r3, r3, #2
 800521e:	fa02 f303 	lsl.w	r3, r2, r3
 8005222:	60fb      	str	r3, [r7, #12]
 8005224:	887b      	ldrh	r3, [r7, #2]
 8005226:	08db      	lsrs	r3, r3, #3
 8005228:	b29b      	uxth	r3, r3
 800522a:	461a      	mov	r2, r3
 800522c:	687b      	ldr	r3, [r7, #4]
 800522e:	3208      	adds	r2, #8
 8005230:	f853 2022 	ldr.w	r2, [r3, r2, lsl #2]
 8005234:	887b      	ldrh	r3, [r7, #2]
 8005236:	f003 0307 	and.w	r3, r3, #7
 800523a:	009b      	lsls	r3, r3, #2
 800523c:	210f      	movs	r1, #15
 800523e:	fa01 f303 	lsl.w	r3, r1, r3
 8005242:	43db      	mvns	r3, r3
 8005244:	8879      	ldrh	r1, [r7, #2]
 8005246:	08c9      	lsrs	r1, r1, #3
 8005248:	b289      	uxth	r1, r1
 800524a:	4608      	mov	r0, r1
 800524c:	ea02 0103 	and.w	r1, r2, r3
 8005250:	687b      	ldr	r3, [r7, #4]
 8005252:	f100 0208 	add.w	r2, r0, #8
 8005256:	f843 1022 	str.w	r1, [r3, r2, lsl #2]
 800525a:	887b      	ldrh	r3, [r7, #2]
 800525c:	08db      	lsrs	r3, r3, #3
 800525e:	b29b      	uxth	r3, r3
 8005260:	461a      	mov	r2, r3
 8005262:	687b      	ldr	r3, [r7, #4]
 8005264:	3208      	adds	r2, #8
 8005266:	f853 3022 	ldr.w	r3, [r3, r2, lsl #2]
 800526a:	68fa      	ldr	r2, [r7, #12]
 800526c:	4313      	orrs	r3, r2
 800526e:	60bb      	str	r3, [r7, #8]
 8005270:	887b      	ldrh	r3, [r7, #2]
 8005272:	08db      	lsrs	r3, r3, #3
 8005274:	b29b      	uxth	r3, r3
 8005276:	461a      	mov	r2, r3
 8005278:	687b      	ldr	r3, [r7, #4]
 800527a:	3208      	adds	r2, #8
 800527c:	68b9      	ldr	r1, [r7, #8]
 800527e:	f843 1022 	str.w	r1, [r3, r2, lsl #2]
 8005282:	bf00      	nop
 8005284:	3714      	adds	r7, #20
 8005286:	46bd      	mov	sp, r7
 8005288:	f85d 7b04 	ldr.w	r7, [sp], #4
 800528c:	4770      	bx	lr
	...

08005290 <I2C_Init>:
 8005290:	b580      	push	{r7, lr}
 8005292:	b08a      	sub	sp, #40	; 0x28
 8005294:	af00      	add	r7, sp, #0
 8005296:	6078      	str	r0, [r7, #4]
 8005298:	6039      	str	r1, [r7, #0]
 800529a:	2300      	movs	r3, #0
 800529c:	84fb      	strh	r3, [r7, #38]	; 0x26
 800529e:	2300      	movs	r3, #0
 80052a0:	847b      	strh	r3, [r7, #34]	; 0x22
 80052a2:	2304      	movs	r3, #4
 80052a4:	84bb      	strh	r3, [r7, #36]	; 0x24
 80052a6:	4b57      	ldr	r3, [pc, #348]	; (8005404 <I2C_Init+0x174>)
 80052a8:	61fb      	str	r3, [r7, #28]
 80052aa:	687b      	ldr	r3, [r7, #4]
 80052ac:	889b      	ldrh	r3, [r3, #4]
 80052ae:	84fb      	strh	r3, [r7, #38]	; 0x26
 80052b0:	8cfb      	ldrh	r3, [r7, #38]	; 0x26
 80052b2:	f023 033f 	bic.w	r3, r3, #63	; 0x3f
 80052b6:	84fb      	strh	r3, [r7, #38]	; 0x26
 80052b8:	f107 030c 	add.w	r3, r7, #12
 80052bc:	4618      	mov	r0, r3
 80052be:	f000 f9c9 	bl	8005654 <RCC_GetClocksFreq>
 80052c2:	697b      	ldr	r3, [r7, #20]
 80052c4:	61fb      	str	r3, [r7, #28]
 80052c6:	69fb      	ldr	r3, [r7, #28]
 80052c8:	4a4f      	ldr	r2, [pc, #316]	; (8005408 <I2C_Init+0x178>)
 80052ca:	fba2 2303 	umull	r2, r3, r2, r3
 80052ce:	0c9b      	lsrs	r3, r3, #18
 80052d0:	847b      	strh	r3, [r7, #34]	; 0x22
 80052d2:	8cfa      	ldrh	r2, [r7, #38]	; 0x26
 80052d4:	8c7b      	ldrh	r3, [r7, #34]	; 0x22
 80052d6:	4313      	orrs	r3, r2
 80052d8:	84fb      	strh	r3, [r7, #38]	; 0x26
 80052da:	687b      	ldr	r3, [r7, #4]
 80052dc:	8cfa      	ldrh	r2, [r7, #38]	; 0x26
 80052de:	809a      	strh	r2, [r3, #4]
 80052e0:	687b      	ldr	r3, [r7, #4]
 80052e2:	881b      	ldrh	r3, [r3, #0]
 80052e4:	b29b      	uxth	r3, r3
 80052e6:	f023 0301 	bic.w	r3, r3, #1
 80052ea:	b29a      	uxth	r2, r3
 80052ec:	687b      	ldr	r3, [r7, #4]
 80052ee:	801a      	strh	r2, [r3, #0]
 80052f0:	2300      	movs	r3, #0
 80052f2:	84fb      	strh	r3, [r7, #38]	; 0x26
 80052f4:	683b      	ldr	r3, [r7, #0]
 80052f6:	681b      	ldr	r3, [r3, #0]
 80052f8:	4a44      	ldr	r2, [pc, #272]	; (800540c <I2C_Init+0x17c>)
 80052fa:	4293      	cmp	r3, r2
 80052fc:	d815      	bhi.n	800532a <I2C_Init+0x9a>
 80052fe:	683b      	ldr	r3, [r7, #0]
 8005300:	681b      	ldr	r3, [r3, #0]
 8005302:	005b      	lsls	r3, r3, #1
 8005304:	69fa      	ldr	r2, [r7, #28]
 8005306:	fbb2 f3f3 	udiv	r3, r2, r3
 800530a:	84bb      	strh	r3, [r7, #36]	; 0x24
 800530c:	8cbb      	ldrh	r3, [r7, #36]	; 0x24
 800530e:	2b03      	cmp	r3, #3
 8005310:	d801      	bhi.n	8005316 <I2C_Init+0x86>
 8005312:	2304      	movs	r3, #4
 8005314:	84bb      	strh	r3, [r7, #36]	; 0x24
 8005316:	8cfa      	ldrh	r2, [r7, #38]	; 0x26
 8005318:	8cbb      	ldrh	r3, [r7, #36]	; 0x24
 800531a:	4313      	orrs	r3, r2
 800531c:	84fb      	strh	r3, [r7, #38]	; 0x26
 800531e:	8c7b      	ldrh	r3, [r7, #34]	; 0x22
 8005320:	3301      	adds	r3, #1
 8005322:	b29a      	uxth	r2, r3
 8005324:	687b      	ldr	r3, [r7, #4]
 8005326:	841a      	strh	r2, [r3, #32]
 8005328:	e040      	b.n	80053ac <I2C_Init+0x11c>
 800532a:	683b      	ldr	r3, [r7, #0]
 800532c:	88db      	ldrh	r3, [r3, #6]
 800532e:	f64b 72ff 	movw	r2, #49151	; 0xbfff
 8005332:	4293      	cmp	r3, r2
 8005334:	d109      	bne.n	800534a <I2C_Init+0xba>
 8005336:	683b      	ldr	r3, [r7, #0]
 8005338:	681a      	ldr	r2, [r3, #0]
 800533a:	4613      	mov	r3, r2
 800533c:	005b      	lsls	r3, r3, #1
 800533e:	4413      	add	r3, r2
 8005340:	69fa      	ldr	r2, [r7, #28]
 8005342:	fbb2 f3f3 	udiv	r3, r2, r3
 8005346:	84bb      	strh	r3, [r7, #36]	; 0x24
 8005348:	e00e      	b.n	8005368 <I2C_Init+0xd8>
 800534a:	683b      	ldr	r3, [r7, #0]
 800534c:	681a      	ldr	r2, [r3, #0]
 800534e:	4613      	mov	r3, r2
 8005350:	009b      	lsls	r3, r3, #2
 8005352:	4413      	add	r3, r2
 8005354:	009a      	lsls	r2, r3, #2
 8005356:	4413      	add	r3, r2
 8005358:	69fa      	ldr	r2, [r7, #28]
 800535a:	fbb2 f3f3 	udiv	r3, r2, r3
 800535e:	84bb      	strh	r3, [r7, #36]	; 0x24
 8005360:	8cbb      	ldrh	r3, [r7, #36]	; 0x24
 8005362:	f443 4380 	orr.w	r3, r3, #16384	; 0x4000
 8005366:	84bb      	strh	r3, [r7, #36]	; 0x24
 8005368:	8cbb      	ldrh	r3, [r7, #36]	; 0x24
 800536a:	f3c3 030b 	ubfx	r3, r3, #0, #12
 800536e:	2b00      	cmp	r3, #0
 8005370:	d103      	bne.n	800537a <I2C_Init+0xea>
 8005372:	8cbb      	ldrh	r3, [r7, #36]	; 0x24
 8005374:	f043 0301 	orr.w	r3, r3, #1
 8005378:	84bb      	strh	r3, [r7, #36]	; 0x24
 800537a:	8cba      	ldrh	r2, [r7, #36]	; 0x24
 800537c:	8cfb      	ldrh	r3, [r7, #38]	; 0x26
 800537e:	4313      	orrs	r3, r2
 8005380:	b29b      	uxth	r3, r3
 8005382:	ea6f 4343 	mvn.w	r3, r3, lsl #17
 8005386:	ea6f 4353 	mvn.w	r3, r3, lsr #17
 800538a:	84fb      	strh	r3, [r7, #38]	; 0x26
 800538c:	8c7b      	ldrh	r3, [r7, #34]	; 0x22
 800538e:	f44f 7296 	mov.w	r2, #300	; 0x12c
 8005392:	fb02 f303 	mul.w	r3, r2, r3
 8005396:	4a1e      	ldr	r2, [pc, #120]	; (8005410 <I2C_Init+0x180>)
 8005398:	fb82 1203 	smull	r1, r2, r2, r3
 800539c:	1192      	asrs	r2, r2, #6
 800539e:	17db      	asrs	r3, r3, #31
 80053a0:	1ad3      	subs	r3, r2, r3
 80053a2:	b29b      	uxth	r3, r3
 80053a4:	3301      	adds	r3, #1
 80053a6:	b29a      	uxth	r2, r3
 80053a8:	687b      	ldr	r3, [r7, #4]
 80053aa:	841a      	strh	r2, [r3, #32]
 80053ac:	687b      	ldr	r3, [r7, #4]
 80053ae:	8cfa      	ldrh	r2, [r7, #38]	; 0x26
 80053b0:	839a      	strh	r2, [r3, #28]
 80053b2:	687b      	ldr	r3, [r7, #4]
 80053b4:	881b      	ldrh	r3, [r3, #0]
 80053b6:	b29b      	uxth	r3, r3
 80053b8:	f043 0301 	orr.w	r3, r3, #1
 80053bc:	b29a      	uxth	r2, r3
 80053be:	687b      	ldr	r3, [r7, #4]
 80053c0:	801a      	strh	r2, [r3, #0]
 80053c2:	687b      	ldr	r3, [r7, #4]
 80053c4:	881b      	ldrh	r3, [r3, #0]
 80053c6:	84fb      	strh	r3, [r7, #38]	; 0x26
 80053c8:	8cfb      	ldrh	r3, [r7, #38]	; 0x26
 80053ca:	f423 6381 	bic.w	r3, r3, #1032	; 0x408
 80053ce:	f023 0302 	bic.w	r3, r3, #2
 80053d2:	84fb      	strh	r3, [r7, #38]	; 0x26
 80053d4:	683b      	ldr	r3, [r7, #0]
 80053d6:	889a      	ldrh	r2, [r3, #4]
 80053d8:	683b      	ldr	r3, [r7, #0]
 80053da:	895b      	ldrh	r3, [r3, #10]
 80053dc:	4313      	orrs	r3, r2
 80053de:	b29a      	uxth	r2, r3
 80053e0:	8cfb      	ldrh	r3, [r7, #38]	; 0x26
 80053e2:	4313      	orrs	r3, r2
 80053e4:	84fb      	strh	r3, [r7, #38]	; 0x26
 80053e6:	687b      	ldr	r3, [r7, #4]
 80053e8:	8cfa      	ldrh	r2, [r7, #38]	; 0x26
 80053ea:	801a      	strh	r2, [r3, #0]
 80053ec:	683b      	ldr	r3, [r7, #0]
 80053ee:	899a      	ldrh	r2, [r3, #12]
 80053f0:	683b      	ldr	r3, [r7, #0]
 80053f2:	891b      	ldrh	r3, [r3, #8]
 80053f4:	4313      	orrs	r3, r2
 80053f6:	b29a      	uxth	r2, r3
 80053f8:	687b      	ldr	r3, [r7, #4]
 80053fa:	811a      	strh	r2, [r3, #8]
 80053fc:	bf00      	nop
 80053fe:	3728      	adds	r7, #40	; 0x28
 8005400:	46bd      	mov	sp, r7
 8005402:	bd80      	pop	{r7, pc}
 8005404:	007a1200 	.word	0x007a1200
 8005408:	431bde83 	.word	0x431bde83
 800540c:	000186a0 	.word	0x000186a0
 8005410:	10624dd3 	.word	0x10624dd3

08005414 <I2C_Cmd>:
 8005414:	b480      	push	{r7}
 8005416:	b083      	sub	sp, #12
 8005418:	af00      	add	r7, sp, #0
 800541a:	6078      	str	r0, [r7, #4]
 800541c:	460b      	mov	r3, r1
 800541e:	70fb      	strb	r3, [r7, #3]
 8005420:	78fb      	ldrb	r3, [r7, #3]
 8005422:	2b00      	cmp	r3, #0
 8005424:	d008      	beq.n	8005438 <I2C_Cmd+0x24>
 8005426:	687b      	ldr	r3, [r7, #4]
 8005428:	881b      	ldrh	r3, [r3, #0]
 800542a:	b29b      	uxth	r3, r3
 800542c:	f043 0301 	orr.w	r3, r3, #1
 8005430:	b29a      	uxth	r2, r3
 8005432:	687b      	ldr	r3, [r7, #4]
 8005434:	801a      	strh	r2, [r3, #0]
 8005436:	e007      	b.n	8005448 <I2C_Cmd+0x34>
 8005438:	687b      	ldr	r3, [r7, #4]
 800543a:	881b      	ldrh	r3, [r3, #0]
 800543c:	b29b      	uxth	r3, r3
 800543e:	f023 0301 	bic.w	r3, r3, #1
 8005442:	b29a      	uxth	r2, r3
 8005444:	687b      	ldr	r3, [r7, #4]
 8005446:	801a      	strh	r2, [r3, #0]
 8005448:	bf00      	nop
 800544a:	370c      	adds	r7, #12
 800544c:	46bd      	mov	sp, r7
 800544e:	f85d 7b04 	ldr.w	r7, [sp], #4
 8005452:	4770      	bx	lr

08005454 <I2C_GenerateSTART>:
 8005454:	b480      	push	{r7}
 8005456:	b083      	sub	sp, #12
 8005458:	af00      	add	r7, sp, #0
 800545a:	6078      	str	r0, [r7, #4]
 800545c:	460b      	mov	r3, r1
 800545e:	70fb      	strb	r3, [r7, #3]
 8005460:	78fb      	ldrb	r3, [r7, #3]
 8005462:	2b00      	cmp	r3, #0
 8005464:	d008      	beq.n	8005478 <I2C_GenerateSTART+0x24>
 8005466:	687b      	ldr	r3, [r7, #4]
 8005468:	881b      	ldrh	r3, [r3, #0]
 800546a:	b29b      	uxth	r3, r3
 800546c:	f443 7380 	orr.w	r3, r3, #256	; 0x100
 8005470:	b29a      	uxth	r2, r3
 8005472:	687b      	ldr	r3, [r7, #4]
 8005474:	801a      	strh	r2, [r3, #0]
 8005476:	e007      	b.n	8005488 <I2C_GenerateSTART+0x34>
 8005478:	687b      	ldr	r3, [r7, #4]
 800547a:	881b      	ldrh	r3, [r3, #0]
 800547c:	b29b      	uxth	r3, r3
 800547e:	f423 7380 	bic.w	r3, r3, #256	; 0x100
 8005482:	b29a      	uxth	r2, r3
 8005484:	687b      	ldr	r3, [r7, #4]
 8005486:	801a      	strh	r2, [r3, #0]
 8005488:	bf00      	nop
 800548a:	370c      	adds	r7, #12
 800548c:	46bd      	mov	sp, r7
 800548e:	f85d 7b04 	ldr.w	r7, [sp], #4
 8005492:	4770      	bx	lr

08005494 <I2C_GenerateSTOP>:
 8005494:	b480      	push	{r7}
 8005496:	b083      	sub	sp, #12
 8005498:	af00      	add	r7, sp, #0
 800549a:	6078      	str	r0, [r7, #4]
 800549c:	460b      	mov	r3, r1
 800549e:	70fb      	strb	r3, [r7, #3]
 80054a0:	78fb      	ldrb	r3, [r7, #3]
 80054a2:	2b00      	cmp	r3, #0
 80054a4:	d008      	beq.n	80054b8 <I2C_GenerateSTOP+0x24>
 80054a6:	687b      	ldr	r3, [r7, #4]
 80054a8:	881b      	ldrh	r3, [r3, #0]
 80054aa:	b29b      	uxth	r3, r3
 80054ac:	f443 7300 	orr.w	r3, r3, #512	; 0x200
 80054b0:	b29a      	uxth	r2, r3
 80054b2:	687b      	ldr	r3, [r7, #4]
 80054b4:	801a      	strh	r2, [r3, #0]
 80054b6:	e007      	b.n	80054c8 <I2C_GenerateSTOP+0x34>
 80054b8:	687b      	ldr	r3, [r7, #4]
 80054ba:	881b      	ldrh	r3, [r3, #0]
 80054bc:	b29b      	uxth	r3, r3
 80054be:	f423 7300 	bic.w	r3, r3, #512	; 0x200
 80054c2:	b29a      	uxth	r2, r3
 80054c4:	687b      	ldr	r3, [r7, #4]
 80054c6:	801a      	strh	r2, [r3, #0]
 80054c8:	bf00      	nop
 80054ca:	370c      	adds	r7, #12
 80054cc:	46bd      	mov	sp, r7
 80054ce:	f85d 7b04 	ldr.w	r7, [sp], #4
 80054d2:	4770      	bx	lr

080054d4 <I2C_Send7bitAddress>:
 80054d4:	b480      	push	{r7}
 80054d6:	b083      	sub	sp, #12
 80054d8:	af00      	add	r7, sp, #0
 80054da:	6078      	str	r0, [r7, #4]
 80054dc:	460b      	mov	r3, r1
 80054de:	70fb      	strb	r3, [r7, #3]
 80054e0:	4613      	mov	r3, r2
 80054e2:	70bb      	strb	r3, [r7, #2]
 80054e4:	78bb      	ldrb	r3, [r7, #2]
 80054e6:	2b00      	cmp	r3, #0
 80054e8:	d004      	beq.n	80054f4 <I2C_Send7bitAddress+0x20>
 80054ea:	78fb      	ldrb	r3, [r7, #3]
 80054ec:	f043 0301 	orr.w	r3, r3, #1
 80054f0:	70fb      	strb	r3, [r7, #3]
 80054f2:	e003      	b.n	80054fc <I2C_Send7bitAddress+0x28>
 80054f4:	78fb      	ldrb	r3, [r7, #3]
 80054f6:	f023 0301 	bic.w	r3, r3, #1
 80054fa:	70fb      	strb	r3, [r7, #3]
 80054fc:	78fb      	ldrb	r3, [r7, #3]
 80054fe:	b29a      	uxth	r2, r3
 8005500:	687b      	ldr	r3, [r7, #4]
 8005502:	821a      	strh	r2, [r3, #16]
 8005504:	bf00      	nop
 8005506:	370c      	adds	r7, #12
 8005508:	46bd      	mov	sp, r7
 800550a:	f85d 7b04 	ldr.w	r7, [sp], #4
 800550e:	4770      	bx	lr

08005510 <I2C_AcknowledgeConfig>:
 8005510:	b480      	push	{r7}
 8005512:	b083      	sub	sp, #12
 8005514:	af00      	add	r7, sp, #0
 8005516:	6078      	str	r0, [r7, #4]
 8005518:	460b      	mov	r3, r1
 800551a:	70fb      	strb	r3, [r7, #3]
 800551c:	78fb      	ldrb	r3, [r7, #3]
 800551e:	2b00      	cmp	r3, #0
 8005520:	d008      	beq.n	8005534 <I2C_AcknowledgeConfig+0x24>
 8005522:	687b      	ldr	r3, [r7, #4]
 8005524:	881b      	ldrh	r3, [r3, #0]
 8005526:	b29b      	uxth	r3, r3
 8005528:	f443 6380 	orr.w	r3, r3, #1024	; 0x400
 800552c:	b29a      	uxth	r2, r3
 800552e:	687b      	ldr	r3, [r7, #4]
 8005530:	801a      	strh	r2, [r3, #0]
 8005532:	e007      	b.n	8005544 <I2C_AcknowledgeConfig+0x34>
 8005534:	687b      	ldr	r3, [r7, #4]
 8005536:	881b      	ldrh	r3, [r3, #0]
 8005538:	b29b      	uxth	r3, r3
 800553a:	f423 6380 	bic.w	r3, r3, #1024	; 0x400
 800553e:	b29a      	uxth	r2, r3
 8005540:	687b      	ldr	r3, [r7, #4]
 8005542:	801a      	strh	r2, [r3, #0]
 8005544:	bf00      	nop
 8005546:	370c      	adds	r7, #12
 8005548:	46bd      	mov	sp, r7
 800554a:	f85d 7b04 	ldr.w	r7, [sp], #4
 800554e:	4770      	bx	lr

08005550 <I2C_SendData>:
 8005550:	b480      	push	{r7}
 8005552:	b083      	sub	sp, #12
 8005554:	af00      	add	r7, sp, #0
 8005556:	6078      	str	r0, [r7, #4]
 8005558:	460b      	mov	r3, r1
 800555a:	70fb      	strb	r3, [r7, #3]
 800555c:	78fb      	ldrb	r3, [r7, #3]
 800555e:	b29a      	uxth	r2, r3
 8005560:	687b      	ldr	r3, [r7, #4]
 8005562:	821a      	strh	r2, [r3, #16]
 8005564:	bf00      	nop
 8005566:	370c      	adds	r7, #12
 8005568:	46bd      	mov	sp, r7
 800556a:	f85d 7b04 	ldr.w	r7, [sp], #4
 800556e:	4770      	bx	lr

08005570 <I2C_ReceiveData>:
 8005570:	b480      	push	{r7}
 8005572:	b083      	sub	sp, #12
 8005574:	af00      	add	r7, sp, #0
 8005576:	6078      	str	r0, [r7, #4]
 8005578:	687b      	ldr	r3, [r7, #4]
 800557a:	8a1b      	ldrh	r3, [r3, #16]
 800557c:	b29b      	uxth	r3, r3
 800557e:	b2db      	uxtb	r3, r3
 8005580:	4618      	mov	r0, r3
 8005582:	370c      	adds	r7, #12
 8005584:	46bd      	mov	sp, r7
 8005586:	f85d 7b04 	ldr.w	r7, [sp], #4
 800558a:	4770      	bx	lr

0800558c <I2C_CheckEvent>:
 800558c:	b480      	push	{r7}
 800558e:	b087      	sub	sp, #28
 8005590:	af00      	add	r7, sp, #0
 8005592:	6078      	str	r0, [r7, #4]
 8005594:	6039      	str	r1, [r7, #0]
 8005596:	2300      	movs	r3, #0
 8005598:	613b      	str	r3, [r7, #16]
 800559a:	2300      	movs	r3, #0
 800559c:	60fb      	str	r3, [r7, #12]
 800559e:	2300      	movs	r3, #0
 80055a0:	60bb      	str	r3, [r7, #8]
 80055a2:	2300      	movs	r3, #0
 80055a4:	75fb      	strb	r3, [r7, #23]
 80055a6:	687b      	ldr	r3, [r7, #4]
 80055a8:	8a9b      	ldrh	r3, [r3, #20]
 80055aa:	b29b      	uxth	r3, r3
 80055ac:	60fb      	str	r3, [r7, #12]
 80055ae:	687b      	ldr	r3, [r7, #4]
 80055b0:	8b1b      	ldrh	r3, [r3, #24]
 80055b2:	b29b      	uxth	r3, r3
 80055b4:	60bb      	str	r3, [r7, #8]
 80055b6:	68bb      	ldr	r3, [r7, #8]
 80055b8:	041b      	lsls	r3, r3, #16
 80055ba:	60bb      	str	r3, [r7, #8]
 80055bc:	68fa      	ldr	r2, [r7, #12]
 80055be:	68bb      	ldr	r3, [r7, #8]
 80055c0:	4313      	orrs	r3, r2
 80055c2:	f023 437f 	bic.w	r3, r3, #4278190080	; 0xff000000
 80055c6:	613b      	str	r3, [r7, #16]
 80055c8:	693a      	ldr	r2, [r7, #16]
 80055ca:	683b      	ldr	r3, [r7, #0]
 80055cc:	4013      	ands	r3, r2
 80055ce:	683a      	ldr	r2, [r7, #0]
 80055d0:	429a      	cmp	r2, r3
 80055d2:	d102      	bne.n	80055da <I2C_CheckEvent+0x4e>
 80055d4:	2301      	movs	r3, #1
 80055d6:	75fb      	strb	r3, [r7, #23]
 80055d8:	e001      	b.n	80055de <I2C_CheckEvent+0x52>
 80055da:	2300      	movs	r3, #0
 80055dc:	75fb      	strb	r3, [r7, #23]
 80055de:	7dfb      	ldrb	r3, [r7, #23]
 80055e0:	4618      	mov	r0, r3
 80055e2:	371c      	adds	r7, #28
 80055e4:	46bd      	mov	sp, r7
 80055e6:	f85d 7b04 	ldr.w	r7, [sp], #4
 80055ea:	4770      	bx	lr

080055ec <I2C_GetFlagStatus>:
 80055ec:	b480      	push	{r7}
 80055ee:	b087      	sub	sp, #28
 80055f0:	af00      	add	r7, sp, #0
 80055f2:	6078      	str	r0, [r7, #4]
 80055f4:	6039      	str	r1, [r7, #0]
 80055f6:	2300      	movs	r3, #0
 80055f8:	75fb      	strb	r3, [r7, #23]
 80055fa:	2300      	movs	r3, #0
 80055fc:	613b      	str	r3, [r7, #16]
 80055fe:	2300      	movs	r3, #0
 8005600:	60fb      	str	r3, [r7, #12]
 8005602:	687b      	ldr	r3, [r7, #4]
 8005604:	60fb      	str	r3, [r7, #12]
 8005606:	683b      	ldr	r3, [r7, #0]
 8005608:	0f1b      	lsrs	r3, r3, #28
 800560a:	613b      	str	r3, [r7, #16]
 800560c:	683b      	ldr	r3, [r7, #0]
 800560e:	f023 437f 	bic.w	r3, r3, #4278190080	; 0xff000000
 8005612:	603b      	str	r3, [r7, #0]
 8005614:	693b      	ldr	r3, [r7, #16]
 8005616:	2b00      	cmp	r3, #0
 8005618:	d003      	beq.n	8005622 <I2C_GetFlagStatus+0x36>
 800561a:	68fb      	ldr	r3, [r7, #12]
 800561c:	3314      	adds	r3, #20
 800561e:	60fb      	str	r3, [r7, #12]
 8005620:	e005      	b.n	800562e <I2C_GetFlagStatus+0x42>
 8005622:	683b      	ldr	r3, [r7, #0]
 8005624:	0c1b      	lsrs	r3, r3, #16
 8005626:	603b      	str	r3, [r7, #0]
 8005628:	68fb      	ldr	r3, [r7, #12]
 800562a:	3318      	adds	r3, #24
 800562c:	60fb      	str	r3, [r7, #12]
 800562e:	68fb      	ldr	r3, [r7, #12]
 8005630:	681a      	ldr	r2, [r3, #0]
 8005632:	683b      	ldr	r3, [r7, #0]
 8005634:	4013      	ands	r3, r2
 8005636:	2b00      	cmp	r3, #0
 8005638:	d002      	beq.n	8005640 <I2C_GetFlagStatus+0x54>
 800563a:	2301      	movs	r3, #1
 800563c:	75fb      	strb	r3, [r7, #23]
 800563e:	e001      	b.n	8005644 <I2C_GetFlagStatus+0x58>
 8005640:	2300      	movs	r3, #0
 8005642:	75fb      	strb	r3, [r7, #23]
 8005644:	7dfb      	ldrb	r3, [r7, #23]
 8005646:	4618      	mov	r0, r3
 8005648:	371c      	adds	r7, #28
 800564a:	46bd      	mov	sp, r7
 800564c:	f85d 7b04 	ldr.w	r7, [sp], #4
 8005650:	4770      	bx	lr
	...

08005654 <RCC_GetClocksFreq>:
 8005654:	b480      	push	{r7}
 8005656:	b089      	sub	sp, #36	; 0x24
 8005658:	af00      	add	r7, sp, #0
 800565a:	6078      	str	r0, [r7, #4]
 800565c:	2300      	movs	r3, #0
 800565e:	61bb      	str	r3, [r7, #24]
 8005660:	2300      	movs	r3, #0
 8005662:	617b      	str	r3, [r7, #20]
 8005664:	2300      	movs	r3, #0
 8005666:	61fb      	str	r3, [r7, #28]
 8005668:	2302      	movs	r3, #2
 800566a:	613b      	str	r3, [r7, #16]
 800566c:	2300      	movs	r3, #0
 800566e:	60fb      	str	r3, [r7, #12]
 8005670:	2302      	movs	r3, #2
 8005672:	60bb      	str	r3, [r7, #8]
 8005674:	4b47      	ldr	r3, [pc, #284]	; (8005794 <RCC_GetClocksFreq+0x140>)
 8005676:	689b      	ldr	r3, [r3, #8]
 8005678:	f003 030c 	and.w	r3, r3, #12
 800567c:	61bb      	str	r3, [r7, #24]
 800567e:	69bb      	ldr	r3, [r7, #24]
 8005680:	2b04      	cmp	r3, #4
 8005682:	d007      	beq.n	8005694 <RCC_GetClocksFreq+0x40>
 8005684:	2b08      	cmp	r3, #8
 8005686:	d009      	beq.n	800569c <RCC_GetClocksFreq+0x48>
 8005688:	2b00      	cmp	r3, #0
 800568a:	d13d      	bne.n	8005708 <RCC_GetClocksFreq+0xb4>
 800568c:	687b      	ldr	r3, [r7, #4]
 800568e:	4a42      	ldr	r2, [pc, #264]	; (8005798 <RCC_GetClocksFreq+0x144>)
 8005690:	601a      	str	r2, [r3, #0]
 8005692:	e03d      	b.n	8005710 <RCC_GetClocksFreq+0xbc>
 8005694:	687b      	ldr	r3, [r7, #4]
 8005696:	4a41      	ldr	r2, [pc, #260]	; (800579c <RCC_GetClocksFreq+0x148>)
 8005698:	601a      	str	r2, [r3, #0]
 800569a:	e039      	b.n	8005710 <RCC_GetClocksFreq+0xbc>
 800569c:	4b3d      	ldr	r3, [pc, #244]	; (8005794 <RCC_GetClocksFreq+0x140>)
 800569e:	685b      	ldr	r3, [r3, #4]
 80056a0:	0d9b      	lsrs	r3, r3, #22
 80056a2:	f003 0301 	and.w	r3, r3, #1
 80056a6:	60fb      	str	r3, [r7, #12]
 80056a8:	4b3a      	ldr	r3, [pc, #232]	; (8005794 <RCC_GetClocksFreq+0x140>)
 80056aa:	685b      	ldr	r3, [r3, #4]
 80056ac:	f003 033f 	and.w	r3, r3, #63	; 0x3f
 80056b0:	60bb      	str	r3, [r7, #8]
 80056b2:	68fb      	ldr	r3, [r7, #12]
 80056b4:	2b00      	cmp	r3, #0
 80056b6:	d00c      	beq.n	80056d2 <RCC_GetClocksFreq+0x7e>
 80056b8:	4a38      	ldr	r2, [pc, #224]	; (800579c <RCC_GetClocksFreq+0x148>)
 80056ba:	68bb      	ldr	r3, [r7, #8]
 80056bc:	fbb2 f3f3 	udiv	r3, r2, r3
 80056c0:	4a34      	ldr	r2, [pc, #208]	; (8005794 <RCC_GetClocksFreq+0x140>)
 80056c2:	6852      	ldr	r2, [r2, #4]
 80056c4:	0992      	lsrs	r2, r2, #6
 80056c6:	f3c2 0208 	ubfx	r2, r2, #0, #9
 80056ca:	fb02 f303 	mul.w	r3, r2, r3
 80056ce:	61fb      	str	r3, [r7, #28]
 80056d0:	e00b      	b.n	80056ea <RCC_GetClocksFreq+0x96>
 80056d2:	4a31      	ldr	r2, [pc, #196]	; (8005798 <RCC_GetClocksFreq+0x144>)
 80056d4:	68bb      	ldr	r3, [r7, #8]
 80056d6:	fbb2 f3f3 	udiv	r3, r2, r3
 80056da:	4a2e      	ldr	r2, [pc, #184]	; (8005794 <RCC_GetClocksFreq+0x140>)
 80056dc:	6852      	ldr	r2, [r2, #4]
 80056de:	0992      	lsrs	r2, r2, #6
 80056e0:	f3c2 0208 	ubfx	r2, r2, #0, #9
 80056e4:	fb02 f303 	mul.w	r3, r2, r3
 80056e8:	61fb      	str	r3, [r7, #28]
 80056ea:	4b2a      	ldr	r3, [pc, #168]	; (8005794 <RCC_GetClocksFreq+0x140>)
 80056ec:	685b      	ldr	r3, [r3, #4]
 80056ee:	0c1b      	lsrs	r3, r3, #16
 80056f0:	f003 0303 	and.w	r3, r3, #3
 80056f4:	3301      	adds	r3, #1
 80056f6:	005b      	lsls	r3, r3, #1
 80056f8:	613b      	str	r3, [r7, #16]
 80056fa:	69fa      	ldr	r2, [r7, #28]
 80056fc:	693b      	ldr	r3, [r7, #16]
 80056fe:	fbb2 f2f3 	udiv	r2, r2, r3
 8005702:	687b      	ldr	r3, [r7, #4]
 8005704:	601a      	str	r2, [r3, #0]
 8005706:	e003      	b.n	8005710 <RCC_GetClocksFreq+0xbc>
 8005708:	687b      	ldr	r3, [r7, #4]
 800570a:	4a23      	ldr	r2, [pc, #140]	; (8005798 <RCC_GetClocksFreq+0x144>)
 800570c:	601a      	str	r2, [r3, #0]
 800570e:	bf00      	nop
 8005710:	4b20      	ldr	r3, [pc, #128]	; (8005794 <RCC_GetClocksFreq+0x140>)
 8005712:	689b      	ldr	r3, [r3, #8]
 8005714:	f003 03f0 	and.w	r3, r3, #240	; 0xf0
 8005718:	61bb      	str	r3, [r7, #24]
 800571a:	69bb      	ldr	r3, [r7, #24]
 800571c:	091b      	lsrs	r3, r3, #4
 800571e:	61bb      	str	r3, [r7, #24]
 8005720:	4a1f      	ldr	r2, [pc, #124]	; (80057a0 <RCC_GetClocksFreq+0x14c>)
 8005722:	69bb      	ldr	r3, [r7, #24]
 8005724:	4413      	add	r3, r2
 8005726:	781b      	ldrb	r3, [r3, #0]
 8005728:	b2db      	uxtb	r3, r3
 800572a:	617b      	str	r3, [r7, #20]
 800572c:	687b      	ldr	r3, [r7, #4]
 800572e:	681a      	ldr	r2, [r3, #0]
 8005730:	697b      	ldr	r3, [r7, #20]
 8005732:	40da      	lsrs	r2, r3
 8005734:	687b      	ldr	r3, [r7, #4]
 8005736:	605a      	str	r2, [r3, #4]
 8005738:	4b16      	ldr	r3, [pc, #88]	; (8005794 <RCC_GetClocksFreq+0x140>)
 800573a:	689b      	ldr	r3, [r3, #8]
 800573c:	f403 53e0 	and.w	r3, r3, #7168	; 0x1c00
 8005740:	61bb      	str	r3, [r7, #24]
 8005742:	69bb      	ldr	r3, [r7, #24]
 8005744:	0a9b      	lsrs	r3, r3, #10
 8005746:	61bb      	str	r3, [r7, #24]
 8005748:	4a15      	ldr	r2, [pc, #84]	; (80057a0 <RCC_GetClocksFreq+0x14c>)
 800574a:	69bb      	ldr	r3, [r7, #24]
 800574c:	4413      	add	r3, r2
 800574e:	781b      	ldrb	r3, [r3, #0]
 8005750:	b2db      	uxtb	r3, r3
 8005752:	617b      	str	r3, [r7, #20]
 8005754:	687b      	ldr	r3, [r7, #4]
 8005756:	685a      	ldr	r2, [r3, #4]
 8005758:	697b      	ldr	r3, [r7, #20]
 800575a:	40da      	lsrs	r2, r3
 800575c:	687b      	ldr	r3, [r7, #4]
 800575e:	609a      	str	r2, [r3, #8]
 8005760:	4b0c      	ldr	r3, [pc, #48]	; (8005794 <RCC_GetClocksFreq+0x140>)
 8005762:	689b      	ldr	r3, [r3, #8]
 8005764:	f403 4360 	and.w	r3, r3, #57344	; 0xe000
 8005768:	61bb      	str	r3, [r7, #24]
 800576a:	69bb      	ldr	r3, [r7, #24]
 800576c:	0b5b      	lsrs	r3, r3, #13
 800576e:	61bb      	str	r3, [r7, #24]
 8005770:	4a0b      	ldr	r2, [pc, #44]	; (80057a0 <RCC_GetClocksFreq+0x14c>)
 8005772:	69bb      	ldr	r3, [r7, #24]
 8005774:	4413      	add	r3, r2
 8005776:	781b      	ldrb	r3, [r3, #0]
 8005778:	b2db      	uxtb	r3, r3
 800577a:	617b      	str	r3, [r7, #20]
 800577c:	687b      	ldr	r3, [r7, #4]
 800577e:	685a      	ldr	r2, [r3, #4]
 8005780:	697b      	ldr	r3, [r7, #20]
 8005782:	40da      	lsrs	r2, r3
 8005784:	687b      	ldr	r3, [r7, #4]
 8005786:	60da      	str	r2, [r3, #12]
 8005788:	bf00      	nop
 800578a:	3724      	adds	r7, #36	; 0x24
 800578c:	46bd      	mov	sp, r7
 800578e:	f85d 7b04 	ldr.w	r7, [sp], #4
 8005792:	4770      	bx	lr
 8005794:	40023800 	.word	0x40023800
 8005798:	00f42400 	.word	0x00f42400
 800579c:	017d7840 	.word	0x017d7840
 80057a0:	20000028 	.word	0x20000028

080057a4 <RCC_AHB1PeriphClockCmd>:
 80057a4:	b480      	push	{r7}
 80057a6:	b083      	sub	sp, #12
 80057a8:	af00      	add	r7, sp, #0
 80057aa:	6078      	str	r0, [r7, #4]
 80057ac:	460b      	mov	r3, r1
 80057ae:	70fb      	strb	r3, [r7, #3]
 80057b0:	78fb      	ldrb	r3, [r7, #3]
 80057b2:	2b00      	cmp	r3, #0
 80057b4:	d006      	beq.n	80057c4 <RCC_AHB1PeriphClockCmd+0x20>
 80057b6:	4b0a      	ldr	r3, [pc, #40]	; (80057e0 <RCC_AHB1PeriphClockCmd+0x3c>)
 80057b8:	6b1a      	ldr	r2, [r3, #48]	; 0x30
 80057ba:	4909      	ldr	r1, [pc, #36]	; (80057e0 <RCC_AHB1PeriphClockCmd+0x3c>)
 80057bc:	687b      	ldr	r3, [r7, #4]
 80057be:	4313      	orrs	r3, r2
 80057c0:	630b      	str	r3, [r1, #48]	; 0x30
 80057c2:	e006      	b.n	80057d2 <RCC_AHB1PeriphClockCmd+0x2e>
 80057c4:	4b06      	ldr	r3, [pc, #24]	; (80057e0 <RCC_AHB1PeriphClockCmd+0x3c>)
 80057c6:	6b1a      	ldr	r2, [r3, #48]	; 0x30
 80057c8:	687b      	ldr	r3, [r7, #4]
 80057ca:	43db      	mvns	r3, r3
 80057cc:	4904      	ldr	r1, [pc, #16]	; (80057e0 <RCC_AHB1PeriphClockCmd+0x3c>)
 80057ce:	4013      	ands	r3, r2
 80057d0:	630b      	str	r3, [r1, #48]	; 0x30
 80057d2:	bf00      	nop
 80057d4:	370c      	adds	r7, #12
 80057d6:	46bd      	mov	sp, r7
 80057d8:	f85d 7b04 	ldr.w	r7, [sp], #4
 80057dc:	4770      	bx	lr
 80057de:	bf00      	nop
 80057e0:	40023800 	.word	0x40023800

080057e4 <RCC_APB1PeriphClockCmd>:
 80057e4:	b480      	push	{r7}
 80057e6:	b083      	sub	sp, #12
 80057e8:	af00      	add	r7, sp, #0
 80057ea:	6078      	str	r0, [r7, #4]
 80057ec:	460b      	mov	r3, r1
 80057ee:	70fb      	strb	r3, [r7, #3]
 80057f0:	78fb      	ldrb	r3, [r7, #3]
 80057f2:	2b00      	cmp	r3, #0
 80057f4:	d006      	beq.n	8005804 <RCC_APB1PeriphClockCmd+0x20>
 80057f6:	4b0a      	ldr	r3, [pc, #40]	; (8005820 <RCC_APB1PeriphClockCmd+0x3c>)
 80057f8:	6c1a      	ldr	r2, [r3, #64]	; 0x40
 80057fa:	4909      	ldr	r1, [pc, #36]	; (8005820 <RCC_APB1PeriphClockCmd+0x3c>)
 80057fc:	687b      	ldr	r3, [r7, #4]
 80057fe:	4313      	orrs	r3, r2
 8005800:	640b      	str	r3, [r1, #64]	; 0x40
 8005802:	e006      	b.n	8005812 <RCC_APB1PeriphClockCmd+0x2e>
 8005804:	4b06      	ldr	r3, [pc, #24]	; (8005820 <RCC_APB1PeriphClockCmd+0x3c>)
 8005806:	6c1a      	ldr	r2, [r3, #64]	; 0x40
 8005808:	687b      	ldr	r3, [r7, #4]
 800580a:	43db      	mvns	r3, r3
 800580c:	4904      	ldr	r1, [pc, #16]	; (8005820 <RCC_APB1PeriphClockCmd+0x3c>)
 800580e:	4013      	ands	r3, r2
 8005810:	640b      	str	r3, [r1, #64]	; 0x40
 8005812:	bf00      	nop
 8005814:	370c      	adds	r7, #12
 8005816:	46bd      	mov	sp, r7
 8005818:	f85d 7b04 	ldr.w	r7, [sp], #4
 800581c:	4770      	bx	lr
 800581e:	bf00      	nop
 8005820:	40023800 	.word	0x40023800

08005824 <RCC_APB2PeriphClockCmd>:
 8005824:	b480      	push	{r7}
 8005826:	b083      	sub	sp, #12
 8005828:	af00      	add	r7, sp, #0
 800582a:	6078      	str	r0, [r7, #4]
 800582c:	460b      	mov	r3, r1
 800582e:	70fb      	strb	r3, [r7, #3]
 8005830:	78fb      	ldrb	r3, [r7, #3]
 8005832:	2b00      	cmp	r3, #0
 8005834:	d006      	beq.n	8005844 <RCC_APB2PeriphClockCmd+0x20>
 8005836:	4b0a      	ldr	r3, [pc, #40]	; (8005860 <RCC_APB2PeriphClockCmd+0x3c>)
 8005838:	6c5a      	ldr	r2, [r3, #68]	; 0x44
 800583a:	4909      	ldr	r1, [pc, #36]	; (8005860 <RCC_APB2PeriphClockCmd+0x3c>)
 800583c:	687b      	ldr	r3, [r7, #4]
 800583e:	4313      	orrs	r3, r2
 8005840:	644b      	str	r3, [r1, #68]	; 0x44
 8005842:	e006      	b.n	8005852 <RCC_APB2PeriphClockCmd+0x2e>
 8005844:	4b06      	ldr	r3, [pc, #24]	; (8005860 <RCC_APB2PeriphClockCmd+0x3c>)
 8005846:	6c5a      	ldr	r2, [r3, #68]	; 0x44
 8005848:	687b      	ldr	r3, [r7, #4]
 800584a:	43db      	mvns	r3, r3
 800584c:	4904      	ldr	r1, [pc, #16]	; (8005860 <RCC_APB2PeriphClockCmd+0x3c>)
 800584e:	4013      	ands	r3, r2
 8005850:	644b      	str	r3, [r1, #68]	; 0x44
 8005852:	bf00      	nop
 8005854:	370c      	adds	r7, #12
 8005856:	46bd      	mov	sp, r7
 8005858:	f85d 7b04 	ldr.w	r7, [sp], #4
 800585c:	4770      	bx	lr
 800585e:	bf00      	nop
 8005860:	40023800 	.word	0x40023800

08005864 <RCC_APB2PeriphResetCmd>:
 8005864:	b480      	push	{r7}
 8005866:	b083      	sub	sp, #12
 8005868:	af00      	add	r7, sp, #0
 800586a:	6078      	str	r0, [r7, #4]
 800586c:	460b      	mov	r3, r1
 800586e:	70fb      	strb	r3, [r7, #3]
 8005870:	78fb      	ldrb	r3, [r7, #3]
 8005872:	2b00      	cmp	r3, #0
 8005874:	d006      	beq.n	8005884 <RCC_APB2PeriphResetCmd+0x20>
 8005876:	4b0a      	ldr	r3, [pc, #40]	; (80058a0 <RCC_APB2PeriphResetCmd+0x3c>)
 8005878:	6a5a      	ldr	r2, [r3, #36]	; 0x24
 800587a:	4909      	ldr	r1, [pc, #36]	; (80058a0 <RCC_APB2PeriphResetCmd+0x3c>)
 800587c:	687b      	ldr	r3, [r7, #4]
 800587e:	4313      	orrs	r3, r2
 8005880:	624b      	str	r3, [r1, #36]	; 0x24
 8005882:	e006      	b.n	8005892 <RCC_APB2PeriphResetCmd+0x2e>
 8005884:	4b06      	ldr	r3, [pc, #24]	; (80058a0 <RCC_APB2PeriphResetCmd+0x3c>)
 8005886:	6a5a      	ldr	r2, [r3, #36]	; 0x24
 8005888:	687b      	ldr	r3, [r7, #4]
 800588a:	43db      	mvns	r3, r3
 800588c:	4904      	ldr	r1, [pc, #16]	; (80058a0 <RCC_APB2PeriphResetCmd+0x3c>)
 800588e:	4013      	ands	r3, r2
 8005890:	624b      	str	r3, [r1, #36]	; 0x24
 8005892:	bf00      	nop
 8005894:	370c      	adds	r7, #12
 8005896:	46bd      	mov	sp, r7
 8005898:	f85d 7b04 	ldr.w	r7, [sp], #4
 800589c:	4770      	bx	lr
 800589e:	bf00      	nop
 80058a0:	40023800 	.word	0x40023800

080058a4 <TIM_TimeBaseInit>:
 80058a4:	b480      	push	{r7}
 80058a6:	b085      	sub	sp, #20
 80058a8:	af00      	add	r7, sp, #0
 80058aa:	6078      	str	r0, [r7, #4]
 80058ac:	6039      	str	r1, [r7, #0]
 80058ae:	2300      	movs	r3, #0
 80058b0:	81fb      	strh	r3, [r7, #14]
 80058b2:	687b      	ldr	r3, [r7, #4]
 80058b4:	881b      	ldrh	r3, [r3, #0]
 80058b6:	81fb      	strh	r3, [r7, #14]
 80058b8:	687b      	ldr	r3, [r7, #4]
 80058ba:	4a29      	ldr	r2, [pc, #164]	; (8005960 <TIM_TimeBaseInit+0xbc>)
 80058bc:	4293      	cmp	r3, r2
 80058be:	d013      	beq.n	80058e8 <TIM_TimeBaseInit+0x44>
 80058c0:	687b      	ldr	r3, [r7, #4]
 80058c2:	4a28      	ldr	r2, [pc, #160]	; (8005964 <TIM_TimeBaseInit+0xc0>)
 80058c4:	4293      	cmp	r3, r2
 80058c6:	d00f      	beq.n	80058e8 <TIM_TimeBaseInit+0x44>
 80058c8:	687b      	ldr	r3, [r7, #4]
 80058ca:	f1b3 4f80 	cmp.w	r3, #1073741824	; 0x40000000
 80058ce:	d00b      	beq.n	80058e8 <TIM_TimeBaseInit+0x44>
 80058d0:	687b      	ldr	r3, [r7, #4]
 80058d2:	4a25      	ldr	r2, [pc, #148]	; (8005968 <TIM_TimeBaseInit+0xc4>)
 80058d4:	4293      	cmp	r3, r2
 80058d6:	d007      	beq.n	80058e8 <TIM_TimeBaseInit+0x44>
 80058d8:	687b      	ldr	r3, [r7, #4]
 80058da:	4a24      	ldr	r2, [pc, #144]	; (800596c <TIM_TimeBaseInit+0xc8>)
 80058dc:	4293      	cmp	r3, r2
 80058de:	d003      	beq.n	80058e8 <TIM_TimeBaseInit+0x44>
 80058e0:	687b      	ldr	r3, [r7, #4]
 80058e2:	4a23      	ldr	r2, [pc, #140]	; (8005970 <TIM_TimeBaseInit+0xcc>)
 80058e4:	4293      	cmp	r3, r2
 80058e6:	d108      	bne.n	80058fa <TIM_TimeBaseInit+0x56>
 80058e8:	89fb      	ldrh	r3, [r7, #14]
 80058ea:	f023 0370 	bic.w	r3, r3, #112	; 0x70
 80058ee:	81fb      	strh	r3, [r7, #14]
 80058f0:	683b      	ldr	r3, [r7, #0]
 80058f2:	885a      	ldrh	r2, [r3, #2]
 80058f4:	89fb      	ldrh	r3, [r7, #14]
 80058f6:	4313      	orrs	r3, r2
 80058f8:	81fb      	strh	r3, [r7, #14]
 80058fa:	687b      	ldr	r3, [r7, #4]
 80058fc:	4a1d      	ldr	r2, [pc, #116]	; (8005974 <TIM_TimeBaseInit+0xd0>)
 80058fe:	4293      	cmp	r3, r2
 8005900:	d00c      	beq.n	800591c <TIM_TimeBaseInit+0x78>
 8005902:	687b      	ldr	r3, [r7, #4]
 8005904:	4a1c      	ldr	r2, [pc, #112]	; (8005978 <TIM_TimeBaseInit+0xd4>)
 8005906:	4293      	cmp	r3, r2
 8005908:	d008      	beq.n	800591c <TIM_TimeBaseInit+0x78>
 800590a:	89fb      	ldrh	r3, [r7, #14]
 800590c:	f423 7340 	bic.w	r3, r3, #768	; 0x300
 8005910:	81fb      	strh	r3, [r7, #14]
 8005912:	683b      	ldr	r3, [r7, #0]
 8005914:	891a      	ldrh	r2, [r3, #8]
 8005916:	89fb      	ldrh	r3, [r7, #14]
 8005918:	4313      	orrs	r3, r2
 800591a:	81fb      	strh	r3, [r7, #14]
 800591c:	687b      	ldr	r3, [r7, #4]
 800591e:	89fa      	ldrh	r2, [r7, #14]
 8005920:	801a      	strh	r2, [r3, #0]
 8005922:	683b      	ldr	r3, [r7, #0]
 8005924:	685a      	ldr	r2, [r3, #4]
 8005926:	687b      	ldr	r3, [r7, #4]
 8005928:	62da      	str	r2, [r3, #44]	; 0x2c
 800592a:	683b      	ldr	r3, [r7, #0]
 800592c:	881a      	ldrh	r2, [r3, #0]
 800592e:	687b      	ldr	r3, [r7, #4]
 8005930:	851a      	strh	r2, [r3, #40]	; 0x28
 8005932:	687b      	ldr	r3, [r7, #4]
 8005934:	4a0a      	ldr	r2, [pc, #40]	; (8005960 <TIM_TimeBaseInit+0xbc>)
 8005936:	4293      	cmp	r3, r2
 8005938:	d003      	beq.n	8005942 <TIM_TimeBaseInit+0x9e>
 800593a:	687b      	ldr	r3, [r7, #4]
 800593c:	4a09      	ldr	r2, [pc, #36]	; (8005964 <TIM_TimeBaseInit+0xc0>)
 800593e:	4293      	cmp	r3, r2
 8005940:	d104      	bne.n	800594c <TIM_TimeBaseInit+0xa8>
 8005942:	683b      	ldr	r3, [r7, #0]
 8005944:	7a9b      	ldrb	r3, [r3, #10]
 8005946:	b29a      	uxth	r2, r3
 8005948:	687b      	ldr	r3, [r7, #4]
 800594a:	861a      	strh	r2, [r3, #48]	; 0x30
 800594c:	687b      	ldr	r3, [r7, #4]
 800594e:	2201      	movs	r2, #1
 8005950:	829a      	strh	r2, [r3, #20]
 8005952:	bf00      	nop
 8005954:	3714      	adds	r7, #20
 8005956:	46bd      	mov	sp, r7
 8005958:	f85d 7b04 	ldr.w	r7, [sp], #4
 800595c:	4770      	bx	lr
 800595e:	bf00      	nop
 8005960:	40010000 	.word	0x40010000
 8005964:	40010400 	.word	0x40010400
 8005968:	40000400 	.word	0x40000400
 800596c:	40000800 	.word	0x40000800
 8005970:	40000c00 	.word	0x40000c00
 8005974:	40001000 	.word	0x40001000
 8005978:	40001400 	.word	0x40001400

0800597c <TIM_Cmd>:
 800597c:	b480      	push	{r7}
 800597e:	b083      	sub	sp, #12
 8005980:	af00      	add	r7, sp, #0
 8005982:	6078      	str	r0, [r7, #4]
 8005984:	460b      	mov	r3, r1
 8005986:	70fb      	strb	r3, [r7, #3]
 8005988:	78fb      	ldrb	r3, [r7, #3]
 800598a:	2b00      	cmp	r3, #0
 800598c:	d008      	beq.n	80059a0 <TIM_Cmd+0x24>
 800598e:	687b      	ldr	r3, [r7, #4]
 8005990:	881b      	ldrh	r3, [r3, #0]
 8005992:	b29b      	uxth	r3, r3
 8005994:	f043 0301 	orr.w	r3, r3, #1
 8005998:	b29a      	uxth	r2, r3
 800599a:	687b      	ldr	r3, [r7, #4]
 800599c:	801a      	strh	r2, [r3, #0]
 800599e:	e007      	b.n	80059b0 <TIM_Cmd+0x34>
 80059a0:	687b      	ldr	r3, [r7, #4]
 80059a2:	881b      	ldrh	r3, [r3, #0]
 80059a4:	b29b      	uxth	r3, r3
 80059a6:	f023 0301 	bic.w	r3, r3, #1
 80059aa:	b29a      	uxth	r2, r3
 80059ac:	687b      	ldr	r3, [r7, #4]
 80059ae:	801a      	strh	r2, [r3, #0]
 80059b0:	bf00      	nop
 80059b2:	370c      	adds	r7, #12
 80059b4:	46bd      	mov	sp, r7
 80059b6:	f85d 7b04 	ldr.w	r7, [sp], #4
 80059ba:	4770      	bx	lr

080059bc <TIM_OC1Init>:
 80059bc:	b480      	push	{r7}
 80059be:	b085      	sub	sp, #20
 80059c0:	af00      	add	r7, sp, #0
 80059c2:	6078      	str	r0, [r7, #4]
 80059c4:	6039      	str	r1, [r7, #0]
 80059c6:	2300      	movs	r3, #0
 80059c8:	817b      	strh	r3, [r7, #10]
 80059ca:	2300      	movs	r3, #0
 80059cc:	81fb      	strh	r3, [r7, #14]
 80059ce:	2300      	movs	r3, #0
 80059d0:	81bb      	strh	r3, [r7, #12]
 80059d2:	687b      	ldr	r3, [r7, #4]
 80059d4:	8c1b      	ldrh	r3, [r3, #32]
 80059d6:	b29b      	uxth	r3, r3
 80059d8:	f023 0301 	bic.w	r3, r3, #1
 80059dc:	b29a      	uxth	r2, r3
 80059de:	687b      	ldr	r3, [r7, #4]
 80059e0:	841a      	strh	r2, [r3, #32]
 80059e2:	687b      	ldr	r3, [r7, #4]
 80059e4:	8c1b      	ldrh	r3, [r3, #32]
 80059e6:	81fb      	strh	r3, [r7, #14]
 80059e8:	687b      	ldr	r3, [r7, #4]
 80059ea:	889b      	ldrh	r3, [r3, #4]
 80059ec:	81bb      	strh	r3, [r7, #12]
 80059ee:	687b      	ldr	r3, [r7, #4]
 80059f0:	8b1b      	ldrh	r3, [r3, #24]
 80059f2:	817b      	strh	r3, [r7, #10]
 80059f4:	897b      	ldrh	r3, [r7, #10]
 80059f6:	f023 0370 	bic.w	r3, r3, #112	; 0x70
 80059fa:	817b      	strh	r3, [r7, #10]
 80059fc:	897b      	ldrh	r3, [r7, #10]
 80059fe:	f023 0303 	bic.w	r3, r3, #3
 8005a02:	817b      	strh	r3, [r7, #10]
 8005a04:	683b      	ldr	r3, [r7, #0]
 8005a06:	881a      	ldrh	r2, [r3, #0]
 8005a08:	897b      	ldrh	r3, [r7, #10]
 8005a0a:	4313      	orrs	r3, r2
 8005a0c:	817b      	strh	r3, [r7, #10]
 8005a0e:	89fb      	ldrh	r3, [r7, #14]
 8005a10:	f023 0302 	bic.w	r3, r3, #2
 8005a14:	81fb      	strh	r3, [r7, #14]
 8005a16:	683b      	ldr	r3, [r7, #0]
 8005a18:	899a      	ldrh	r2, [r3, #12]
 8005a1a:	89fb      	ldrh	r3, [r7, #14]
 8005a1c:	4313      	orrs	r3, r2
 8005a1e:	81fb      	strh	r3, [r7, #14]
 8005a20:	683b      	ldr	r3, [r7, #0]
 8005a22:	885a      	ldrh	r2, [r3, #2]
 8005a24:	89fb      	ldrh	r3, [r7, #14]
 8005a26:	4313      	orrs	r3, r2
 8005a28:	81fb      	strh	r3, [r7, #14]
 8005a2a:	687b      	ldr	r3, [r7, #4]
 8005a2c:	4a1e      	ldr	r2, [pc, #120]	; (8005aa8 <TIM_OC1Init+0xec>)
 8005a2e:	4293      	cmp	r3, r2
 8005a30:	d003      	beq.n	8005a3a <TIM_OC1Init+0x7e>
 8005a32:	687b      	ldr	r3, [r7, #4]
 8005a34:	4a1d      	ldr	r2, [pc, #116]	; (8005aac <TIM_OC1Init+0xf0>)
 8005a36:	4293      	cmp	r3, r2
 8005a38:	d123      	bne.n	8005a82 <TIM_OC1Init+0xc6>
 8005a3a:	89fb      	ldrh	r3, [r7, #14]
 8005a3c:	f023 0308 	bic.w	r3, r3, #8
 8005a40:	81fb      	strh	r3, [r7, #14]
 8005a42:	683b      	ldr	r3, [r7, #0]
 8005a44:	89da      	ldrh	r2, [r3, #14]
 8005a46:	89fb      	ldrh	r3, [r7, #14]
 8005a48:	4313      	orrs	r3, r2
 8005a4a:	81fb      	strh	r3, [r7, #14]
 8005a4c:	89fb      	ldrh	r3, [r7, #14]
 8005a4e:	f023 0304 	bic.w	r3, r3, #4
 8005a52:	81fb      	strh	r3, [r7, #14]
 8005a54:	683b      	ldr	r3, [r7, #0]
 8005a56:	889a      	ldrh	r2, [r3, #4]
 8005a58:	89fb      	ldrh	r3, [r7, #14]
 8005a5a:	4313      	orrs	r3, r2
 8005a5c:	81fb      	strh	r3, [r7, #14]
 8005a5e:	89bb      	ldrh	r3, [r7, #12]
 8005a60:	f423 7380 	bic.w	r3, r3, #256	; 0x100
 8005a64:	81bb      	strh	r3, [r7, #12]
 8005a66:	89bb      	ldrh	r3, [r7, #12]
 8005a68:	f423 7300 	bic.w	r3, r3, #512	; 0x200
 8005a6c:	81bb      	strh	r3, [r7, #12]
 8005a6e:	683b      	ldr	r3, [r7, #0]
 8005a70:	8a1a      	ldrh	r2, [r3, #16]
 8005a72:	89bb      	ldrh	r3, [r7, #12]
 8005a74:	4313      	orrs	r3, r2
 8005a76:	81bb      	strh	r3, [r7, #12]
 8005a78:	683b      	ldr	r3, [r7, #0]
 8005a7a:	8a5a      	ldrh	r2, [r3, #18]
 8005a7c:	89bb      	ldrh	r3, [r7, #12]
 8005a7e:	4313      	orrs	r3, r2
 8005a80:	81bb      	strh	r3, [r7, #12]
 8005a82:	687b      	ldr	r3, [r7, #4]
 8005a84:	89ba      	ldrh	r2, [r7, #12]
 8005a86:	809a      	strh	r2, [r3, #4]
 8005a88:	687b      	ldr	r3, [r7, #4]
 8005a8a:	897a      	ldrh	r2, [r7, #10]
 8005a8c:	831a      	strh	r2, [r3, #24]
 8005a8e:	683b      	ldr	r3, [r7, #0]
 8005a90:	689a      	ldr	r2, [r3, #8]
 8005a92:	687b      	ldr	r3, [r7, #4]
 8005a94:	635a      	str	r2, [r3, #52]	; 0x34
 8005a96:	687b      	ldr	r3, [r7, #4]
 8005a98:	89fa      	ldrh	r2, [r7, #14]
 8005a9a:	841a      	strh	r2, [r3, #32]
 8005a9c:	bf00      	nop
 8005a9e:	3714      	adds	r7, #20
 8005aa0:	46bd      	mov	sp, r7
 8005aa2:	f85d 7b04 	ldr.w	r7, [sp], #4
 8005aa6:	4770      	bx	lr
 8005aa8:	40010000 	.word	0x40010000
 8005aac:	40010400 	.word	0x40010400

08005ab0 <TIM_OC2Init>:
 8005ab0:	b480      	push	{r7}
 8005ab2:	b085      	sub	sp, #20
 8005ab4:	af00      	add	r7, sp, #0
 8005ab6:	6078      	str	r0, [r7, #4]
 8005ab8:	6039      	str	r1, [r7, #0]
 8005aba:	2300      	movs	r3, #0
 8005abc:	817b      	strh	r3, [r7, #10]
 8005abe:	2300      	movs	r3, #0
 8005ac0:	81fb      	strh	r3, [r7, #14]
 8005ac2:	2300      	movs	r3, #0
 8005ac4:	81bb      	strh	r3, [r7, #12]
 8005ac6:	687b      	ldr	r3, [r7, #4]
 8005ac8:	8c1b      	ldrh	r3, [r3, #32]
 8005aca:	b29b      	uxth	r3, r3
 8005acc:	f023 0310 	bic.w	r3, r3, #16
 8005ad0:	b29a      	uxth	r2, r3
 8005ad2:	687b      	ldr	r3, [r7, #4]
 8005ad4:	841a      	strh	r2, [r3, #32]
 8005ad6:	687b      	ldr	r3, [r7, #4]
 8005ad8:	8c1b      	ldrh	r3, [r3, #32]
 8005ada:	81fb      	strh	r3, [r7, #14]
 8005adc:	687b      	ldr	r3, [r7, #4]
 8005ade:	889b      	ldrh	r3, [r3, #4]
 8005ae0:	81bb      	strh	r3, [r7, #12]
 8005ae2:	687b      	ldr	r3, [r7, #4]
 8005ae4:	8b1b      	ldrh	r3, [r3, #24]
 8005ae6:	817b      	strh	r3, [r7, #10]
 8005ae8:	897b      	ldrh	r3, [r7, #10]
 8005aea:	f423 43e0 	bic.w	r3, r3, #28672	; 0x7000
 8005aee:	817b      	strh	r3, [r7, #10]
 8005af0:	897b      	ldrh	r3, [r7, #10]
 8005af2:	f423 7340 	bic.w	r3, r3, #768	; 0x300
 8005af6:	817b      	strh	r3, [r7, #10]
 8005af8:	683b      	ldr	r3, [r7, #0]
 8005afa:	881b      	ldrh	r3, [r3, #0]
 8005afc:	021b      	lsls	r3, r3, #8
 8005afe:	b29a      	uxth	r2, r3
 8005b00:	897b      	ldrh	r3, [r7, #10]
 8005b02:	4313      	orrs	r3, r2
 8005b04:	817b      	strh	r3, [r7, #10]
 8005b06:	89fb      	ldrh	r3, [r7, #14]
 8005b08:	f023 0320 	bic.w	r3, r3, #32
 8005b0c:	81fb      	strh	r3, [r7, #14]
 8005b0e:	683b      	ldr	r3, [r7, #0]
 8005b10:	899b      	ldrh	r3, [r3, #12]
 8005b12:	011b      	lsls	r3, r3, #4
 8005b14:	b29a      	uxth	r2, r3
 8005b16:	89fb      	ldrh	r3, [r7, #14]
 8005b18:	4313      	orrs	r3, r2
 8005b1a:	81fb      	strh	r3, [r7, #14]
 8005b1c:	683b      	ldr	r3, [r7, #0]
 8005b1e:	885b      	ldrh	r3, [r3, #2]
 8005b20:	011b      	lsls	r3, r3, #4
 8005b22:	b29a      	uxth	r2, r3
 8005b24:	89fb      	ldrh	r3, [r7, #14]
 8005b26:	4313      	orrs	r3, r2
 8005b28:	81fb      	strh	r3, [r7, #14]
 8005b2a:	687b      	ldr	r3, [r7, #4]
 8005b2c:	4a22      	ldr	r2, [pc, #136]	; (8005bb8 <TIM_OC2Init+0x108>)
 8005b2e:	4293      	cmp	r3, r2
 8005b30:	d003      	beq.n	8005b3a <TIM_OC2Init+0x8a>
 8005b32:	687b      	ldr	r3, [r7, #4]
 8005b34:	4a21      	ldr	r2, [pc, #132]	; (8005bbc <TIM_OC2Init+0x10c>)
 8005b36:	4293      	cmp	r3, r2
 8005b38:	d12b      	bne.n	8005b92 <TIM_OC2Init+0xe2>
 8005b3a:	89fb      	ldrh	r3, [r7, #14]
 8005b3c:	f023 0380 	bic.w	r3, r3, #128	; 0x80
 8005b40:	81fb      	strh	r3, [r7, #14]
 8005b42:	683b      	ldr	r3, [r7, #0]
 8005b44:	89db      	ldrh	r3, [r3, #14]
 8005b46:	011b      	lsls	r3, r3, #4
 8005b48:	b29a      	uxth	r2, r3
 8005b4a:	89fb      	ldrh	r3, [r7, #14]
 8005b4c:	4313      	orrs	r3, r2
 8005b4e:	81fb      	strh	r3, [r7, #14]
 8005b50:	89fb      	ldrh	r3, [r7, #14]
 8005b52:	f023 0340 	bic.w	r3, r3, #64	; 0x40
 8005b56:	81fb      	strh	r3, [r7, #14]
 8005b58:	683b      	ldr	r3, [r7, #0]
 8005b5a:	889b      	ldrh	r3, [r3, #4]
 8005b5c:	011b      	lsls	r3, r3, #4
 8005b5e:	b29a      	uxth	r2, r3
 8005b60:	89fb      	ldrh	r3, [r7, #14]
 8005b62:	4313      	orrs	r3, r2
 8005b64:	81fb      	strh	r3, [r7, #14]
 8005b66:	89bb      	ldrh	r3, [r7, #12]
 8005b68:	f423 6380 	bic.w	r3, r3, #1024	; 0x400
 8005b6c:	81bb      	strh	r3, [r7, #12]
 8005b6e:	89bb      	ldrh	r3, [r7, #12]
 8005b70:	f423 6300 	bic.w	r3, r3, #2048	; 0x800
 8005b74:	81bb      	strh	r3, [r7, #12]
 8005b76:	683b      	ldr	r3, [r7, #0]
 8005b78:	8a1b      	ldrh	r3, [r3, #16]
 8005b7a:	009b      	lsls	r3, r3, #2
 8005b7c:	b29a      	uxth	r2, r3
 8005b7e:	89bb      	ldrh	r3, [r7, #12]
 8005b80:	4313      	orrs	r3, r2
 8005b82:	81bb      	strh	r3, [r7, #12]
 8005b84:	683b      	ldr	r3, [r7, #0]
 8005b86:	8a5b      	ldrh	r3, [r3, #18]
 8005b88:	009b      	lsls	r3, r3, #2
 8005b8a:	b29a      	uxth	r2, r3
 8005b8c:	89bb      	ldrh	r3, [r7, #12]
 8005b8e:	4313      	orrs	r3, r2
 8005b90:	81bb      	strh	r3, [r7, #12]
 8005b92:	687b      	ldr	r3, [r7, #4]
 8005b94:	89ba      	ldrh	r2, [r7, #12]
 8005b96:	809a      	strh	r2, [r3, #4]
 8005b98:	687b      	ldr	r3, [r7, #4]
 8005b9a:	897a      	ldrh	r2, [r7, #10]
 8005b9c:	831a      	strh	r2, [r3, #24]
 8005b9e:	683b      	ldr	r3, [r7, #0]
 8005ba0:	689a      	ldr	r2, [r3, #8]
 8005ba2:	687b      	ldr	r3, [r7, #4]
 8005ba4:	639a      	str	r2, [r3, #56]	; 0x38
 8005ba6:	687b      	ldr	r3, [r7, #4]
 8005ba8:	89fa      	ldrh	r2, [r7, #14]
 8005baa:	841a      	strh	r2, [r3, #32]
 8005bac:	bf00      	nop
 8005bae:	3714      	adds	r7, #20
 8005bb0:	46bd      	mov	sp, r7
 8005bb2:	f85d 7b04 	ldr.w	r7, [sp], #4
 8005bb6:	4770      	bx	lr
 8005bb8:	40010000 	.word	0x40010000
 8005bbc:	40010400 	.word	0x40010400

08005bc0 <TIM_OC3Init>:
 8005bc0:	b480      	push	{r7}
 8005bc2:	b085      	sub	sp, #20
 8005bc4:	af00      	add	r7, sp, #0
 8005bc6:	6078      	str	r0, [r7, #4]
 8005bc8:	6039      	str	r1, [r7, #0]
 8005bca:	2300      	movs	r3, #0
 8005bcc:	817b      	strh	r3, [r7, #10]
 8005bce:	2300      	movs	r3, #0
 8005bd0:	81fb      	strh	r3, [r7, #14]
 8005bd2:	2300      	movs	r3, #0
 8005bd4:	81bb      	strh	r3, [r7, #12]
 8005bd6:	687b      	ldr	r3, [r7, #4]
 8005bd8:	8c1b      	ldrh	r3, [r3, #32]
 8005bda:	b29b      	uxth	r3, r3
 8005bdc:	f423 7380 	bic.w	r3, r3, #256	; 0x100
 8005be0:	b29a      	uxth	r2, r3
 8005be2:	687b      	ldr	r3, [r7, #4]
 8005be4:	841a      	strh	r2, [r3, #32]
 8005be6:	687b      	ldr	r3, [r7, #4]
 8005be8:	8c1b      	ldrh	r3, [r3, #32]
 8005bea:	81fb      	strh	r3, [r7, #14]
 8005bec:	687b      	ldr	r3, [r7, #4]
 8005bee:	889b      	ldrh	r3, [r3, #4]
 8005bf0:	81bb      	strh	r3, [r7, #12]
 8005bf2:	687b      	ldr	r3, [r7, #4]
 8005bf4:	8b9b      	ldrh	r3, [r3, #28]
 8005bf6:	817b      	strh	r3, [r7, #10]
 8005bf8:	897b      	ldrh	r3, [r7, #10]
 8005bfa:	f023 0370 	bic.w	r3, r3, #112	; 0x70
 8005bfe:	817b      	strh	r3, [r7, #10]
 8005c00:	897b      	ldrh	r3, [r7, #10]
 8005c02:	f023 0303 	bic.w	r3, r3, #3
 8005c06:	817b      	strh	r3, [r7, #10]
 8005c08:	683b      	ldr	r3, [r7, #0]
 8005c0a:	881a      	ldrh	r2, [r3, #0]
 8005c0c:	897b      	ldrh	r3, [r7, #10]
 8005c0e:	4313      	orrs	r3, r2
 8005c10:	817b      	strh	r3, [r7, #10]
 8005c12:	89fb      	ldrh	r3, [r7, #14]
 8005c14:	f423 7300 	bic.w	r3, r3, #512	; 0x200
 8005c18:	81fb      	strh	r3, [r7, #14]
 8005c1a:	683b      	ldr	r3, [r7, #0]
 8005c1c:	899b      	ldrh	r3, [r3, #12]
 8005c1e:	021b      	lsls	r3, r3, #8
 8005c20:	b29a      	uxth	r2, r3
 8005c22:	89fb      	ldrh	r3, [r7, #14]
 8005c24:	4313      	orrs	r3, r2
 8005c26:	81fb      	strh	r3, [r7, #14]
 8005c28:	683b      	ldr	r3, [r7, #0]
 8005c2a:	885b      	ldrh	r3, [r3, #2]
 8005c2c:	021b      	lsls	r3, r3, #8
 8005c2e:	b29a      	uxth	r2, r3
 8005c30:	89fb      	ldrh	r3, [r7, #14]
 8005c32:	4313      	orrs	r3, r2
 8005c34:	81fb      	strh	r3, [r7, #14]
 8005c36:	687b      	ldr	r3, [r7, #4]
 8005c38:	4a22      	ldr	r2, [pc, #136]	; (8005cc4 <TIM_OC3Init+0x104>)
 8005c3a:	4293      	cmp	r3, r2
 8005c3c:	d003      	beq.n	8005c46 <TIM_OC3Init+0x86>
 8005c3e:	687b      	ldr	r3, [r7, #4]
 8005c40:	4a21      	ldr	r2, [pc, #132]	; (8005cc8 <TIM_OC3Init+0x108>)
 8005c42:	4293      	cmp	r3, r2
 8005c44:	d12b      	bne.n	8005c9e <TIM_OC3Init+0xde>
 8005c46:	89fb      	ldrh	r3, [r7, #14]
 8005c48:	f423 6300 	bic.w	r3, r3, #2048	; 0x800
 8005c4c:	81fb      	strh	r3, [r7, #14]
 8005c4e:	683b      	ldr	r3, [r7, #0]
 8005c50:	89db      	ldrh	r3, [r3, #14]
 8005c52:	021b      	lsls	r3, r3, #8
 8005c54:	b29a      	uxth	r2, r3
 8005c56:	89fb      	ldrh	r3, [r7, #14]
 8005c58:	4313      	orrs	r3, r2
 8005c5a:	81fb      	strh	r3, [r7, #14]
 8005c5c:	89fb      	ldrh	r3, [r7, #14]
 8005c5e:	f423 6380 	bic.w	r3, r3, #1024	; 0x400
 8005c62:	81fb      	strh	r3, [r7, #14]
 8005c64:	683b      	ldr	r3, [r7, #0]
 8005c66:	889b      	ldrh	r3, [r3, #4]
 8005c68:	021b      	lsls	r3, r3, #8
 8005c6a:	b29a      	uxth	r2, r3
 8005c6c:	89fb      	ldrh	r3, [r7, #14]
 8005c6e:	4313      	orrs	r3, r2
 8005c70:	81fb      	strh	r3, [r7, #14]
 8005c72:	89bb      	ldrh	r3, [r7, #12]
 8005c74:	f423 5380 	bic.w	r3, r3, #4096	; 0x1000
 8005c78:	81bb      	strh	r3, [r7, #12]
 8005c7a:	89bb      	ldrh	r3, [r7, #12]
 8005c7c:	f423 5300 	bic.w	r3, r3, #8192	; 0x2000
 8005c80:	81bb      	strh	r3, [r7, #12]
 8005c82:	683b      	ldr	r3, [r7, #0]
 8005c84:	8a1b      	ldrh	r3, [r3, #16]
 8005c86:	011b      	lsls	r3, r3, #4
 8005c88:	b29a      	uxth	r2, r3
 8005c8a:	89bb      	ldrh	r3, [r7, #12]
 8005c8c:	4313      	orrs	r3, r2
 8005c8e:	81bb      	strh	r3, [r7, #12]
 8005c90:	683b      	ldr	r3, [r7, #0]
 8005c92:	8a5b      	ldrh	r3, [r3, #18]
 8005c94:	011b      	lsls	r3, r3, #4
 8005c96:	b29a      	uxth	r2, r3
 8005c98:	89bb      	ldrh	r3, [r7, #12]
 8005c9a:	4313      	orrs	r3, r2
 8005c9c:	81bb      	strh	r3, [r7, #12]
 8005c9e:	687b      	ldr	r3, [r7, #4]
 8005ca0:	89ba      	ldrh	r2, [r7, #12]
 8005ca2:	809a      	strh	r2, [r3, #4]
 8005ca4:	687b      	ldr	r3, [r7, #4]
 8005ca6:	897a      	ldrh	r2, [r7, #10]
 8005ca8:	839a      	strh	r2, [r3, #28]
 8005caa:	683b      	ldr	r3, [r7, #0]
 8005cac:	689a      	ldr	r2, [r3, #8]
 8005cae:	687b      	ldr	r3, [r7, #4]
 8005cb0:	63da      	str	r2, [r3, #60]	; 0x3c
 8005cb2:	687b      	ldr	r3, [r7, #4]
 8005cb4:	89fa      	ldrh	r2, [r7, #14]
 8005cb6:	841a      	strh	r2, [r3, #32]
 8005cb8:	bf00      	nop
 8005cba:	3714      	adds	r7, #20
 8005cbc:	46bd      	mov	sp, r7
 8005cbe:	f85d 7b04 	ldr.w	r7, [sp], #4
 8005cc2:	4770      	bx	lr
 8005cc4:	40010000 	.word	0x40010000
 8005cc8:	40010400 	.word	0x40010400

08005ccc <TIM_OC4Init>:
 8005ccc:	b480      	push	{r7}
 8005cce:	b085      	sub	sp, #20
 8005cd0:	af00      	add	r7, sp, #0
 8005cd2:	6078      	str	r0, [r7, #4]
 8005cd4:	6039      	str	r1, [r7, #0]
 8005cd6:	2300      	movs	r3, #0
 8005cd8:	81bb      	strh	r3, [r7, #12]
 8005cda:	2300      	movs	r3, #0
 8005cdc:	817b      	strh	r3, [r7, #10]
 8005cde:	2300      	movs	r3, #0
 8005ce0:	81fb      	strh	r3, [r7, #14]
 8005ce2:	687b      	ldr	r3, [r7, #4]
 8005ce4:	8c1b      	ldrh	r3, [r3, #32]
 8005ce6:	b29b      	uxth	r3, r3
 8005ce8:	f423 5380 	bic.w	r3, r3, #4096	; 0x1000
 8005cec:	b29a      	uxth	r2, r3
 8005cee:	687b      	ldr	r3, [r7, #4]
 8005cf0:	841a      	strh	r2, [r3, #32]
 8005cf2:	687b      	ldr	r3, [r7, #4]
 8005cf4:	8c1b      	ldrh	r3, [r3, #32]
 8005cf6:	817b      	strh	r3, [r7, #10]
 8005cf8:	687b      	ldr	r3, [r7, #4]
 8005cfa:	889b      	ldrh	r3, [r3, #4]
 8005cfc:	81fb      	strh	r3, [r7, #14]
 8005cfe:	687b      	ldr	r3, [r7, #4]
 8005d00:	8b9b      	ldrh	r3, [r3, #28]
 8005d02:	81bb      	strh	r3, [r7, #12]
 8005d04:	89bb      	ldrh	r3, [r7, #12]
 8005d06:	f423 43e0 	bic.w	r3, r3, #28672	; 0x7000
 8005d0a:	81bb      	strh	r3, [r7, #12]
 8005d0c:	89bb      	ldrh	r3, [r7, #12]
 8005d0e:	f423 7340 	bic.w	r3, r3, #768	; 0x300
 8005d12:	81bb      	strh	r3, [r7, #12]
 8005d14:	683b      	ldr	r3, [r7, #0]
 8005d16:	881b      	ldrh	r3, [r3, #0]
 8005d18:	021b      	lsls	r3, r3, #8
 8005d1a:	b29a      	uxth	r2, r3
 8005d1c:	89bb      	ldrh	r3, [r7, #12]
 8005d1e:	4313      	orrs	r3, r2
 8005d20:	81bb      	strh	r3, [r7, #12]
 8005d22:	897b      	ldrh	r3, [r7, #10]
 8005d24:	f423 5300 	bic.w	r3, r3, #8192	; 0x2000
 8005d28:	817b      	strh	r3, [r7, #10]
 8005d2a:	683b      	ldr	r3, [r7, #0]
 8005d2c:	899b      	ldrh	r3, [r3, #12]
 8005d2e:	031b      	lsls	r3, r3, #12
 8005d30:	b29a      	uxth	r2, r3
 8005d32:	897b      	ldrh	r3, [r7, #10]
 8005d34:	4313      	orrs	r3, r2
 8005d36:	817b      	strh	r3, [r7, #10]
 8005d38:	683b      	ldr	r3, [r7, #0]
 8005d3a:	885b      	ldrh	r3, [r3, #2]
 8005d3c:	031b      	lsls	r3, r3, #12
 8005d3e:	b29a      	uxth	r2, r3
 8005d40:	897b      	ldrh	r3, [r7, #10]
 8005d42:	4313      	orrs	r3, r2
 8005d44:	817b      	strh	r3, [r7, #10]
 8005d46:	687b      	ldr	r3, [r7, #4]
 8005d48:	4a12      	ldr	r2, [pc, #72]	; (8005d94 <TIM_OC4Init+0xc8>)
 8005d4a:	4293      	cmp	r3, r2
 8005d4c:	d003      	beq.n	8005d56 <TIM_OC4Init+0x8a>
 8005d4e:	687b      	ldr	r3, [r7, #4]
 8005d50:	4a11      	ldr	r2, [pc, #68]	; (8005d98 <TIM_OC4Init+0xcc>)
 8005d52:	4293      	cmp	r3, r2
 8005d54:	d10a      	bne.n	8005d6c <TIM_OC4Init+0xa0>
 8005d56:	89fb      	ldrh	r3, [r7, #14]
 8005d58:	f423 4380 	bic.w	r3, r3, #16384	; 0x4000
 8005d5c:	81fb      	strh	r3, [r7, #14]
 8005d5e:	683b      	ldr	r3, [r7, #0]
 8005d60:	8a1b      	ldrh	r3, [r3, #16]
 8005d62:	019b      	lsls	r3, r3, #6
 8005d64:	b29a      	uxth	r2, r3
 8005d66:	89fb      	ldrh	r3, [r7, #14]
 8005d68:	4313      	orrs	r3, r2
 8005d6a:	81fb      	strh	r3, [r7, #14]
 8005d6c:	687b      	ldr	r3, [r7, #4]
 8005d6e:	89fa      	ldrh	r2, [r7, #14]
 8005d70:	809a      	strh	r2, [r3, #4]
 8005d72:	687b      	ldr	r3, [r7, #4]
 8005d74:	89ba      	ldrh	r2, [r7, #12]
 8005d76:	839a      	strh	r2, [r3, #28]
 8005d78:	683b      	ldr	r3, [r7, #0]
 8005d7a:	689a      	ldr	r2, [r3, #8]
 8005d7c:	687b      	ldr	r3, [r7, #4]
 8005d7e:	641a      	str	r2, [r3, #64]	; 0x40
 8005d80:	687b      	ldr	r3, [r7, #4]
 8005d82:	897a      	ldrh	r2, [r7, #10]
 8005d84:	841a      	strh	r2, [r3, #32]
 8005d86:	bf00      	nop
 8005d88:	3714      	adds	r7, #20
 8005d8a:	46bd      	mov	sp, r7
 8005d8c:	f85d 7b04 	ldr.w	r7, [sp], #4
 8005d90:	4770      	bx	lr
 8005d92:	bf00      	nop
 8005d94:	40010000 	.word	0x40010000
 8005d98:	40010400 	.word	0x40010400

08005d9c <TIM_SetCompare1>:
 8005d9c:	b480      	push	{r7}
 8005d9e:	b083      	sub	sp, #12
 8005da0:	af00      	add	r7, sp, #0
 8005da2:	6078      	str	r0, [r7, #4]
 8005da4:	6039      	str	r1, [r7, #0]
 8005da6:	687b      	ldr	r3, [r7, #4]
 8005da8:	683a      	ldr	r2, [r7, #0]
 8005daa:	635a      	str	r2, [r3, #52]	; 0x34
 8005dac:	bf00      	nop
 8005dae:	370c      	adds	r7, #12
 8005db0:	46bd      	mov	sp, r7
 8005db2:	f85d 7b04 	ldr.w	r7, [sp], #4
 8005db6:	4770      	bx	lr

08005db8 <TIM_SetCompare2>:
 8005db8:	b480      	push	{r7}
 8005dba:	b083      	sub	sp, #12
 8005dbc:	af00      	add	r7, sp, #0
 8005dbe:	6078      	str	r0, [r7, #4]
 8005dc0:	6039      	str	r1, [r7, #0]
 8005dc2:	687b      	ldr	r3, [r7, #4]
 8005dc4:	683a      	ldr	r2, [r7, #0]
 8005dc6:	639a      	str	r2, [r3, #56]	; 0x38
 8005dc8:	bf00      	nop
 8005dca:	370c      	adds	r7, #12
 8005dcc:	46bd      	mov	sp, r7
 8005dce:	f85d 7b04 	ldr.w	r7, [sp], #4
 8005dd2:	4770      	bx	lr

08005dd4 <TIM_SetCompare3>:
 8005dd4:	b480      	push	{r7}
 8005dd6:	b083      	sub	sp, #12
 8005dd8:	af00      	add	r7, sp, #0
 8005dda:	6078      	str	r0, [r7, #4]
 8005ddc:	6039      	str	r1, [r7, #0]
 8005dde:	687b      	ldr	r3, [r7, #4]
 8005de0:	683a      	ldr	r2, [r7, #0]
 8005de2:	63da      	str	r2, [r3, #60]	; 0x3c
 8005de4:	bf00      	nop
 8005de6:	370c      	adds	r7, #12
 8005de8:	46bd      	mov	sp, r7
 8005dea:	f85d 7b04 	ldr.w	r7, [sp], #4
 8005dee:	4770      	bx	lr

08005df0 <TIM_SetCompare4>:
 8005df0:	b480      	push	{r7}
 8005df2:	b083      	sub	sp, #12
 8005df4:	af00      	add	r7, sp, #0
 8005df6:	6078      	str	r0, [r7, #4]
 8005df8:	6039      	str	r1, [r7, #0]
 8005dfa:	687b      	ldr	r3, [r7, #4]
 8005dfc:	683a      	ldr	r2, [r7, #0]
 8005dfe:	641a      	str	r2, [r3, #64]	; 0x40
 8005e00:	bf00      	nop
 8005e02:	370c      	adds	r7, #12
 8005e04:	46bd      	mov	sp, r7
 8005e06:	f85d 7b04 	ldr.w	r7, [sp], #4
 8005e0a:	4770      	bx	lr

08005e0c <TIM_CtrlPWMOutputs>:
 8005e0c:	b480      	push	{r7}
 8005e0e:	b083      	sub	sp, #12
 8005e10:	af00      	add	r7, sp, #0
 8005e12:	6078      	str	r0, [r7, #4]
 8005e14:	460b      	mov	r3, r1
 8005e16:	70fb      	strb	r3, [r7, #3]
 8005e18:	78fb      	ldrb	r3, [r7, #3]
 8005e1a:	2b00      	cmp	r3, #0
 8005e1c:	d00c      	beq.n	8005e38 <TIM_CtrlPWMOutputs+0x2c>
 8005e1e:	687b      	ldr	r3, [r7, #4]
 8005e20:	f8b3 3044 	ldrh.w	r3, [r3, #68]	; 0x44
 8005e24:	b29b      	uxth	r3, r3
 8005e26:	ea6f 4343 	mvn.w	r3, r3, lsl #17
 8005e2a:	ea6f 4353 	mvn.w	r3, r3, lsr #17
 8005e2e:	b29a      	uxth	r2, r3
 8005e30:	687b      	ldr	r3, [r7, #4]
 8005e32:	f8a3 2044 	strh.w	r2, [r3, #68]	; 0x44
 8005e36:	e009      	b.n	8005e4c <TIM_CtrlPWMOutputs+0x40>
 8005e38:	687b      	ldr	r3, [r7, #4]
 8005e3a:	f8b3 3044 	ldrh.w	r3, [r3, #68]	; 0x44
 8005e3e:	b29b      	uxth	r3, r3
 8005e40:	f3c3 030e 	ubfx	r3, r3, #0, #15
 8005e44:	b29a      	uxth	r2, r3
 8005e46:	687b      	ldr	r3, [r7, #4]
 8005e48:	f8a3 2044 	strh.w	r2, [r3, #68]	; 0x44
 8005e4c:	bf00      	nop
 8005e4e:	370c      	adds	r7, #12
 8005e50:	46bd      	mov	sp, r7
 8005e52:	f85d 7b04 	ldr.w	r7, [sp], #4
 8005e56:	4770      	bx	lr

08005e58 <USART_Init>:
 8005e58:	b580      	push	{r7, lr}
 8005e5a:	b08a      	sub	sp, #40	; 0x28
 8005e5c:	af00      	add	r7, sp, #0
 8005e5e:	6078      	str	r0, [r7, #4]
 8005e60:	6039      	str	r1, [r7, #0]
 8005e62:	2300      	movs	r3, #0
 8005e64:	627b      	str	r3, [r7, #36]	; 0x24
 8005e66:	2300      	movs	r3, #0
 8005e68:	623b      	str	r3, [r7, #32]
 8005e6a:	2300      	movs	r3, #0
 8005e6c:	61fb      	str	r3, [r7, #28]
 8005e6e:	2300      	movs	r3, #0
 8005e70:	61bb      	str	r3, [r7, #24]
 8005e72:	687b      	ldr	r3, [r7, #4]
 8005e74:	8a1b      	ldrh	r3, [r3, #16]
 8005e76:	b29b      	uxth	r3, r3
 8005e78:	627b      	str	r3, [r7, #36]	; 0x24
 8005e7a:	6a7b      	ldr	r3, [r7, #36]	; 0x24
 8005e7c:	f423 5340 	bic.w	r3, r3, #12288	; 0x3000
 8005e80:	627b      	str	r3, [r7, #36]	; 0x24
 8005e82:	683b      	ldr	r3, [r7, #0]
 8005e84:	88db      	ldrh	r3, [r3, #6]
 8005e86:	461a      	mov	r2, r3
 8005e88:	6a7b      	ldr	r3, [r7, #36]	; 0x24
 8005e8a:	4313      	orrs	r3, r2
 8005e8c:	627b      	str	r3, [r7, #36]	; 0x24
 8005e8e:	6a7b      	ldr	r3, [r7, #36]	; 0x24
 8005e90:	b29a      	uxth	r2, r3
 8005e92:	687b      	ldr	r3, [r7, #4]
 8005e94:	821a      	strh	r2, [r3, #16]
 8005e96:	687b      	ldr	r3, [r7, #4]
 8005e98:	899b      	ldrh	r3, [r3, #12]
 8005e9a:	b29b      	uxth	r3, r3
 8005e9c:	627b      	str	r3, [r7, #36]	; 0x24
 8005e9e:	6a7b      	ldr	r3, [r7, #36]	; 0x24
 8005ea0:	f423 53b0 	bic.w	r3, r3, #5632	; 0x1600
 8005ea4:	f023 030c 	bic.w	r3, r3, #12
 8005ea8:	627b      	str	r3, [r7, #36]	; 0x24
 8005eaa:	683b      	ldr	r3, [r7, #0]
 8005eac:	889a      	ldrh	r2, [r3, #4]
 8005eae:	683b      	ldr	r3, [r7, #0]
 8005eb0:	891b      	ldrh	r3, [r3, #8]
 8005eb2:	4313      	orrs	r3, r2
 8005eb4:	b29a      	uxth	r2, r3
 8005eb6:	683b      	ldr	r3, [r7, #0]
 8005eb8:	895b      	ldrh	r3, [r3, #10]
 8005eba:	4313      	orrs	r3, r2
 8005ebc:	b29b      	uxth	r3, r3
 8005ebe:	461a      	mov	r2, r3
 8005ec0:	6a7b      	ldr	r3, [r7, #36]	; 0x24
 8005ec2:	4313      	orrs	r3, r2
 8005ec4:	627b      	str	r3, [r7, #36]	; 0x24
 8005ec6:	6a7b      	ldr	r3, [r7, #36]	; 0x24
 8005ec8:	b29a      	uxth	r2, r3
 8005eca:	687b      	ldr	r3, [r7, #4]
 8005ecc:	819a      	strh	r2, [r3, #12]
 8005ece:	687b      	ldr	r3, [r7, #4]
 8005ed0:	8a9b      	ldrh	r3, [r3, #20]
 8005ed2:	b29b      	uxth	r3, r3
 8005ed4:	627b      	str	r3, [r7, #36]	; 0x24
 8005ed6:	6a7b      	ldr	r3, [r7, #36]	; 0x24
 8005ed8:	f423 7340 	bic.w	r3, r3, #768	; 0x300
 8005edc:	627b      	str	r3, [r7, #36]	; 0x24
 8005ede:	683b      	ldr	r3, [r7, #0]
 8005ee0:	899b      	ldrh	r3, [r3, #12]
 8005ee2:	461a      	mov	r2, r3
 8005ee4:	6a7b      	ldr	r3, [r7, #36]	; 0x24
 8005ee6:	4313      	orrs	r3, r2
 8005ee8:	627b      	str	r3, [r7, #36]	; 0x24
 8005eea:	6a7b      	ldr	r3, [r7, #36]	; 0x24
 8005eec:	b29a      	uxth	r2, r3
 8005eee:	687b      	ldr	r3, [r7, #4]
 8005ef0:	829a      	strh	r2, [r3, #20]
 8005ef2:	f107 0308 	add.w	r3, r7, #8
 8005ef6:	4618      	mov	r0, r3
 8005ef8:	f7ff fbac 	bl	8005654 <RCC_GetClocksFreq>
 8005efc:	687b      	ldr	r3, [r7, #4]
 8005efe:	4a30      	ldr	r2, [pc, #192]	; (8005fc0 <USART_Init+0x168>)
 8005f00:	4293      	cmp	r3, r2
 8005f02:	d003      	beq.n	8005f0c <USART_Init+0xb4>
 8005f04:	687b      	ldr	r3, [r7, #4]
 8005f06:	4a2f      	ldr	r2, [pc, #188]	; (8005fc4 <USART_Init+0x16c>)
 8005f08:	4293      	cmp	r3, r2
 8005f0a:	d102      	bne.n	8005f12 <USART_Init+0xba>
 8005f0c:	697b      	ldr	r3, [r7, #20]
 8005f0e:	623b      	str	r3, [r7, #32]
 8005f10:	e001      	b.n	8005f16 <USART_Init+0xbe>
 8005f12:	693b      	ldr	r3, [r7, #16]
 8005f14:	623b      	str	r3, [r7, #32]
 8005f16:	687b      	ldr	r3, [r7, #4]
 8005f18:	899b      	ldrh	r3, [r3, #12]
 8005f1a:	b29b      	uxth	r3, r3
 8005f1c:	b21b      	sxth	r3, r3
 8005f1e:	2b00      	cmp	r3, #0
 8005f20:	da0c      	bge.n	8005f3c <USART_Init+0xe4>
 8005f22:	6a3a      	ldr	r2, [r7, #32]
 8005f24:	4613      	mov	r3, r2
 8005f26:	009b      	lsls	r3, r3, #2
 8005f28:	4413      	add	r3, r2
 8005f2a:	009a      	lsls	r2, r3, #2
 8005f2c:	441a      	add	r2, r3
 8005f2e:	683b      	ldr	r3, [r7, #0]
 8005f30:	681b      	ldr	r3, [r3, #0]
 8005f32:	005b      	lsls	r3, r3, #1
 8005f34:	fbb2 f3f3 	udiv	r3, r2, r3
 8005f38:	61fb      	str	r3, [r7, #28]
 8005f3a:	e00b      	b.n	8005f54 <USART_Init+0xfc>
 8005f3c:	6a3a      	ldr	r2, [r7, #32]
 8005f3e:	4613      	mov	r3, r2
 8005f40:	009b      	lsls	r3, r3, #2
 8005f42:	4413      	add	r3, r2
 8005f44:	009a      	lsls	r2, r3, #2
 8005f46:	441a      	add	r2, r3
 8005f48:	683b      	ldr	r3, [r7, #0]
 8005f4a:	681b      	ldr	r3, [r3, #0]
 8005f4c:	009b      	lsls	r3, r3, #2
 8005f4e:	fbb2 f3f3 	udiv	r3, r2, r3
 8005f52:	61fb      	str	r3, [r7, #28]
 8005f54:	69fb      	ldr	r3, [r7, #28]
 8005f56:	4a1c      	ldr	r2, [pc, #112]	; (8005fc8 <USART_Init+0x170>)
 8005f58:	fba2 2303 	umull	r2, r3, r2, r3
 8005f5c:	095b      	lsrs	r3, r3, #5
 8005f5e:	011b      	lsls	r3, r3, #4
 8005f60:	627b      	str	r3, [r7, #36]	; 0x24
 8005f62:	6a7b      	ldr	r3, [r7, #36]	; 0x24
 8005f64:	091b      	lsrs	r3, r3, #4
 8005f66:	2264      	movs	r2, #100	; 0x64
 8005f68:	fb02 f303 	mul.w	r3, r2, r3
 8005f6c:	69fa      	ldr	r2, [r7, #28]
 8005f6e:	1ad3      	subs	r3, r2, r3
 8005f70:	61bb      	str	r3, [r7, #24]
 8005f72:	687b      	ldr	r3, [r7, #4]
 8005f74:	899b      	ldrh	r3, [r3, #12]
 8005f76:	b29b      	uxth	r3, r3
 8005f78:	b21b      	sxth	r3, r3
 8005f7a:	2b00      	cmp	r3, #0
 8005f7c:	da0c      	bge.n	8005f98 <USART_Init+0x140>
 8005f7e:	69bb      	ldr	r3, [r7, #24]
 8005f80:	00db      	lsls	r3, r3, #3
 8005f82:	3332      	adds	r3, #50	; 0x32
 8005f84:	4a10      	ldr	r2, [pc, #64]	; (8005fc8 <USART_Init+0x170>)
 8005f86:	fba2 2303 	umull	r2, r3, r2, r3
 8005f8a:	095b      	lsrs	r3, r3, #5
 8005f8c:	f003 0307 	and.w	r3, r3, #7
 8005f90:	6a7a      	ldr	r2, [r7, #36]	; 0x24
 8005f92:	4313      	orrs	r3, r2
 8005f94:	627b      	str	r3, [r7, #36]	; 0x24
 8005f96:	e00b      	b.n	8005fb0 <USART_Init+0x158>
 8005f98:	69bb      	ldr	r3, [r7, #24]
 8005f9a:	011b      	lsls	r3, r3, #4
 8005f9c:	3332      	adds	r3, #50	; 0x32
 8005f9e:	4a0a      	ldr	r2, [pc, #40]	; (8005fc8 <USART_Init+0x170>)
 8005fa0:	fba2 2303 	umull	r2, r3, r2, r3
 8005fa4:	095b      	lsrs	r3, r3, #5
 8005fa6:	f003 030f 	and.w	r3, r3, #15
 8005faa:	6a7a      	ldr	r2, [r7, #36]	; 0x24
 8005fac:	4313      	orrs	r3, r2
 8005fae:	627b      	str	r3, [r7, #36]	; 0x24
 8005fb0:	6a7b      	ldr	r3, [r7, #36]	; 0x24
 8005fb2:	b29a      	uxth	r2, r3
 8005fb4:	687b      	ldr	r3, [r7, #4]
 8005fb6:	811a      	strh	r2, [r3, #8]
 8005fb8:	bf00      	nop
 8005fba:	3728      	adds	r7, #40	; 0x28
 8005fbc:	46bd      	mov	sp, r7
 8005fbe:	bd80      	pop	{r7, pc}
 8005fc0:	40011000 	.word	0x40011000
 8005fc4:	40011400 	.word	0x40011400
 8005fc8:	51eb851f 	.word	0x51eb851f

08005fcc <USART_Cmd>:
 8005fcc:	b480      	push	{r7}
 8005fce:	b083      	sub	sp, #12
 8005fd0:	af00      	add	r7, sp, #0
 8005fd2:	6078      	str	r0, [r7, #4]
 8005fd4:	460b      	mov	r3, r1
 8005fd6:	70fb      	strb	r3, [r7, #3]
 8005fd8:	78fb      	ldrb	r3, [r7, #3]
 8005fda:	2b00      	cmp	r3, #0
 8005fdc:	d008      	beq.n	8005ff0 <USART_Cmd+0x24>
 8005fde:	687b      	ldr	r3, [r7, #4]
 8005fe0:	899b      	ldrh	r3, [r3, #12]
 8005fe2:	b29b      	uxth	r3, r3
 8005fe4:	f443 5300 	orr.w	r3, r3, #8192	; 0x2000
 8005fe8:	b29a      	uxth	r2, r3
 8005fea:	687b      	ldr	r3, [r7, #4]
 8005fec:	819a      	strh	r2, [r3, #12]
 8005fee:	e007      	b.n	8006000 <USART_Cmd+0x34>
 8005ff0:	687b      	ldr	r3, [r7, #4]
 8005ff2:	899b      	ldrh	r3, [r3, #12]
 8005ff4:	b29b      	uxth	r3, r3
 8005ff6:	f423 5300 	bic.w	r3, r3, #8192	; 0x2000
 8005ffa:	b29a      	uxth	r2, r3
 8005ffc:	687b      	ldr	r3, [r7, #4]
 8005ffe:	819a      	strh	r2, [r3, #12]
 8006000:	bf00      	nop
 8006002:	370c      	adds	r7, #12
 8006004:	46bd      	mov	sp, r7
 8006006:	f85d 7b04 	ldr.w	r7, [sp], #4
 800600a:	4770      	bx	lr

0800600c <USART_SendData>:
 800600c:	b480      	push	{r7}
 800600e:	b083      	sub	sp, #12
 8006010:	af00      	add	r7, sp, #0
 8006012:	6078      	str	r0, [r7, #4]
 8006014:	460b      	mov	r3, r1
 8006016:	807b      	strh	r3, [r7, #2]
 8006018:	887b      	ldrh	r3, [r7, #2]
 800601a:	f3c3 0308 	ubfx	r3, r3, #0, #9
 800601e:	b29a      	uxth	r2, r3
 8006020:	687b      	ldr	r3, [r7, #4]
 8006022:	809a      	strh	r2, [r3, #4]
 8006024:	bf00      	nop
 8006026:	370c      	adds	r7, #12
 8006028:	46bd      	mov	sp, r7
 800602a:	f85d 7b04 	ldr.w	r7, [sp], #4
 800602e:	4770      	bx	lr

08006030 <USART_ReceiveData>:
 8006030:	b480      	push	{r7}
 8006032:	b083      	sub	sp, #12
 8006034:	af00      	add	r7, sp, #0
 8006036:	6078      	str	r0, [r7, #4]
 8006038:	687b      	ldr	r3, [r7, #4]
 800603a:	889b      	ldrh	r3, [r3, #4]
 800603c:	b29b      	uxth	r3, r3
 800603e:	f3c3 0308 	ubfx	r3, r3, #0, #9
 8006042:	b29b      	uxth	r3, r3
 8006044:	4618      	mov	r0, r3
 8006046:	370c      	adds	r7, #12
 8006048:	46bd      	mov	sp, r7
 800604a:	f85d 7b04 	ldr.w	r7, [sp], #4
 800604e:	4770      	bx	lr

08006050 <USART_ITConfig>:
 8006050:	b480      	push	{r7}
 8006052:	b087      	sub	sp, #28
 8006054:	af00      	add	r7, sp, #0
 8006056:	6078      	str	r0, [r7, #4]
 8006058:	460b      	mov	r3, r1
 800605a:	807b      	strh	r3, [r7, #2]
 800605c:	4613      	mov	r3, r2
 800605e:	707b      	strb	r3, [r7, #1]
 8006060:	2300      	movs	r3, #0
 8006062:	613b      	str	r3, [r7, #16]
 8006064:	2300      	movs	r3, #0
 8006066:	60fb      	str	r3, [r7, #12]
 8006068:	2300      	movs	r3, #0
 800606a:	60bb      	str	r3, [r7, #8]
 800606c:	2300      	movs	r3, #0
 800606e:	617b      	str	r3, [r7, #20]
 8006070:	687b      	ldr	r3, [r7, #4]
 8006072:	617b      	str	r3, [r7, #20]
 8006074:	887b      	ldrh	r3, [r7, #2]
 8006076:	b2db      	uxtb	r3, r3
 8006078:	095b      	lsrs	r3, r3, #5
 800607a:	b2db      	uxtb	r3, r3
 800607c:	613b      	str	r3, [r7, #16]
 800607e:	887b      	ldrh	r3, [r7, #2]
 8006080:	f003 031f 	and.w	r3, r3, #31
 8006084:	60fb      	str	r3, [r7, #12]
 8006086:	2201      	movs	r2, #1
 8006088:	68fb      	ldr	r3, [r7, #12]
 800608a:	fa02 f303 	lsl.w	r3, r2, r3
 800608e:	60bb      	str	r3, [r7, #8]
 8006090:	693b      	ldr	r3, [r7, #16]
 8006092:	2b01      	cmp	r3, #1
 8006094:	d103      	bne.n	800609e <USART_ITConfig+0x4e>
 8006096:	697b      	ldr	r3, [r7, #20]
 8006098:	330c      	adds	r3, #12
 800609a:	617b      	str	r3, [r7, #20]
 800609c:	e009      	b.n	80060b2 <USART_ITConfig+0x62>
 800609e:	693b      	ldr	r3, [r7, #16]
 80060a0:	2b02      	cmp	r3, #2
 80060a2:	d103      	bne.n	80060ac <USART_ITConfig+0x5c>
 80060a4:	697b      	ldr	r3, [r7, #20]
 80060a6:	3310      	adds	r3, #16
 80060a8:	617b      	str	r3, [r7, #20]
 80060aa:	e002      	b.n	80060b2 <USART_ITConfig+0x62>
 80060ac:	697b      	ldr	r3, [r7, #20]
 80060ae:	3314      	adds	r3, #20
 80060b0:	617b      	str	r3, [r7, #20]
 80060b2:	787b      	ldrb	r3, [r7, #1]
 80060b4:	2b00      	cmp	r3, #0
 80060b6:	d006      	beq.n	80060c6 <USART_ITConfig+0x76>
 80060b8:	697b      	ldr	r3, [r7, #20]
 80060ba:	6819      	ldr	r1, [r3, #0]
 80060bc:	697b      	ldr	r3, [r7, #20]
 80060be:	68ba      	ldr	r2, [r7, #8]
 80060c0:	430a      	orrs	r2, r1
 80060c2:	601a      	str	r2, [r3, #0]
 80060c4:	e006      	b.n	80060d4 <USART_ITConfig+0x84>
 80060c6:	697b      	ldr	r3, [r7, #20]
 80060c8:	6819      	ldr	r1, [r3, #0]
 80060ca:	68bb      	ldr	r3, [r7, #8]
 80060cc:	43da      	mvns	r2, r3
 80060ce:	697b      	ldr	r3, [r7, #20]
 80060d0:	400a      	ands	r2, r1
 80060d2:	601a      	str	r2, [r3, #0]
 80060d4:	bf00      	nop
 80060d6:	371c      	adds	r7, #28
 80060d8:	46bd      	mov	sp, r7
 80060da:	f85d 7b04 	ldr.w	r7, [sp], #4
 80060de:	4770      	bx	lr

080060e0 <USART_GetFlagStatus>:
 80060e0:	b480      	push	{r7}
 80060e2:	b085      	sub	sp, #20
 80060e4:	af00      	add	r7, sp, #0
 80060e6:	6078      	str	r0, [r7, #4]
 80060e8:	460b      	mov	r3, r1
 80060ea:	807b      	strh	r3, [r7, #2]
 80060ec:	2300      	movs	r3, #0
 80060ee:	73fb      	strb	r3, [r7, #15]
 80060f0:	687b      	ldr	r3, [r7, #4]
 80060f2:	881b      	ldrh	r3, [r3, #0]
 80060f4:	b29a      	uxth	r2, r3
 80060f6:	887b      	ldrh	r3, [r7, #2]
 80060f8:	4013      	ands	r3, r2
 80060fa:	b29b      	uxth	r3, r3
 80060fc:	2b00      	cmp	r3, #0
 80060fe:	d002      	beq.n	8006106 <USART_GetFlagStatus+0x26>
 8006100:	2301      	movs	r3, #1
 8006102:	73fb      	strb	r3, [r7, #15]
 8006104:	e001      	b.n	800610a <USART_GetFlagStatus+0x2a>
 8006106:	2300      	movs	r3, #0
 8006108:	73fb      	strb	r3, [r7, #15]
 800610a:	7bfb      	ldrb	r3, [r7, #15]
 800610c:	4618      	mov	r0, r3
 800610e:	3714      	adds	r7, #20
 8006110:	46bd      	mov	sp, r7
 8006112:	f85d 7b04 	ldr.w	r7, [sp], #4
 8006116:	4770      	bx	lr

08006118 <USART_GetITStatus>:
 8006118:	b480      	push	{r7}
 800611a:	b087      	sub	sp, #28
 800611c:	af00      	add	r7, sp, #0
 800611e:	6078      	str	r0, [r7, #4]
 8006120:	460b      	mov	r3, r1
 8006122:	807b      	strh	r3, [r7, #2]
 8006124:	2300      	movs	r3, #0
 8006126:	60fb      	str	r3, [r7, #12]
 8006128:	2300      	movs	r3, #0
 800612a:	617b      	str	r3, [r7, #20]
 800612c:	2300      	movs	r3, #0
 800612e:	60bb      	str	r3, [r7, #8]
 8006130:	2300      	movs	r3, #0
 8006132:	74fb      	strb	r3, [r7, #19]
 8006134:	887b      	ldrh	r3, [r7, #2]
 8006136:	b2db      	uxtb	r3, r3
 8006138:	095b      	lsrs	r3, r3, #5
 800613a:	b2db      	uxtb	r3, r3
 800613c:	60bb      	str	r3, [r7, #8]
 800613e:	887b      	ldrh	r3, [r7, #2]
 8006140:	f003 031f 	and.w	r3, r3, #31
 8006144:	617b      	str	r3, [r7, #20]
 8006146:	2201      	movs	r2, #1
 8006148:	697b      	ldr	r3, [r7, #20]
 800614a:	fa02 f303 	lsl.w	r3, r2, r3
 800614e:	617b      	str	r3, [r7, #20]
 8006150:	68bb      	ldr	r3, [r7, #8]
 8006152:	2b01      	cmp	r3, #1
 8006154:	d107      	bne.n	8006166 <USART_GetITStatus+0x4e>
 8006156:	687b      	ldr	r3, [r7, #4]
 8006158:	899b      	ldrh	r3, [r3, #12]
 800615a:	b29b      	uxth	r3, r3
 800615c:	461a      	mov	r2, r3
 800615e:	697b      	ldr	r3, [r7, #20]
 8006160:	4013      	ands	r3, r2
 8006162:	617b      	str	r3, [r7, #20]
 8006164:	e011      	b.n	800618a <USART_GetITStatus+0x72>
 8006166:	68bb      	ldr	r3, [r7, #8]
 8006168:	2b02      	cmp	r3, #2
 800616a:	d107      	bne.n	800617c <USART_GetITStatus+0x64>
 800616c:	687b      	ldr	r3, [r7, #4]
 800616e:	8a1b      	ldrh	r3, [r3, #16]
 8006170:	b29b      	uxth	r3, r3
 8006172:	461a      	mov	r2, r3
 8006174:	697b      	ldr	r3, [r7, #20]
 8006176:	4013      	ands	r3, r2
 8006178:	617b      	str	r3, [r7, #20]
 800617a:	e006      	b.n	800618a <USART_GetITStatus+0x72>
 800617c:	687b      	ldr	r3, [r7, #4]
 800617e:	8a9b      	ldrh	r3, [r3, #20]
 8006180:	b29b      	uxth	r3, r3
 8006182:	461a      	mov	r2, r3
 8006184:	697b      	ldr	r3, [r7, #20]
 8006186:	4013      	ands	r3, r2
 8006188:	617b      	str	r3, [r7, #20]
 800618a:	887b      	ldrh	r3, [r7, #2]
 800618c:	0a1b      	lsrs	r3, r3, #8
 800618e:	b29b      	uxth	r3, r3
 8006190:	60fb      	str	r3, [r7, #12]
 8006192:	2201      	movs	r2, #1
 8006194:	68fb      	ldr	r3, [r7, #12]
 8006196:	fa02 f303 	lsl.w	r3, r2, r3
 800619a:	60fb      	str	r3, [r7, #12]
 800619c:	687b      	ldr	r3, [r7, #4]
 800619e:	881b      	ldrh	r3, [r3, #0]
 80061a0:	b29b      	uxth	r3, r3
 80061a2:	461a      	mov	r2, r3
 80061a4:	68fb      	ldr	r3, [r7, #12]
 80061a6:	4013      	ands	r3, r2
 80061a8:	60fb      	str	r3, [r7, #12]
 80061aa:	697b      	ldr	r3, [r7, #20]
 80061ac:	2b00      	cmp	r3, #0
 80061ae:	d005      	beq.n	80061bc <USART_GetITStatus+0xa4>
 80061b0:	68fb      	ldr	r3, [r7, #12]
 80061b2:	2b00      	cmp	r3, #0
 80061b4:	d002      	beq.n	80061bc <USART_GetITStatus+0xa4>
 80061b6:	2301      	movs	r3, #1
 80061b8:	74fb      	strb	r3, [r7, #19]
 80061ba:	e001      	b.n	80061c0 <USART_GetITStatus+0xa8>
 80061bc:	2300      	movs	r3, #0
 80061be:	74fb      	strb	r3, [r7, #19]
 80061c0:	7cfb      	ldrb	r3, [r7, #19]
 80061c2:	4618      	mov	r0, r3
 80061c4:	371c      	adds	r7, #28
 80061c6:	46bd      	mov	sp, r7
 80061c8:	f85d 7b04 	ldr.w	r7, [sp], #4
 80061cc:	4770      	bx	lr

080061ce <USART_ClearITPendingBit>:
 80061ce:	b480      	push	{r7}
 80061d0:	b085      	sub	sp, #20
 80061d2:	af00      	add	r7, sp, #0
 80061d4:	6078      	str	r0, [r7, #4]
 80061d6:	460b      	mov	r3, r1
 80061d8:	807b      	strh	r3, [r7, #2]
 80061da:	2300      	movs	r3, #0
 80061dc:	81fb      	strh	r3, [r7, #14]
 80061de:	2300      	movs	r3, #0
 80061e0:	81bb      	strh	r3, [r7, #12]
 80061e2:	887b      	ldrh	r3, [r7, #2]
 80061e4:	0a1b      	lsrs	r3, r3, #8
 80061e6:	81fb      	strh	r3, [r7, #14]
 80061e8:	89fb      	ldrh	r3, [r7, #14]
 80061ea:	2201      	movs	r2, #1
 80061ec:	fa02 f303 	lsl.w	r3, r2, r3
 80061f0:	81bb      	strh	r3, [r7, #12]
 80061f2:	89bb      	ldrh	r3, [r7, #12]
 80061f4:	43db      	mvns	r3, r3
 80061f6:	b29a      	uxth	r2, r3
 80061f8:	687b      	ldr	r3, [r7, #4]
 80061fa:	801a      	strh	r2, [r3, #0]
 80061fc:	bf00      	nop
 80061fe:	3714      	adds	r7, #20
 8006200:	46bd      	mov	sp, r7
 8006202:	f85d 7b04 	ldr.w	r7, [sp], #4
 8006206:	4770      	bx	lr

08006208 <Button_Init>:
 8006208:	b580      	push	{r7, lr}
 800620a:	b084      	sub	sp, #16
 800620c:	af02      	add	r7, sp, #8
 800620e:	f000 f9af 	bl	8006570 <BTNGPIO_Init>
 8006212:	2300      	movs	r3, #0
 8006214:	71fb      	strb	r3, [r7, #7]
 8006216:	e035      	b.n	8006284 <Button_Init+0x7c>
 8006218:	79fa      	ldrb	r2, [r7, #7]
 800621a:	4924      	ldr	r1, [pc, #144]	; (80062ac <Button_Init+0xa4>)
 800621c:	4613      	mov	r3, r2
 800621e:	009b      	lsls	r3, r3, #2
 8006220:	4413      	add	r3, r2
 8006222:	009b      	lsls	r3, r3, #2
 8006224:	440b      	add	r3, r1
 8006226:	330a      	adds	r3, #10
 8006228:	79fa      	ldrb	r2, [r7, #7]
 800622a:	701a      	strb	r2, [r3, #0]
 800622c:	79fa      	ldrb	r2, [r7, #7]
 800622e:	491f      	ldr	r1, [pc, #124]	; (80062ac <Button_Init+0xa4>)
 8006230:	4613      	mov	r3, r2
 8006232:	009b      	lsls	r3, r3, #2
 8006234:	4413      	add	r3, r2
 8006236:	009b      	lsls	r3, r3, #2
 8006238:	440b      	add	r3, r1
 800623a:	3310      	adds	r3, #16
 800623c:	4a1c      	ldr	r2, [pc, #112]	; (80062b0 <Button_Init+0xa8>)
 800623e:	601a      	str	r2, [r3, #0]
 8006240:	79fb      	ldrb	r3, [r7, #7]
 8006242:	4a1c      	ldr	r2, [pc, #112]	; (80062b4 <Button_Init+0xac>)
 8006244:	f852 0033 	ldr.w	r0, [r2, r3, lsl #3]
 8006248:	79fb      	ldrb	r3, [r7, #7]
 800624a:	4a1a      	ldr	r2, [pc, #104]	; (80062b4 <Button_Init+0xac>)
 800624c:	00db      	lsls	r3, r3, #3
 800624e:	4413      	add	r3, r2
 8006250:	889b      	ldrh	r3, [r3, #4]
 8006252:	4619      	mov	r1, r3
 8006254:	f7fe ff82 	bl	800515c <GPIO_ReadInputDataBit>
 8006258:	4603      	mov	r3, r0
 800625a:	4619      	mov	r1, r3
 800625c:	79fb      	ldrb	r3, [r7, #7]
 800625e:	4a15      	ldr	r2, [pc, #84]	; (80062b4 <Button_Init+0xac>)
 8006260:	00db      	lsls	r3, r3, #3
 8006262:	4413      	add	r3, r2
 8006264:	799b      	ldrb	r3, [r3, #6]
 8006266:	4299      	cmp	r1, r3
 8006268:	d109      	bne.n	800627e <Button_Init+0x76>
 800626a:	79fa      	ldrb	r2, [r7, #7]
 800626c:	490f      	ldr	r1, [pc, #60]	; (80062ac <Button_Init+0xa4>)
 800626e:	4613      	mov	r3, r2
 8006270:	009b      	lsls	r3, r3, #2
 8006272:	4413      	add	r3, r2
 8006274:	009b      	lsls	r3, r3, #2
 8006276:	440b      	add	r3, r1
 8006278:	3309      	adds	r3, #9
 800627a:	2201      	movs	r2, #1
 800627c:	701a      	strb	r2, [r3, #0]
 800627e:	79fb      	ldrb	r3, [r7, #7]
 8006280:	3301      	adds	r3, #1
 8006282:	71fb      	strb	r3, [r7, #7]
 8006284:	79fb      	ldrb	r3, [r7, #7]
 8006286:	2b05      	cmp	r3, #5
 8006288:	d9c6      	bls.n	8006218 <Button_Init+0x10>
 800628a:	2300      	movs	r3, #0
 800628c:	9300      	str	r3, [sp, #0]
 800628e:	4b0a      	ldr	r3, [pc, #40]	; (80062b8 <Button_Init+0xb0>)
 8006290:	22ff      	movs	r2, #255	; 0xff
 8006292:	2105      	movs	r1, #5
 8006294:	4809      	ldr	r0, [pc, #36]	; (80062bc <Button_Init+0xb4>)
 8006296:	f7fb fc0b 	bl	8001ab0 <TimerStart>
 800629a:	4603      	mov	r3, r0
 800629c:	461a      	mov	r2, r3
 800629e:	4b08      	ldr	r3, [pc, #32]	; (80062c0 <Button_Init+0xb8>)
 80062a0:	701a      	strb	r2, [r3, #0]
 80062a2:	bf00      	nop
 80062a4:	3708      	adds	r7, #8
 80062a6:	46bd      	mov	sp, r7
 80062a8:	bd80      	pop	{r7, pc}
 80062aa:	bf00      	nop
 80062ac:	20001628 	.word	0x20001628
 80062b0:	08006329 	.word	0x08006329
 80062b4:	20000038 	.word	0x20000038
 80062b8:	08006525 	.word	0x08006525
 80062bc:	0800799c 	.word	0x0800799c
 80062c0:	20000068 	.word	0x20000068

080062c4 <Button_SetMode>:
 80062c4:	b480      	push	{r7}
 80062c6:	b083      	sub	sp, #12
 80062c8:	af00      	add	r7, sp, #0
 80062ca:	4603      	mov	r3, r0
 80062cc:	460a      	mov	r2, r1
 80062ce:	71fb      	strb	r3, [r7, #7]
 80062d0:	4613      	mov	r3, r2
 80062d2:	71bb      	strb	r3, [r7, #6]
 80062d4:	79fb      	ldrb	r3, [r7, #7]
 80062d6:	2b05      	cmp	r3, #5
 80062d8:	d80a      	bhi.n	80062f0 <Button_SetMode+0x2c>
 80062da:	79fa      	ldrb	r2, [r7, #7]
 80062dc:	4907      	ldr	r1, [pc, #28]	; (80062fc <Button_SetMode+0x38>)
 80062de:	4613      	mov	r3, r2
 80062e0:	009b      	lsls	r3, r3, #2
 80062e2:	4413      	add	r3, r2
 80062e4:	009b      	lsls	r3, r3, #2
 80062e6:	440b      	add	r3, r1
 80062e8:	330b      	adds	r3, #11
 80062ea:	79ba      	ldrb	r2, [r7, #6]
 80062ec:	701a      	strb	r2, [r3, #0]
 80062ee:	e000      	b.n	80062f2 <Button_SetMode+0x2e>
 80062f0:	bf00      	nop
 80062f2:	370c      	adds	r7, #12
 80062f4:	46bd      	mov	sp, r7
 80062f6:	f85d 7b04 	ldr.w	r7, [sp], #4
 80062fa:	4770      	bx	lr
 80062fc:	20001628 	.word	0x20001628

08006300 <Button_RegisterEventCallback>:
 8006300:	b480      	push	{r7}
 8006302:	b083      	sub	sp, #12
 8006304:	af00      	add	r7, sp, #0
 8006306:	4603      	mov	r3, r0
 8006308:	6039      	str	r1, [r7, #0]
 800630a:	71fb      	strb	r3, [r7, #7]
 800630c:	79fb      	ldrb	r3, [r7, #7]
 800630e:	4905      	ldr	r1, [pc, #20]	; (8006324 <Button_RegisterEventCallback+0x24>)
 8006310:	683a      	ldr	r2, [r7, #0]
 8006312:	f841 2023 	str.w	r2, [r1, r3, lsl #2]
 8006316:	bf00      	nop
 8006318:	370c      	adds	r7, #12
 800631a:	46bd      	mov	sp, r7
 800631c:	f85d 7b04 	ldr.w	r7, [sp], #4
 8006320:	4770      	bx	lr
 8006322:	bf00      	nop
 8006324:	200016a0 	.word	0x200016a0

08006328 <ButtonScanTypeEdge>:
 8006328:	b580      	push	{r7, lr}
 800632a:	b084      	sub	sp, #16
 800632c:	af00      	add	r7, sp, #0
 800632e:	6078      	str	r0, [r7, #4]
 8006330:	687b      	ldr	r3, [r7, #4]
 8006332:	60fb      	str	r3, [r7, #12]
 8006334:	68fb      	ldr	r3, [r7, #12]
 8006336:	7a9b      	ldrb	r3, [r3, #10]
 8006338:	72fb      	strb	r3, [r7, #11]
 800633a:	7afb      	ldrb	r3, [r7, #11]
 800633c:	4a77      	ldr	r2, [pc, #476]	; (800651c <ButtonScanTypeEdge+0x1f4>)
 800633e:	f852 0033 	ldr.w	r0, [r2, r3, lsl #3]
 8006342:	7afb      	ldrb	r3, [r7, #11]
 8006344:	4a75      	ldr	r2, [pc, #468]	; (800651c <ButtonScanTypeEdge+0x1f4>)
 8006346:	00db      	lsls	r3, r3, #3
 8006348:	4413      	add	r3, r2
 800634a:	889b      	ldrh	r3, [r3, #4]
 800634c:	4619      	mov	r1, r3
 800634e:	f7fe ff05 	bl	800515c <GPIO_ReadInputDataBit>
 8006352:	4603      	mov	r3, r0
 8006354:	4619      	mov	r1, r3
 8006356:	7afb      	ldrb	r3, [r7, #11]
 8006358:	4a70      	ldr	r2, [pc, #448]	; (800651c <ButtonScanTypeEdge+0x1f4>)
 800635a:	00db      	lsls	r3, r3, #3
 800635c:	4413      	add	r3, r2
 800635e:	799b      	ldrb	r3, [r3, #6]
 8006360:	4299      	cmp	r1, r3
 8006362:	d10a      	bne.n	800637a <ButtonScanTypeEdge+0x52>
 8006364:	68fb      	ldr	r3, [r7, #12]
 8006366:	7b5b      	ldrb	r3, [r3, #13]
 8006368:	2bff      	cmp	r3, #255	; 0xff
 800636a:	d013      	beq.n	8006394 <ButtonScanTypeEdge+0x6c>
 800636c:	68fb      	ldr	r3, [r7, #12]
 800636e:	7b5b      	ldrb	r3, [r3, #13]
 8006370:	3301      	adds	r3, #1
 8006372:	b2da      	uxtb	r2, r3
 8006374:	68fb      	ldr	r3, [r7, #12]
 8006376:	735a      	strb	r2, [r3, #13]
 8006378:	e00c      	b.n	8006394 <ButtonScanTypeEdge+0x6c>
 800637a:	68fb      	ldr	r3, [r7, #12]
 800637c:	7b1b      	ldrb	r3, [r3, #12]
 800637e:	2bff      	cmp	r3, #255	; 0xff
 8006380:	d005      	beq.n	800638e <ButtonScanTypeEdge+0x66>
 8006382:	68fb      	ldr	r3, [r7, #12]
 8006384:	7b1b      	ldrb	r3, [r3, #12]
 8006386:	3301      	adds	r3, #1
 8006388:	b2da      	uxtb	r2, r3
 800638a:	68fb      	ldr	r3, [r7, #12]
 800638c:	731a      	strb	r2, [r3, #12]
 800638e:	68fb      	ldr	r3, [r7, #12]
 8006390:	2200      	movs	r2, #0
 8006392:	735a      	strb	r2, [r3, #13]
 8006394:	68fb      	ldr	r3, [r7, #12]
 8006396:	7b1b      	ldrb	r3, [r3, #12]
 8006398:	2b09      	cmp	r3, #9
 800639a:	d958      	bls.n	800644e <ButtonScanTypeEdge+0x126>
 800639c:	68fb      	ldr	r3, [r7, #12]
 800639e:	7a5b      	ldrb	r3, [r3, #9]
 80063a0:	2b01      	cmp	r3, #1
 80063a2:	d118      	bne.n	80063d6 <ButtonScanTypeEdge+0xae>
 80063a4:	68fb      	ldr	r3, [r7, #12]
 80063a6:	2200      	movs	r2, #0
 80063a8:	725a      	strb	r2, [r3, #9]
 80063aa:	4b5d      	ldr	r3, [pc, #372]	; (8006520 <ButtonScanTypeEdge+0x1f8>)
 80063ac:	681b      	ldr	r3, [r3, #0]
 80063ae:	2b00      	cmp	r3, #0
 80063b0:	d00b      	beq.n	80063ca <ButtonScanTypeEdge+0xa2>
 80063b2:	68fb      	ldr	r3, [r7, #12]
 80063b4:	7adb      	ldrb	r3, [r3, #11]
 80063b6:	f003 0302 	and.w	r3, r3, #2
 80063ba:	2b00      	cmp	r3, #0
 80063bc:	d005      	beq.n	80063ca <ButtonScanTypeEdge+0xa2>
 80063be:	4b58      	ldr	r3, [pc, #352]	; (8006520 <ButtonScanTypeEdge+0x1f8>)
 80063c0:	681b      	ldr	r3, [r3, #0]
 80063c2:	7afa      	ldrb	r2, [r7, #11]
 80063c4:	2101      	movs	r1, #1
 80063c6:	4610      	mov	r0, r2
 80063c8:	4798      	blx	r3
 80063ca:	68fb      	ldr	r3, [r7, #12]
 80063cc:	7b1b      	ldrb	r3, [r3, #12]
 80063ce:	461a      	mov	r2, r3
 80063d0:	68fb      	ldr	r3, [r7, #12]
 80063d2:	601a      	str	r2, [r3, #0]
 80063d4:	e03b      	b.n	800644e <ButtonScanTypeEdge+0x126>
 80063d6:	68fb      	ldr	r3, [r7, #12]
 80063d8:	681b      	ldr	r3, [r3, #0]
 80063da:	1c5a      	adds	r2, r3, #1
 80063dc:	68fb      	ldr	r3, [r7, #12]
 80063de:	601a      	str	r2, [r3, #0]
 80063e0:	68fb      	ldr	r3, [r7, #12]
 80063e2:	681b      	ldr	r3, [r3, #0]
 80063e4:	2b4f      	cmp	r3, #79	; 0x4f
 80063e6:	d932      	bls.n	800644e <ButtonScanTypeEdge+0x126>
 80063e8:	68fb      	ldr	r3, [r7, #12]
 80063ea:	685b      	ldr	r3, [r3, #4]
 80063ec:	2b00      	cmp	r3, #0
 80063ee:	d012      	beq.n	8006416 <ButtonScanTypeEdge+0xee>
 80063f0:	4b4b      	ldr	r3, [pc, #300]	; (8006520 <ButtonScanTypeEdge+0x1f8>)
 80063f2:	68db      	ldr	r3, [r3, #12]
 80063f4:	2b00      	cmp	r3, #0
 80063f6:	d024      	beq.n	8006442 <ButtonScanTypeEdge+0x11a>
 80063f8:	68fb      	ldr	r3, [r7, #12]
 80063fa:	7adb      	ldrb	r3, [r3, #11]
 80063fc:	f003 0301 	and.w	r3, r3, #1
 8006400:	2b00      	cmp	r3, #0
 8006402:	d01e      	beq.n	8006442 <ButtonScanTypeEdge+0x11a>
 8006404:	4b46      	ldr	r3, [pc, #280]	; (8006520 <ButtonScanTypeEdge+0x1f8>)
 8006406:	68db      	ldr	r3, [r3, #12]
 8006408:	68fa      	ldr	r2, [r7, #12]
 800640a:	6852      	ldr	r2, [r2, #4]
 800640c:	b291      	uxth	r1, r2
 800640e:	7afa      	ldrb	r2, [r7, #11]
 8006410:	4610      	mov	r0, r2
 8006412:	4798      	blx	r3
 8006414:	e015      	b.n	8006442 <ButtonScanTypeEdge+0x11a>
 8006416:	4b42      	ldr	r3, [pc, #264]	; (8006520 <ButtonScanTypeEdge+0x1f8>)
 8006418:	685b      	ldr	r3, [r3, #4]
 800641a:	2b00      	cmp	r3, #0
 800641c:	d011      	beq.n	8006442 <ButtonScanTypeEdge+0x11a>
 800641e:	68fb      	ldr	r3, [r7, #12]
 8006420:	7adb      	ldrb	r3, [r3, #11]
 8006422:	f003 0301 	and.w	r3, r3, #1
 8006426:	2b00      	cmp	r3, #0
 8006428:	d00b      	beq.n	8006442 <ButtonScanTypeEdge+0x11a>
 800642a:	68fb      	ldr	r3, [r7, #12]
 800642c:	7a1b      	ldrb	r3, [r3, #8]
 800642e:	2b00      	cmp	r3, #0
 8006430:	d007      	beq.n	8006442 <ButtonScanTypeEdge+0x11a>
 8006432:	4b3b      	ldr	r3, [pc, #236]	; (8006520 <ButtonScanTypeEdge+0x1f8>)
 8006434:	685b      	ldr	r3, [r3, #4]
 8006436:	68fa      	ldr	r2, [r7, #12]
 8006438:	7a12      	ldrb	r2, [r2, #8]
 800643a:	b291      	uxth	r1, r2
 800643c:	7afa      	ldrb	r2, [r7, #11]
 800643e:	4610      	mov	r0, r2
 8006440:	4798      	blx	r3
 8006442:	68fb      	ldr	r3, [r7, #12]
 8006444:	2200      	movs	r2, #0
 8006446:	605a      	str	r2, [r3, #4]
 8006448:	68fb      	ldr	r3, [r7, #12]
 800644a:	2200      	movs	r2, #0
 800644c:	721a      	strb	r2, [r3, #8]
 800644e:	68fb      	ldr	r3, [r7, #12]
 8006450:	7b5b      	ldrb	r3, [r3, #13]
 8006452:	2b09      	cmp	r3, #9
 8006454:	d95e      	bls.n	8006514 <ButtonScanTypeEdge+0x1ec>
 8006456:	68fb      	ldr	r3, [r7, #12]
 8006458:	2200      	movs	r2, #0
 800645a:	731a      	strb	r2, [r3, #12]
 800645c:	68fb      	ldr	r3, [r7, #12]
 800645e:	7a5b      	ldrb	r3, [r3, #9]
 8006460:	2b00      	cmp	r3, #0
 8006462:	d11e      	bne.n	80064a2 <ButtonScanTypeEdge+0x17a>
 8006464:	68fb      	ldr	r3, [r7, #12]
 8006466:	2201      	movs	r2, #1
 8006468:	725a      	strb	r2, [r3, #9]
 800646a:	4b2d      	ldr	r3, [pc, #180]	; (8006520 <ButtonScanTypeEdge+0x1f8>)
 800646c:	681b      	ldr	r3, [r3, #0]
 800646e:	2b00      	cmp	r3, #0
 8006470:	d00b      	beq.n	800648a <ButtonScanTypeEdge+0x162>
 8006472:	68fb      	ldr	r3, [r7, #12]
 8006474:	7adb      	ldrb	r3, [r3, #11]
 8006476:	f003 0302 	and.w	r3, r3, #2
 800647a:	2b00      	cmp	r3, #0
 800647c:	d005      	beq.n	800648a <ButtonScanTypeEdge+0x162>
 800647e:	4b28      	ldr	r3, [pc, #160]	; (8006520 <ButtonScanTypeEdge+0x1f8>)
 8006480:	681b      	ldr	r3, [r3, #0]
 8006482:	7afa      	ldrb	r2, [r7, #11]
 8006484:	2100      	movs	r1, #0
 8006486:	4610      	mov	r0, r2
 8006488:	4798      	blx	r3
 800648a:	68fb      	ldr	r3, [r7, #12]
 800648c:	7b5b      	ldrb	r3, [r3, #13]
 800648e:	461a      	mov	r2, r3
 8006490:	68fb      	ldr	r3, [r7, #12]
 8006492:	601a      	str	r2, [r3, #0]
 8006494:	68fb      	ldr	r3, [r7, #12]
 8006496:	7a1b      	ldrb	r3, [r3, #8]
 8006498:	3301      	adds	r3, #1
 800649a:	b2da      	uxtb	r2, r3
 800649c:	68fb      	ldr	r3, [r7, #12]
 800649e:	721a      	strb	r2, [r3, #8]
 80064a0:	e038      	b.n	8006514 <ButtonScanTypeEdge+0x1ec>
 80064a2:	68fb      	ldr	r3, [r7, #12]
 80064a4:	681b      	ldr	r3, [r3, #0]
 80064a6:	1c5a      	adds	r2, r3, #1
 80064a8:	68fb      	ldr	r3, [r7, #12]
 80064aa:	601a      	str	r2, [r3, #0]
 80064ac:	68fb      	ldr	r3, [r7, #12]
 80064ae:	681b      	ldr	r3, [r3, #0]
 80064b0:	2b77      	cmp	r3, #119	; 0x77
 80064b2:	d92f      	bls.n	8006514 <ButtonScanTypeEdge+0x1ec>
 80064b4:	68fb      	ldr	r3, [r7, #12]
 80064b6:	2200      	movs	r2, #0
 80064b8:	721a      	strb	r2, [r3, #8]
 80064ba:	68fb      	ldr	r3, [r7, #12]
 80064bc:	681a      	ldr	r2, [r3, #0]
 80064be:	68fb      	ldr	r3, [r7, #12]
 80064c0:	605a      	str	r2, [r3, #4]
 80064c2:	68fb      	ldr	r3, [r7, #12]
 80064c4:	685b      	ldr	r3, [r3, #4]
 80064c6:	2b78      	cmp	r3, #120	; 0x78
 80064c8:	d012      	beq.n	80064f0 <ButtonScanTypeEdge+0x1c8>
 80064ca:	68fb      	ldr	r3, [r7, #12]
 80064cc:	685b      	ldr	r3, [r3, #4]
 80064ce:	2bc8      	cmp	r3, #200	; 0xc8
 80064d0:	d00e      	beq.n	80064f0 <ButtonScanTypeEdge+0x1c8>
 80064d2:	68fb      	ldr	r3, [r7, #12]
 80064d4:	685b      	ldr	r3, [r3, #4]
 80064d6:	f5b3 7f16 	cmp.w	r3, #600	; 0x258
 80064da:	d009      	beq.n	80064f0 <ButtonScanTypeEdge+0x1c8>
 80064dc:	68fb      	ldr	r3, [r7, #12]
 80064de:	685b      	ldr	r3, [r3, #4]
 80064e0:	f5b3 7f7a 	cmp.w	r3, #1000	; 0x3e8
 80064e4:	d004      	beq.n	80064f0 <ButtonScanTypeEdge+0x1c8>
 80064e6:	68fb      	ldr	r3, [r7, #12]
 80064e8:	685b      	ldr	r3, [r3, #4]
 80064ea:	f5b3 6ffa 	cmp.w	r3, #2000	; 0x7d0
 80064ee:	d111      	bne.n	8006514 <ButtonScanTypeEdge+0x1ec>
 80064f0:	4b0b      	ldr	r3, [pc, #44]	; (8006520 <ButtonScanTypeEdge+0x1f8>)
 80064f2:	689b      	ldr	r3, [r3, #8]
 80064f4:	2b00      	cmp	r3, #0
 80064f6:	d00d      	beq.n	8006514 <ButtonScanTypeEdge+0x1ec>
 80064f8:	68fb      	ldr	r3, [r7, #12]
 80064fa:	7adb      	ldrb	r3, [r3, #11]
 80064fc:	f003 0301 	and.w	r3, r3, #1
 8006500:	2b00      	cmp	r3, #0
 8006502:	d007      	beq.n	8006514 <ButtonScanTypeEdge+0x1ec>
 8006504:	4b06      	ldr	r3, [pc, #24]	; (8006520 <ButtonScanTypeEdge+0x1f8>)
 8006506:	689b      	ldr	r3, [r3, #8]
 8006508:	68fa      	ldr	r2, [r7, #12]
 800650a:	6852      	ldr	r2, [r2, #4]
 800650c:	b291      	uxth	r1, r2
 800650e:	7afa      	ldrb	r2, [r7, #11]
 8006510:	4610      	mov	r0, r2
 8006512:	4798      	blx	r3
 8006514:	bf00      	nop
 8006516:	3710      	adds	r7, #16
 8006518:	46bd      	mov	sp, r7
 800651a:	bd80      	pop	{r7, pc}
 800651c:	20000038 	.word	0x20000038
 8006520:	200016a0 	.word	0x200016a0

08006524 <ButtonScan>:
 8006524:	b580      	push	{r7, lr}
 8006526:	b084      	sub	sp, #16
 8006528:	af00      	add	r7, sp, #0
 800652a:	6078      	str	r0, [r7, #4]
 800652c:	2300      	movs	r3, #0
 800652e:	73fb      	strb	r3, [r7, #15]
 8006530:	e014      	b.n	800655c <ButtonScan+0x38>
 8006532:	7bfa      	ldrb	r2, [r7, #15]
 8006534:	490d      	ldr	r1, [pc, #52]	; (800656c <ButtonScan+0x48>)
 8006536:	4613      	mov	r3, r2
 8006538:	009b      	lsls	r3, r3, #2
 800653a:	4413      	add	r3, r2
 800653c:	009b      	lsls	r3, r3, #2
 800653e:	440b      	add	r3, r1
 8006540:	3310      	adds	r3, #16
 8006542:	6819      	ldr	r1, [r3, #0]
 8006544:	7bfa      	ldrb	r2, [r7, #15]
 8006546:	4613      	mov	r3, r2
 8006548:	009b      	lsls	r3, r3, #2
 800654a:	4413      	add	r3, r2
 800654c:	009b      	lsls	r3, r3, #2
 800654e:	4a07      	ldr	r2, [pc, #28]	; (800656c <ButtonScan+0x48>)
 8006550:	4413      	add	r3, r2
 8006552:	4618      	mov	r0, r3
 8006554:	4788      	blx	r1
 8006556:	7bfb      	ldrb	r3, [r7, #15]
 8006558:	3301      	adds	r3, #1
 800655a:	73fb      	strb	r3, [r7, #15]
 800655c:	7bfb      	ldrb	r3, [r7, #15]
 800655e:	2b05      	cmp	r3, #5
 8006560:	d9e7      	bls.n	8006532 <ButtonScan+0xe>
 8006562:	bf00      	nop
 8006564:	3710      	adds	r7, #16
 8006566:	46bd      	mov	sp, r7
 8006568:	bd80      	pop	{r7, pc}
 800656a:	bf00      	nop
 800656c:	20001628 	.word	0x20001628

08006570 <BTNGPIO_Init>:
 8006570:	b580      	push	{r7, lr}
 8006572:	b082      	sub	sp, #8
 8006574:	af00      	add	r7, sp, #0
 8006576:	2101      	movs	r1, #1
 8006578:	2001      	movs	r0, #1
 800657a:	f7ff f913 	bl	80057a4 <RCC_AHB1PeriphClockCmd>
 800657e:	2101      	movs	r1, #1
 8006580:	2002      	movs	r0, #2
 8006582:	f7ff f90f 	bl	80057a4 <RCC_AHB1PeriphClockCmd>
 8006586:	2101      	movs	r1, #1
 8006588:	2004      	movs	r0, #4
 800658a:	f7ff f90b 	bl	80057a4 <RCC_AHB1PeriphClockCmd>
 800658e:	2300      	movs	r3, #0
 8006590:	713b      	strb	r3, [r7, #4]
 8006592:	2303      	movs	r3, #3
 8006594:	717b      	strb	r3, [r7, #5]
 8006596:	2301      	movs	r3, #1
 8006598:	71fb      	strb	r3, [r7, #7]
 800659a:	f44f 5300 	mov.w	r3, #8192	; 0x2000
 800659e:	603b      	str	r3, [r7, #0]
 80065a0:	463b      	mov	r3, r7
 80065a2:	4619      	mov	r1, r3
 80065a4:	480a      	ldr	r0, [pc, #40]	; (80065d0 <BTNGPIO_Init+0x60>)
 80065a6:	f7fe fd4b 	bl	8005040 <GPIO_Init>
 80065aa:	2339      	movs	r3, #57	; 0x39
 80065ac:	603b      	str	r3, [r7, #0]
 80065ae:	463b      	mov	r3, r7
 80065b0:	4619      	mov	r1, r3
 80065b2:	4808      	ldr	r0, [pc, #32]	; (80065d4 <BTNGPIO_Init+0x64>)
 80065b4:	f7fe fd44 	bl	8005040 <GPIO_Init>
 80065b8:	2310      	movs	r3, #16
 80065ba:	603b      	str	r3, [r7, #0]
 80065bc:	463b      	mov	r3, r7
 80065be:	4619      	mov	r1, r3
 80065c0:	4805      	ldr	r0, [pc, #20]	; (80065d8 <BTNGPIO_Init+0x68>)
 80065c2:	f7fe fd3d 	bl	8005040 <GPIO_Init>
 80065c6:	bf00      	nop
 80065c8:	3708      	adds	r7, #8
 80065ca:	46bd      	mov	sp, r7
 80065cc:	bd80      	pop	{r7, pc}
 80065ce:	bf00      	nop
 80065d0:	40020800 	.word	0x40020800
 80065d4:	40020400 	.word	0x40020400
 80065d8:	40020000 	.word	0x40020000

080065dc <ucg_clip_is_x_visible>:
 80065dc:	b480      	push	{r7}
 80065de:	b085      	sub	sp, #20
 80065e0:	af00      	add	r7, sp, #0
 80065e2:	6078      	str	r0, [r7, #4]
 80065e4:	687b      	ldr	r3, [r7, #4]
 80065e6:	8c9b      	ldrh	r3, [r3, #36]	; 0x24
 80065e8:	81fb      	strh	r3, [r7, #14]
 80065ea:	89fa      	ldrh	r2, [r7, #14]
 80065ec:	687b      	ldr	r3, [r7, #4]
 80065ee:	f9b3 3070 	ldrsh.w	r3, [r3, #112]	; 0x70
 80065f2:	b29b      	uxth	r3, r3
 80065f4:	1ad3      	subs	r3, r2, r3
 80065f6:	b29b      	uxth	r3, r3
 80065f8:	81fb      	strh	r3, [r7, #14]
 80065fa:	f9b7 300e 	ldrsh.w	r3, [r7, #14]
 80065fe:	2b00      	cmp	r3, #0
 8006600:	da01      	bge.n	8006606 <ucg_clip_is_x_visible+0x2a>
 8006602:	2300      	movs	r3, #0
 8006604:	e009      	b.n	800661a <ucg_clip_is_x_visible+0x3e>
 8006606:	687b      	ldr	r3, [r7, #4]
 8006608:	f9b3 3074 	ldrsh.w	r3, [r3, #116]	; 0x74
 800660c:	f9b7 200e 	ldrsh.w	r2, [r7, #14]
 8006610:	429a      	cmp	r2, r3
 8006612:	db01      	blt.n	8006618 <ucg_clip_is_x_visible+0x3c>
 8006614:	2300      	movs	r3, #0
 8006616:	e000      	b.n	800661a <ucg_clip_is_x_visible+0x3e>
 8006618:	2301      	movs	r3, #1
 800661a:	4618      	mov	r0, r3
 800661c:	3714      	adds	r7, #20
 800661e:	46bd      	mov	sp, r7
 8006620:	f85d 7b04 	ldr.w	r7, [sp], #4
 8006624:	4770      	bx	lr

08006626 <ucg_clip_is_y_visible>:
 8006626:	b480      	push	{r7}
 8006628:	b085      	sub	sp, #20
 800662a:	af00      	add	r7, sp, #0
 800662c:	6078      	str	r0, [r7, #4]
 800662e:	687b      	ldr	r3, [r7, #4]
 8006630:	8cdb      	ldrh	r3, [r3, #38]	; 0x26
 8006632:	81fb      	strh	r3, [r7, #14]
 8006634:	89fa      	ldrh	r2, [r7, #14]
 8006636:	687b      	ldr	r3, [r7, #4]
 8006638:	f9b3 3072 	ldrsh.w	r3, [r3, #114]	; 0x72
 800663c:	b29b      	uxth	r3, r3
 800663e:	1ad3      	subs	r3, r2, r3
 8006640:	b29b      	uxth	r3, r3
 8006642:	81fb      	strh	r3, [r7, #14]
 8006644:	f9b7 300e 	ldrsh.w	r3, [r7, #14]
 8006648:	2b00      	cmp	r3, #0
 800664a:	da01      	bge.n	8006650 <ucg_clip_is_y_visible+0x2a>
 800664c:	2300      	movs	r3, #0
 800664e:	e009      	b.n	8006664 <ucg_clip_is_y_visible+0x3e>
 8006650:	687b      	ldr	r3, [r7, #4]
 8006652:	f9b3 3076 	ldrsh.w	r3, [r3, #118]	; 0x76
 8006656:	f9b7 200e 	ldrsh.w	r2, [r7, #14]
 800665a:	429a      	cmp	r2, r3
 800665c:	db01      	blt.n	8006662 <ucg_clip_is_y_visible+0x3c>
 800665e:	2300      	movs	r3, #0
 8006660:	e000      	b.n	8006664 <ucg_clip_is_y_visible+0x3e>
 8006662:	2301      	movs	r3, #1
 8006664:	4618      	mov	r0, r3
 8006666:	3714      	adds	r7, #20
 8006668:	46bd      	mov	sp, r7
 800666a:	f85d 7b04 	ldr.w	r7, [sp], #4
 800666e:	4770      	bx	lr

08006670 <ucg_clip_intersection>:
 8006670:	b480      	push	{r7}
 8006672:	b087      	sub	sp, #28
 8006674:	af00      	add	r7, sp, #0
 8006676:	60f8      	str	r0, [r7, #12]
 8006678:	60b9      	str	r1, [r7, #8]
 800667a:	4611      	mov	r1, r2
 800667c:	461a      	mov	r2, r3
 800667e:	460b      	mov	r3, r1
 8006680:	80fb      	strh	r3, [r7, #6]
 8006682:	4613      	mov	r3, r2
 8006684:	80bb      	strh	r3, [r7, #4]
 8006686:	68fb      	ldr	r3, [r7, #12]
 8006688:	881b      	ldrh	r3, [r3, #0]
 800668a:	82fb      	strh	r3, [r7, #22]
 800668c:	68bb      	ldr	r3, [r7, #8]
 800668e:	881b      	ldrh	r3, [r3, #0]
 8006690:	82bb      	strh	r3, [r7, #20]
 8006692:	f9b7 2016 	ldrsh.w	r2, [r7, #22]
 8006696:	f9b7 3004 	ldrsh.w	r3, [r7, #4]
 800669a:	429a      	cmp	r2, r3
 800669c:	db01      	blt.n	80066a2 <ucg_clip_intersection+0x32>
 800669e:	2300      	movs	r3, #0
 80066a0:	e01a      	b.n	80066d8 <ucg_clip_intersection+0x68>
 80066a2:	f9b7 2014 	ldrsh.w	r2, [r7, #20]
 80066a6:	f9b7 3006 	ldrsh.w	r3, [r7, #6]
 80066aa:	429a      	cmp	r2, r3
 80066ac:	dc01      	bgt.n	80066b2 <ucg_clip_intersection+0x42>
 80066ae:	2300      	movs	r3, #0
 80066b0:	e012      	b.n	80066d8 <ucg_clip_intersection+0x68>
 80066b2:	f9b7 2016 	ldrsh.w	r2, [r7, #22]
 80066b6:	f9b7 3006 	ldrsh.w	r3, [r7, #6]
 80066ba:	429a      	cmp	r2, r3
 80066bc:	da02      	bge.n	80066c4 <ucg_clip_intersection+0x54>
 80066be:	68fb      	ldr	r3, [r7, #12]
 80066c0:	88fa      	ldrh	r2, [r7, #6]
 80066c2:	801a      	strh	r2, [r3, #0]
 80066c4:	f9b7 2014 	ldrsh.w	r2, [r7, #20]
 80066c8:	f9b7 3004 	ldrsh.w	r3, [r7, #4]
 80066cc:	429a      	cmp	r2, r3
 80066ce:	dd02      	ble.n	80066d6 <ucg_clip_intersection+0x66>
 80066d0:	68bb      	ldr	r3, [r7, #8]
 80066d2:	88ba      	ldrh	r2, [r7, #4]
 80066d4:	801a      	strh	r2, [r3, #0]
 80066d6:	2301      	movs	r3, #1
 80066d8:	4618      	mov	r0, r3
 80066da:	371c      	adds	r7, #28
 80066dc:	46bd      	mov	sp, r7
 80066de:	f85d 7b04 	ldr.w	r7, [sp], #4
 80066e2:	4770      	bx	lr

080066e4 <ucg_clip_is_pixel_visible>:
 80066e4:	b580      	push	{r7, lr}
 80066e6:	b082      	sub	sp, #8
 80066e8:	af00      	add	r7, sp, #0
 80066ea:	6078      	str	r0, [r7, #4]
 80066ec:	6878      	ldr	r0, [r7, #4]
 80066ee:	f7ff ff75 	bl	80065dc <ucg_clip_is_x_visible>
 80066f2:	4603      	mov	r3, r0
 80066f4:	2b00      	cmp	r3, #0
 80066f6:	d101      	bne.n	80066fc <ucg_clip_is_pixel_visible+0x18>
 80066f8:	2300      	movs	r3, #0
 80066fa:	e008      	b.n	800670e <ucg_clip_is_pixel_visible+0x2a>
 80066fc:	6878      	ldr	r0, [r7, #4]
 80066fe:	f7ff ff92 	bl	8006626 <ucg_clip_is_y_visible>
 8006702:	4603      	mov	r3, r0
 8006704:	2b00      	cmp	r3, #0
 8006706:	d101      	bne.n	800670c <ucg_clip_is_pixel_visible+0x28>
 8006708:	2300      	movs	r3, #0
 800670a:	e000      	b.n	800670e <ucg_clip_is_pixel_visible+0x2a>
 800670c:	2301      	movs	r3, #1
 800670e:	4618      	mov	r0, r3
 8006710:	3708      	adds	r7, #8
 8006712:	46bd      	mov	sp, r7
 8006714:	bd80      	pop	{r7, pc}
	...

08006718 <ucg_clip_l90fx>:
 8006718:	b590      	push	{r4, r7, lr}
 800671a:	b085      	sub	sp, #20
 800671c:	af00      	add	r7, sp, #0
 800671e:	6078      	str	r0, [r7, #4]
 8006720:	687b      	ldr	r3, [r7, #4]
 8006722:	2200      	movs	r2, #0
 8006724:	861a      	strh	r2, [r3, #48]	; 0x30
 8006726:	687b      	ldr	r3, [r7, #4]
 8006728:	f9b3 302e 	ldrsh.w	r3, [r3, #46]	; 0x2e
 800672c:	2b03      	cmp	r3, #3
 800672e:	f200 816d 	bhi.w	8006a0c <ucg_clip_l90fx+0x2f4>
 8006732:	a201      	add	r2, pc, #4	; (adr r2, 8006738 <ucg_clip_l90fx+0x20>)
 8006734:	f852 f023 	ldr.w	pc, [r2, r3, lsl #2]
 8006738:	08006749 	.word	0x08006749
 800673c:	080067ef 	.word	0x080067ef
 8006740:	08006895 	.word	0x08006895
 8006744:	08006951 	.word	0x08006951
 8006748:	6878      	ldr	r0, [r7, #4]
 800674a:	f7ff ff6c 	bl	8006626 <ucg_clip_is_y_visible>
 800674e:	4603      	mov	r3, r0
 8006750:	2b00      	cmp	r3, #0
 8006752:	d101      	bne.n	8006758 <ucg_clip_l90fx+0x40>
 8006754:	2300      	movs	r3, #0
 8006756:	e15a      	b.n	8006a0e <ucg_clip_l90fx+0x2f6>
 8006758:	687b      	ldr	r3, [r7, #4]
 800675a:	f9b3 3024 	ldrsh.w	r3, [r3, #36]	; 0x24
 800675e:	81fb      	strh	r3, [r7, #14]
 8006760:	f9b7 300e 	ldrsh.w	r3, [r7, #14]
 8006764:	81bb      	strh	r3, [r7, #12]
 8006766:	687b      	ldr	r3, [r7, #4]
 8006768:	f9b3 302c 	ldrsh.w	r3, [r3, #44]	; 0x2c
 800676c:	b29a      	uxth	r2, r3
 800676e:	f9b7 300c 	ldrsh.w	r3, [r7, #12]
 8006772:	b29b      	uxth	r3, r3
 8006774:	4413      	add	r3, r2
 8006776:	b29b      	uxth	r3, r3
 8006778:	b21b      	sxth	r3, r3
 800677a:	81bb      	strh	r3, [r7, #12]
 800677c:	687b      	ldr	r3, [r7, #4]
 800677e:	f9b3 4070 	ldrsh.w	r4, [r3, #112]	; 0x70
 8006782:	687b      	ldr	r3, [r7, #4]
 8006784:	f9b3 3070 	ldrsh.w	r3, [r3, #112]	; 0x70
 8006788:	b29a      	uxth	r2, r3
 800678a:	687b      	ldr	r3, [r7, #4]
 800678c:	f9b3 3074 	ldrsh.w	r3, [r3, #116]	; 0x74
 8006790:	b29b      	uxth	r3, r3
 8006792:	4413      	add	r3, r2
 8006794:	b29b      	uxth	r3, r3
 8006796:	b21b      	sxth	r3, r3
 8006798:	f107 010c 	add.w	r1, r7, #12
 800679c:	f107 000e 	add.w	r0, r7, #14
 80067a0:	4622      	mov	r2, r4
 80067a2:	f7ff ff65 	bl	8006670 <ucg_clip_intersection>
 80067a6:	4603      	mov	r3, r0
 80067a8:	2b00      	cmp	r3, #0
 80067aa:	d101      	bne.n	80067b0 <ucg_clip_l90fx+0x98>
 80067ac:	2300      	movs	r3, #0
 80067ae:	e12e      	b.n	8006a0e <ucg_clip_l90fx+0x2f6>
 80067b0:	f9b7 300e 	ldrsh.w	r3, [r7, #14]
 80067b4:	b29a      	uxth	r2, r3
 80067b6:	687b      	ldr	r3, [r7, #4]
 80067b8:	f9b3 3024 	ldrsh.w	r3, [r3, #36]	; 0x24
 80067bc:	b29b      	uxth	r3, r3
 80067be:	1ad3      	subs	r3, r2, r3
 80067c0:	b29b      	uxth	r3, r3
 80067c2:	b21a      	sxth	r2, r3
 80067c4:	687b      	ldr	r3, [r7, #4]
 80067c6:	861a      	strh	r2, [r3, #48]	; 0x30
 80067c8:	f9b7 200e 	ldrsh.w	r2, [r7, #14]
 80067cc:	687b      	ldr	r3, [r7, #4]
 80067ce:	849a      	strh	r2, [r3, #36]	; 0x24
 80067d0:	f9b7 300c 	ldrsh.w	r3, [r7, #12]
 80067d4:	b29a      	uxth	r2, r3
 80067d6:	f9b7 300e 	ldrsh.w	r3, [r7, #14]
 80067da:	b29b      	uxth	r3, r3
 80067dc:	1ad3      	subs	r3, r2, r3
 80067de:	b29b      	uxth	r3, r3
 80067e0:	b21b      	sxth	r3, r3
 80067e2:	81bb      	strh	r3, [r7, #12]
 80067e4:	f9b7 200c 	ldrsh.w	r2, [r7, #12]
 80067e8:	687b      	ldr	r3, [r7, #4]
 80067ea:	859a      	strh	r2, [r3, #44]	; 0x2c
 80067ec:	e10e      	b.n	8006a0c <ucg_clip_l90fx+0x2f4>
 80067ee:	6878      	ldr	r0, [r7, #4]
 80067f0:	f7ff fef4 	bl	80065dc <ucg_clip_is_x_visible>
 80067f4:	4603      	mov	r3, r0
 80067f6:	2b00      	cmp	r3, #0
 80067f8:	d101      	bne.n	80067fe <ucg_clip_l90fx+0xe6>
 80067fa:	2300      	movs	r3, #0
 80067fc:	e107      	b.n	8006a0e <ucg_clip_l90fx+0x2f6>
 80067fe:	687b      	ldr	r3, [r7, #4]
 8006800:	f9b3 3026 	ldrsh.w	r3, [r3, #38]	; 0x26
 8006804:	81fb      	strh	r3, [r7, #14]
 8006806:	f9b7 300e 	ldrsh.w	r3, [r7, #14]
 800680a:	81bb      	strh	r3, [r7, #12]
 800680c:	687b      	ldr	r3, [r7, #4]
 800680e:	f9b3 302c 	ldrsh.w	r3, [r3, #44]	; 0x2c
 8006812:	b29a      	uxth	r2, r3
 8006814:	f9b7 300c 	ldrsh.w	r3, [r7, #12]
 8006818:	b29b      	uxth	r3, r3
 800681a:	4413      	add	r3, r2
 800681c:	b29b      	uxth	r3, r3
 800681e:	b21b      	sxth	r3, r3
 8006820:	81bb      	strh	r3, [r7, #12]
 8006822:	687b      	ldr	r3, [r7, #4]
 8006824:	f9b3 4072 	ldrsh.w	r4, [r3, #114]	; 0x72
 8006828:	687b      	ldr	r3, [r7, #4]
 800682a:	f9b3 3072 	ldrsh.w	r3, [r3, #114]	; 0x72
 800682e:	b29a      	uxth	r2, r3
 8006830:	687b      	ldr	r3, [r7, #4]
 8006832:	f9b3 3076 	ldrsh.w	r3, [r3, #118]	; 0x76
 8006836:	b29b      	uxth	r3, r3
 8006838:	4413      	add	r3, r2
 800683a:	b29b      	uxth	r3, r3
 800683c:	b21b      	sxth	r3, r3
 800683e:	f107 010c 	add.w	r1, r7, #12
 8006842:	f107 000e 	add.w	r0, r7, #14
 8006846:	4622      	mov	r2, r4
 8006848:	f7ff ff12 	bl	8006670 <ucg_clip_intersection>
 800684c:	4603      	mov	r3, r0
 800684e:	2b00      	cmp	r3, #0
 8006850:	d101      	bne.n	8006856 <ucg_clip_l90fx+0x13e>
 8006852:	2300      	movs	r3, #0
 8006854:	e0db      	b.n	8006a0e <ucg_clip_l90fx+0x2f6>
 8006856:	f9b7 300e 	ldrsh.w	r3, [r7, #14]
 800685a:	b29a      	uxth	r2, r3
 800685c:	687b      	ldr	r3, [r7, #4]
 800685e:	f9b3 3026 	ldrsh.w	r3, [r3, #38]	; 0x26
 8006862:	b29b      	uxth	r3, r3
 8006864:	1ad3      	subs	r3, r2, r3
 8006866:	b29b      	uxth	r3, r3
 8006868:	b21a      	sxth	r2, r3
 800686a:	687b      	ldr	r3, [r7, #4]
 800686c:	861a      	strh	r2, [r3, #48]	; 0x30
 800686e:	f9b7 200e 	ldrsh.w	r2, [r7, #14]
 8006872:	687b      	ldr	r3, [r7, #4]
 8006874:	84da      	strh	r2, [r3, #38]	; 0x26
 8006876:	f9b7 300c 	ldrsh.w	r3, [r7, #12]
 800687a:	b29a      	uxth	r2, r3
 800687c:	f9b7 300e 	ldrsh.w	r3, [r7, #14]
 8006880:	b29b      	uxth	r3, r3
 8006882:	1ad3      	subs	r3, r2, r3
 8006884:	b29b      	uxth	r3, r3
 8006886:	b21b      	sxth	r3, r3
 8006888:	81bb      	strh	r3, [r7, #12]
 800688a:	f9b7 200c 	ldrsh.w	r2, [r7, #12]
 800688e:	687b      	ldr	r3, [r7, #4]
 8006890:	859a      	strh	r2, [r3, #44]	; 0x2c
 8006892:	e0bb      	b.n	8006a0c <ucg_clip_l90fx+0x2f4>
 8006894:	6878      	ldr	r0, [r7, #4]
 8006896:	f7ff fec6 	bl	8006626 <ucg_clip_is_y_visible>
 800689a:	4603      	mov	r3, r0
 800689c:	2b00      	cmp	r3, #0
 800689e:	d101      	bne.n	80068a4 <ucg_clip_l90fx+0x18c>
 80068a0:	2300      	movs	r3, #0
 80068a2:	e0b4      	b.n	8006a0e <ucg_clip_l90fx+0x2f6>
 80068a4:	687b      	ldr	r3, [r7, #4]
 80068a6:	f9b3 3024 	ldrsh.w	r3, [r3, #36]	; 0x24
 80068aa:	81bb      	strh	r3, [r7, #12]
 80068ac:	f9b7 300c 	ldrsh.w	r3, [r7, #12]
 80068b0:	b29b      	uxth	r3, r3
 80068b2:	3301      	adds	r3, #1
 80068b4:	b29b      	uxth	r3, r3
 80068b6:	b21b      	sxth	r3, r3
 80068b8:	81bb      	strh	r3, [r7, #12]
 80068ba:	f9b7 300c 	ldrsh.w	r3, [r7, #12]
 80068be:	81fb      	strh	r3, [r7, #14]
 80068c0:	f9b7 300e 	ldrsh.w	r3, [r7, #14]
 80068c4:	b29a      	uxth	r2, r3
 80068c6:	687b      	ldr	r3, [r7, #4]
 80068c8:	f9b3 302c 	ldrsh.w	r3, [r3, #44]	; 0x2c
 80068cc:	b29b      	uxth	r3, r3
 80068ce:	1ad3      	subs	r3, r2, r3
 80068d0:	b29b      	uxth	r3, r3
 80068d2:	b21b      	sxth	r3, r3
 80068d4:	81fb      	strh	r3, [r7, #14]
 80068d6:	687b      	ldr	r3, [r7, #4]
 80068d8:	f9b3 4070 	ldrsh.w	r4, [r3, #112]	; 0x70
 80068dc:	687b      	ldr	r3, [r7, #4]
 80068de:	f9b3 3070 	ldrsh.w	r3, [r3, #112]	; 0x70
 80068e2:	b29a      	uxth	r2, r3
 80068e4:	687b      	ldr	r3, [r7, #4]
 80068e6:	f9b3 3074 	ldrsh.w	r3, [r3, #116]	; 0x74
 80068ea:	b29b      	uxth	r3, r3
 80068ec:	4413      	add	r3, r2
 80068ee:	b29b      	uxth	r3, r3
 80068f0:	b21b      	sxth	r3, r3
 80068f2:	f107 010c 	add.w	r1, r7, #12
 80068f6:	f107 000e 	add.w	r0, r7, #14
 80068fa:	4622      	mov	r2, r4
 80068fc:	f7ff feb8 	bl	8006670 <ucg_clip_intersection>
 8006900:	4603      	mov	r3, r0
 8006902:	2b00      	cmp	r3, #0
 8006904:	d101      	bne.n	800690a <ucg_clip_l90fx+0x1f2>
 8006906:	2300      	movs	r3, #0
 8006908:	e081      	b.n	8006a0e <ucg_clip_l90fx+0x2f6>
 800690a:	f9b7 300c 	ldrsh.w	r3, [r7, #12]
 800690e:	b29a      	uxth	r2, r3
 8006910:	f9b7 300e 	ldrsh.w	r3, [r7, #14]
 8006914:	b29b      	uxth	r3, r3
 8006916:	1ad3      	subs	r3, r2, r3
 8006918:	b29b      	uxth	r3, r3
 800691a:	b21a      	sxth	r2, r3
 800691c:	687b      	ldr	r3, [r7, #4]
 800691e:	859a      	strh	r2, [r3, #44]	; 0x2c
 8006920:	f9b7 300c 	ldrsh.w	r3, [r7, #12]
 8006924:	b29b      	uxth	r3, r3
 8006926:	3b01      	subs	r3, #1
 8006928:	b29b      	uxth	r3, r3
 800692a:	b21b      	sxth	r3, r3
 800692c:	81bb      	strh	r3, [r7, #12]
 800692e:	687b      	ldr	r3, [r7, #4]
 8006930:	f9b3 3024 	ldrsh.w	r3, [r3, #36]	; 0x24
 8006934:	b29a      	uxth	r2, r3
 8006936:	f9b7 300c 	ldrsh.w	r3, [r7, #12]
 800693a:	b29b      	uxth	r3, r3
 800693c:	1ad3      	subs	r3, r2, r3
 800693e:	b29b      	uxth	r3, r3
 8006940:	b21a      	sxth	r2, r3
 8006942:	687b      	ldr	r3, [r7, #4]
 8006944:	861a      	strh	r2, [r3, #48]	; 0x30
 8006946:	f9b7 200c 	ldrsh.w	r2, [r7, #12]
 800694a:	687b      	ldr	r3, [r7, #4]
 800694c:	849a      	strh	r2, [r3, #36]	; 0x24
 800694e:	e05d      	b.n	8006a0c <ucg_clip_l90fx+0x2f4>
 8006950:	6878      	ldr	r0, [r7, #4]
 8006952:	f7ff fe43 	bl	80065dc <ucg_clip_is_x_visible>
 8006956:	4603      	mov	r3, r0
 8006958:	2b00      	cmp	r3, #0
 800695a:	d101      	bne.n	8006960 <ucg_clip_l90fx+0x248>
 800695c:	2300      	movs	r3, #0
 800695e:	e056      	b.n	8006a0e <ucg_clip_l90fx+0x2f6>
 8006960:	687b      	ldr	r3, [r7, #4]
 8006962:	f9b3 3026 	ldrsh.w	r3, [r3, #38]	; 0x26
 8006966:	81bb      	strh	r3, [r7, #12]
 8006968:	f9b7 300c 	ldrsh.w	r3, [r7, #12]
 800696c:	b29b      	uxth	r3, r3
 800696e:	3301      	adds	r3, #1
 8006970:	b29b      	uxth	r3, r3
 8006972:	b21b      	sxth	r3, r3
 8006974:	81bb      	strh	r3, [r7, #12]
 8006976:	f9b7 300c 	ldrsh.w	r3, [r7, #12]
 800697a:	81fb      	strh	r3, [r7, #14]
 800697c:	f9b7 300e 	ldrsh.w	r3, [r7, #14]
 8006980:	b29a      	uxth	r2, r3
 8006982:	687b      	ldr	r3, [r7, #4]
 8006984:	f9b3 302c 	ldrsh.w	r3, [r3, #44]	; 0x2c
 8006988:	b29b      	uxth	r3, r3
 800698a:	1ad3      	subs	r3, r2, r3
 800698c:	b29b      	uxth	r3, r3
 800698e:	b21b      	sxth	r3, r3
 8006990:	81fb      	strh	r3, [r7, #14]
 8006992:	687b      	ldr	r3, [r7, #4]
 8006994:	f9b3 4072 	ldrsh.w	r4, [r3, #114]	; 0x72
 8006998:	687b      	ldr	r3, [r7, #4]
 800699a:	f9b3 3072 	ldrsh.w	r3, [r3, #114]	; 0x72
 800699e:	b29a      	uxth	r2, r3
 80069a0:	687b      	ldr	r3, [r7, #4]
 80069a2:	f9b3 3076 	ldrsh.w	r3, [r3, #118]	; 0x76
 80069a6:	b29b      	uxth	r3, r3
 80069a8:	4413      	add	r3, r2
 80069aa:	b29b      	uxth	r3, r3
 80069ac:	b21b      	sxth	r3, r3
 80069ae:	f107 010c 	add.w	r1, r7, #12
 80069b2:	f107 000e 	add.w	r0, r7, #14
 80069b6:	4622      	mov	r2, r4
 80069b8:	f7ff fe5a 	bl	8006670 <ucg_clip_intersection>
 80069bc:	4603      	mov	r3, r0
 80069be:	2b00      	cmp	r3, #0
 80069c0:	d101      	bne.n	80069c6 <ucg_clip_l90fx+0x2ae>
 80069c2:	2300      	movs	r3, #0
 80069c4:	e023      	b.n	8006a0e <ucg_clip_l90fx+0x2f6>
 80069c6:	f9b7 300c 	ldrsh.w	r3, [r7, #12]
 80069ca:	b29a      	uxth	r2, r3
 80069cc:	f9b7 300e 	ldrsh.w	r3, [r7, #14]
 80069d0:	b29b      	uxth	r3, r3
 80069d2:	1ad3      	subs	r3, r2, r3
 80069d4:	b29b      	uxth	r3, r3
 80069d6:	b21a      	sxth	r2, r3
 80069d8:	687b      	ldr	r3, [r7, #4]
 80069da:	859a      	strh	r2, [r3, #44]	; 0x2c
 80069dc:	f9b7 300c 	ldrsh.w	r3, [r7, #12]
 80069e0:	b29b      	uxth	r3, r3
 80069e2:	3b01      	subs	r3, #1
 80069e4:	b29b      	uxth	r3, r3
 80069e6:	b21b      	sxth	r3, r3
 80069e8:	81bb      	strh	r3, [r7, #12]
 80069ea:	687b      	ldr	r3, [r7, #4]
 80069ec:	f9b3 3026 	ldrsh.w	r3, [r3, #38]	; 0x26
 80069f0:	b29a      	uxth	r2, r3
 80069f2:	f9b7 300c 	ldrsh.w	r3, [r7, #12]
 80069f6:	b29b      	uxth	r3, r3
 80069f8:	1ad3      	subs	r3, r2, r3
 80069fa:	b29b      	uxth	r3, r3
 80069fc:	b21a      	sxth	r2, r3
 80069fe:	687b      	ldr	r3, [r7, #4]
 8006a00:	861a      	strh	r2, [r3, #48]	; 0x30
 8006a02:	f9b7 200c 	ldrsh.w	r2, [r7, #12]
 8006a06:	687b      	ldr	r3, [r7, #4]
 8006a08:	84da      	strh	r2, [r3, #38]	; 0x26
 8006a0a:	bf00      	nop
 8006a0c:	2301      	movs	r3, #1
 8006a0e:	4618      	mov	r0, r3
 8006a10:	3714      	adds	r7, #20
 8006a12:	46bd      	mov	sp, r7
 8006a14:	bd90      	pop	{r4, r7, pc}
 8006a16:	bf00      	nop

08006a18 <ucg_clip_l90se>:
 8006a18:	b580      	push	{r7, lr}
 8006a1a:	b084      	sub	sp, #16
 8006a1c:	af00      	add	r7, sp, #0
 8006a1e:	6078      	str	r0, [r7, #4]
 8006a20:	6878      	ldr	r0, [r7, #4]
 8006a22:	f7ff fe79 	bl	8006718 <ucg_clip_l90fx>
 8006a26:	4603      	mov	r3, r0
 8006a28:	2b00      	cmp	r3, #0
 8006a2a:	d101      	bne.n	8006a30 <ucg_clip_l90se+0x18>
 8006a2c:	2300      	movs	r3, #0
 8006a2e:	e019      	b.n	8006a64 <ucg_clip_l90se+0x4c>
 8006a30:	2300      	movs	r3, #0
 8006a32:	73fb      	strb	r3, [r7, #15]
 8006a34:	e012      	b.n	8006a5c <ucg_clip_l90se+0x44>
 8006a36:	687b      	ldr	r3, [r7, #4]
 8006a38:	f103 0146 	add.w	r1, r3, #70	; 0x46
 8006a3c:	7bfa      	ldrb	r2, [r7, #15]
 8006a3e:	4613      	mov	r3, r2
 8006a40:	00db      	lsls	r3, r3, #3
 8006a42:	1a9b      	subs	r3, r3, r2
 8006a44:	005b      	lsls	r3, r3, #1
 8006a46:	18ca      	adds	r2, r1, r3
 8006a48:	687b      	ldr	r3, [r7, #4]
 8006a4a:	f9b3 3030 	ldrsh.w	r3, [r3, #48]	; 0x30
 8006a4e:	4619      	mov	r1, r3
 8006a50:	4610      	mov	r0, r2
 8006a52:	f7fc fbb2 	bl	80031ba <ucg_ccs_seek>
 8006a56:	7bfb      	ldrb	r3, [r7, #15]
 8006a58:	3301      	adds	r3, #1
 8006a5a:	73fb      	strb	r3, [r7, #15]
 8006a5c:	7bfb      	ldrb	r3, [r7, #15]
 8006a5e:	2b02      	cmp	r3, #2
 8006a60:	d9e9      	bls.n	8006a36 <ucg_clip_l90se+0x1e>
 8006a62:	2301      	movs	r3, #1
 8006a64:	4618      	mov	r0, r3
 8006a66:	3710      	adds	r7, #16
 8006a68:	46bd      	mov	sp, r7
 8006a6a:	bd80      	pop	{r7, pc}

08006a6c <ucg_com_PowerDown>:
 8006a6c:	b590      	push	{r4, r7, lr}
 8006a6e:	b083      	sub	sp, #12
 8006a70:	af00      	add	r7, sp, #0
 8006a72:	6078      	str	r0, [r7, #4]
 8006a74:	687b      	ldr	r3, [r7, #4]
 8006a76:	f893 30af 	ldrb.w	r3, [r3, #175]	; 0xaf
 8006a7a:	f003 0308 	and.w	r3, r3, #8
 8006a7e:	2b00      	cmp	r3, #0
 8006a80:	d006      	beq.n	8006a90 <ucg_com_PowerDown+0x24>
 8006a82:	687b      	ldr	r3, [r7, #4]
 8006a84:	69dc      	ldr	r4, [r3, #28]
 8006a86:	2300      	movs	r3, #0
 8006a88:	2200      	movs	r2, #0
 8006a8a:	210b      	movs	r1, #11
 8006a8c:	6878      	ldr	r0, [r7, #4]
 8006a8e:	47a0      	blx	r4
 8006a90:	687b      	ldr	r3, [r7, #4]
 8006a92:	f893 30af 	ldrb.w	r3, [r3, #175]	; 0xaf
 8006a96:	f023 0308 	bic.w	r3, r3, #8
 8006a9a:	b2da      	uxtb	r2, r3
 8006a9c:	687b      	ldr	r3, [r7, #4]
 8006a9e:	f883 20af 	strb.w	r2, [r3, #175]	; 0xaf
 8006aa2:	bf00      	nop
 8006aa4:	370c      	adds	r7, #12
 8006aa6:	46bd      	mov	sp, r7
 8006aa8:	bd90      	pop	{r4, r7, pc}

08006aaa <ucg_com_PowerUp>:
 8006aaa:	b590      	push	{r4, r7, lr}
 8006aac:	b085      	sub	sp, #20
 8006aae:	af00      	add	r7, sp, #0
 8006ab0:	6078      	str	r0, [r7, #4]
 8006ab2:	460b      	mov	r3, r1
 8006ab4:	807b      	strh	r3, [r7, #2]
 8006ab6:	4613      	mov	r3, r2
 8006ab8:	803b      	strh	r3, [r7, #0]
 8006aba:	887b      	ldrh	r3, [r7, #2]
 8006abc:	813b      	strh	r3, [r7, #8]
 8006abe:	883b      	ldrh	r3, [r7, #0]
 8006ac0:	817b      	strh	r3, [r7, #10]
 8006ac2:	6878      	ldr	r0, [r7, #4]
 8006ac4:	f7ff ffd2 	bl	8006a6c <ucg_com_PowerDown>
 8006ac8:	687b      	ldr	r3, [r7, #4]
 8006aca:	2200      	movs	r2, #0
 8006acc:	f883 20ae 	strb.w	r2, [r3, #174]	; 0xae
 8006ad0:	687b      	ldr	r3, [r7, #4]
 8006ad2:	69dc      	ldr	r4, [r3, #28]
 8006ad4:	f107 0308 	add.w	r3, r7, #8
 8006ad8:	2200      	movs	r2, #0
 8006ada:	210a      	movs	r1, #10
 8006adc:	6878      	ldr	r0, [r7, #4]
 8006ade:	47a0      	blx	r4
 8006ae0:	4603      	mov	r3, r0
 8006ae2:	81fb      	strh	r3, [r7, #14]
 8006ae4:	f9b7 300e 	ldrsh.w	r3, [r7, #14]
 8006ae8:	2b00      	cmp	r3, #0
 8006aea:	d008      	beq.n	8006afe <ucg_com_PowerUp+0x54>
 8006aec:	687b      	ldr	r3, [r7, #4]
 8006aee:	f893 30af 	ldrb.w	r3, [r3, #175]	; 0xaf
 8006af2:	f043 0308 	orr.w	r3, r3, #8
 8006af6:	b2da      	uxtb	r2, r3
 8006af8:	687b      	ldr	r3, [r7, #4]
 8006afa:	f883 20af 	strb.w	r2, [r3, #175]	; 0xaf
 8006afe:	f9b7 300e 	ldrsh.w	r3, [r7, #14]
 8006b02:	4618      	mov	r0, r3
 8006b04:	3714      	adds	r7, #20
 8006b06:	46bd      	mov	sp, r7
 8006b08:	bd90      	pop	{r4, r7, pc}

08006b0a <ucg_com_SetLineStatus>:
 8006b0a:	b590      	push	{r4, r7, lr}
 8006b0c:	b083      	sub	sp, #12
 8006b0e:	af00      	add	r7, sp, #0
 8006b10:	6078      	str	r0, [r7, #4]
 8006b12:	4608      	mov	r0, r1
 8006b14:	4611      	mov	r1, r2
 8006b16:	461a      	mov	r2, r3
 8006b18:	4603      	mov	r3, r0
 8006b1a:	70fb      	strb	r3, [r7, #3]
 8006b1c:	460b      	mov	r3, r1
 8006b1e:	70bb      	strb	r3, [r7, #2]
 8006b20:	4613      	mov	r3, r2
 8006b22:	707b      	strb	r3, [r7, #1]
 8006b24:	78fb      	ldrb	r3, [r7, #3]
 8006b26:	2b00      	cmp	r3, #0
 8006b28:	d131      	bne.n	8006b8e <ucg_com_SetLineStatus+0x84>
 8006b2a:	687b      	ldr	r3, [r7, #4]
 8006b2c:	f893 20ae 	ldrb.w	r2, [r3, #174]	; 0xae
 8006b30:	78bb      	ldrb	r3, [r7, #2]
 8006b32:	4013      	ands	r3, r2
 8006b34:	b2db      	uxtb	r3, r3
 8006b36:	2b00      	cmp	r3, #0
 8006b38:	d008      	beq.n	8006b4c <ucg_com_SetLineStatus+0x42>
 8006b3a:	687b      	ldr	r3, [r7, #4]
 8006b3c:	f893 20af 	ldrb.w	r2, [r3, #175]	; 0xaf
 8006b40:	78bb      	ldrb	r3, [r7, #2]
 8006b42:	4013      	ands	r3, r2
 8006b44:	b2db      	uxtb	r3, r3
 8006b46:	78ba      	ldrb	r2, [r7, #2]
 8006b48:	429a      	cmp	r2, r3
 8006b4a:	d14b      	bne.n	8006be4 <ucg_com_SetLineStatus+0xda>
 8006b4c:	687b      	ldr	r3, [r7, #4]
 8006b4e:	69dc      	ldr	r4, [r3, #28]
 8006b50:	787b      	ldrb	r3, [r7, #1]
 8006b52:	b219      	sxth	r1, r3
 8006b54:	78fb      	ldrb	r3, [r7, #3]
 8006b56:	b29a      	uxth	r2, r3
 8006b58:	2300      	movs	r3, #0
 8006b5a:	6878      	ldr	r0, [r7, #4]
 8006b5c:	47a0      	blx	r4
 8006b5e:	687b      	ldr	r3, [r7, #4]
 8006b60:	f893 30af 	ldrb.w	r3, [r3, #175]	; 0xaf
 8006b64:	b25a      	sxtb	r2, r3
 8006b66:	f997 3002 	ldrsb.w	r3, [r7, #2]
 8006b6a:	43db      	mvns	r3, r3
 8006b6c:	b25b      	sxtb	r3, r3
 8006b6e:	4013      	ands	r3, r2
 8006b70:	b25b      	sxtb	r3, r3
 8006b72:	b2da      	uxtb	r2, r3
 8006b74:	687b      	ldr	r3, [r7, #4]
 8006b76:	f883 20af 	strb.w	r2, [r3, #175]	; 0xaf
 8006b7a:	687b      	ldr	r3, [r7, #4]
 8006b7c:	f893 20ae 	ldrb.w	r2, [r3, #174]	; 0xae
 8006b80:	78bb      	ldrb	r3, [r7, #2]
 8006b82:	4313      	orrs	r3, r2
 8006b84:	b2da      	uxtb	r2, r3
 8006b86:	687b      	ldr	r3, [r7, #4]
 8006b88:	f883 20ae 	strb.w	r2, [r3, #174]	; 0xae
 8006b8c:	e02a      	b.n	8006be4 <ucg_com_SetLineStatus+0xda>
 8006b8e:	687b      	ldr	r3, [r7, #4]
 8006b90:	f893 20ae 	ldrb.w	r2, [r3, #174]	; 0xae
 8006b94:	78bb      	ldrb	r3, [r7, #2]
 8006b96:	4013      	ands	r3, r2
 8006b98:	b2db      	uxtb	r3, r3
 8006b9a:	2b00      	cmp	r3, #0
 8006b9c:	d007      	beq.n	8006bae <ucg_com_SetLineStatus+0xa4>
 8006b9e:	687b      	ldr	r3, [r7, #4]
 8006ba0:	f893 20af 	ldrb.w	r2, [r3, #175]	; 0xaf
 8006ba4:	78bb      	ldrb	r3, [r7, #2]
 8006ba6:	4013      	ands	r3, r2
 8006ba8:	b2db      	uxtb	r3, r3
 8006baa:	2b00      	cmp	r3, #0
 8006bac:	d11a      	bne.n	8006be4 <ucg_com_SetLineStatus+0xda>
 8006bae:	687b      	ldr	r3, [r7, #4]
 8006bb0:	69dc      	ldr	r4, [r3, #28]
 8006bb2:	787b      	ldrb	r3, [r7, #1]
 8006bb4:	b219      	sxth	r1, r3
 8006bb6:	78fb      	ldrb	r3, [r7, #3]
 8006bb8:	b29a      	uxth	r2, r3
 8006bba:	2300      	movs	r3, #0
 8006bbc:	6878      	ldr	r0, [r7, #4]
 8006bbe:	47a0      	blx	r4
 8006bc0:	687b      	ldr	r3, [r7, #4]
 8006bc2:	f893 20af 	ldrb.w	r2, [r3, #175]	; 0xaf
 8006bc6:	78bb      	ldrb	r3, [r7, #2]
 8006bc8:	4313      	orrs	r3, r2
 8006bca:	b2da      	uxtb	r2, r3
 8006bcc:	687b      	ldr	r3, [r7, #4]
 8006bce:	f883 20af 	strb.w	r2, [r3, #175]	; 0xaf
 8006bd2:	687b      	ldr	r3, [r7, #4]
 8006bd4:	f893 20ae 	ldrb.w	r2, [r3, #174]	; 0xae
 8006bd8:	78bb      	ldrb	r3, [r7, #2]
 8006bda:	4313      	orrs	r3, r2
 8006bdc:	b2da      	uxtb	r2, r3
 8006bde:	687b      	ldr	r3, [r7, #4]
 8006be0:	f883 20ae 	strb.w	r2, [r3, #174]	; 0xae
 8006be4:	bf00      	nop
 8006be6:	370c      	adds	r7, #12
 8006be8:	46bd      	mov	sp, r7
 8006bea:	bd90      	pop	{r4, r7, pc}

08006bec <ucg_com_SetResetLineStatus>:
 8006bec:	b580      	push	{r7, lr}
 8006bee:	b082      	sub	sp, #8
 8006bf0:	af00      	add	r7, sp, #0
 8006bf2:	6078      	str	r0, [r7, #4]
 8006bf4:	460b      	mov	r3, r1
 8006bf6:	70fb      	strb	r3, [r7, #3]
 8006bf8:	78f9      	ldrb	r1, [r7, #3]
 8006bfa:	230d      	movs	r3, #13
 8006bfc:	2204      	movs	r2, #4
 8006bfe:	6878      	ldr	r0, [r7, #4]
 8006c00:	f7ff ff83 	bl	8006b0a <ucg_com_SetLineStatus>
 8006c04:	bf00      	nop
 8006c06:	3708      	adds	r7, #8
 8006c08:	46bd      	mov	sp, r7
 8006c0a:	bd80      	pop	{r7, pc}

08006c0c <ucg_com_SetCSLineStatus>:
 8006c0c:	b580      	push	{r7, lr}
 8006c0e:	b082      	sub	sp, #8
 8006c10:	af00      	add	r7, sp, #0
 8006c12:	6078      	str	r0, [r7, #4]
 8006c14:	460b      	mov	r3, r1
 8006c16:	70fb      	strb	r3, [r7, #3]
 8006c18:	78f9      	ldrb	r1, [r7, #3]
 8006c1a:	230e      	movs	r3, #14
 8006c1c:	2202      	movs	r2, #2
 8006c1e:	6878      	ldr	r0, [r7, #4]
 8006c20:	f7ff ff73 	bl	8006b0a <ucg_com_SetLineStatus>
 8006c24:	bf00      	nop
 8006c26:	3708      	adds	r7, #8
 8006c28:	46bd      	mov	sp, r7
 8006c2a:	bd80      	pop	{r7, pc}

08006c2c <ucg_com_SetCDLineStatus>:
 8006c2c:	b580      	push	{r7, lr}
 8006c2e:	b082      	sub	sp, #8
 8006c30:	af00      	add	r7, sp, #0
 8006c32:	6078      	str	r0, [r7, #4]
 8006c34:	460b      	mov	r3, r1
 8006c36:	70fb      	strb	r3, [r7, #3]
 8006c38:	78f9      	ldrb	r1, [r7, #3]
 8006c3a:	230f      	movs	r3, #15
 8006c3c:	2201      	movs	r2, #1
 8006c3e:	6878      	ldr	r0, [r7, #4]
 8006c40:	f7ff ff63 	bl	8006b0a <ucg_com_SetLineStatus>
 8006c44:	bf00      	nop
 8006c46:	3708      	adds	r7, #8
 8006c48:	46bd      	mov	sp, r7
 8006c4a:	bd80      	pop	{r7, pc}

08006c4c <ucg_com_DelayMicroseconds>:
 8006c4c:	b590      	push	{r4, r7, lr}
 8006c4e:	b083      	sub	sp, #12
 8006c50:	af00      	add	r7, sp, #0
 8006c52:	6078      	str	r0, [r7, #4]
 8006c54:	460b      	mov	r3, r1
 8006c56:	807b      	strh	r3, [r7, #2]
 8006c58:	687b      	ldr	r3, [r7, #4]
 8006c5a:	69dc      	ldr	r4, [r3, #28]
 8006c5c:	887a      	ldrh	r2, [r7, #2]
 8006c5e:	2300      	movs	r3, #0
 8006c60:	210c      	movs	r1, #12
 8006c62:	6878      	ldr	r0, [r7, #4]
 8006c64:	47a0      	blx	r4
 8006c66:	bf00      	nop
 8006c68:	370c      	adds	r7, #12
 8006c6a:	46bd      	mov	sp, r7
 8006c6c:	bd90      	pop	{r4, r7, pc}

08006c6e <ucg_com_DelayMilliseconds>:
 8006c6e:	b580      	push	{r7, lr}
 8006c70:	b082      	sub	sp, #8
 8006c72:	af00      	add	r7, sp, #0
 8006c74:	6078      	str	r0, [r7, #4]
 8006c76:	460b      	mov	r3, r1
 8006c78:	807b      	strh	r3, [r7, #2]
 8006c7a:	e007      	b.n	8006c8c <ucg_com_DelayMilliseconds+0x1e>
 8006c7c:	f44f 717a 	mov.w	r1, #1000	; 0x3e8
 8006c80:	6878      	ldr	r0, [r7, #4]
 8006c82:	f7ff ffe3 	bl	8006c4c <ucg_com_DelayMicroseconds>
 8006c86:	887b      	ldrh	r3, [r7, #2]
 8006c88:	3b01      	subs	r3, #1
 8006c8a:	807b      	strh	r3, [r7, #2]
 8006c8c:	887b      	ldrh	r3, [r7, #2]
 8006c8e:	2b00      	cmp	r3, #0
 8006c90:	d1f4      	bne.n	8006c7c <ucg_com_DelayMilliseconds+0xe>
 8006c92:	bf00      	nop
 8006c94:	3708      	adds	r7, #8
 8006c96:	46bd      	mov	sp, r7
 8006c98:	bd80      	pop	{r7, pc}

08006c9a <ucg_com_SendByte>:
 8006c9a:	b590      	push	{r4, r7, lr}
 8006c9c:	b083      	sub	sp, #12
 8006c9e:	af00      	add	r7, sp, #0
 8006ca0:	6078      	str	r0, [r7, #4]
 8006ca2:	460b      	mov	r3, r1
 8006ca4:	70fb      	strb	r3, [r7, #3]
 8006ca6:	687b      	ldr	r3, [r7, #4]
 8006ca8:	69dc      	ldr	r4, [r3, #28]
 8006caa:	78fb      	ldrb	r3, [r7, #3]
 8006cac:	b29a      	uxth	r2, r3
 8006cae:	2300      	movs	r3, #0
 8006cb0:	2110      	movs	r1, #16
 8006cb2:	6878      	ldr	r0, [r7, #4]
 8006cb4:	47a0      	blx	r4
 8006cb6:	bf00      	nop
 8006cb8:	370c      	adds	r7, #12
 8006cba:	46bd      	mov	sp, r7
 8006cbc:	bd90      	pop	{r4, r7, pc}

08006cbe <ucg_com_SendStringP>:
 8006cbe:	b590      	push	{r4, r7, lr}
 8006cc0:	b087      	sub	sp, #28
 8006cc2:	af00      	add	r7, sp, #0
 8006cc4:	60f8      	str	r0, [r7, #12]
 8006cc6:	460b      	mov	r3, r1
 8006cc8:	607a      	str	r2, [r7, #4]
 8006cca:	817b      	strh	r3, [r7, #10]
 8006ccc:	e010      	b.n	8006cf0 <ucg_com_SendStringP+0x32>
 8006cce:	687b      	ldr	r3, [r7, #4]
 8006cd0:	781b      	ldrb	r3, [r3, #0]
 8006cd2:	75fb      	strb	r3, [r7, #23]
 8006cd4:	68fb      	ldr	r3, [r7, #12]
 8006cd6:	69dc      	ldr	r4, [r3, #28]
 8006cd8:	7dfb      	ldrb	r3, [r7, #23]
 8006cda:	b29a      	uxth	r2, r3
 8006cdc:	2300      	movs	r3, #0
 8006cde:	2110      	movs	r1, #16
 8006ce0:	68f8      	ldr	r0, [r7, #12]
 8006ce2:	47a0      	blx	r4
 8006ce4:	687b      	ldr	r3, [r7, #4]
 8006ce6:	3301      	adds	r3, #1
 8006ce8:	607b      	str	r3, [r7, #4]
 8006cea:	897b      	ldrh	r3, [r7, #10]
 8006cec:	3b01      	subs	r3, #1
 8006cee:	817b      	strh	r3, [r7, #10]
 8006cf0:	897b      	ldrh	r3, [r7, #10]
 8006cf2:	2b00      	cmp	r3, #0
 8006cf4:	d1eb      	bne.n	8006cce <ucg_com_SendStringP+0x10>
 8006cf6:	bf00      	nop
 8006cf8:	371c      	adds	r7, #28
 8006cfa:	46bd      	mov	sp, r7
 8006cfc:	bd90      	pop	{r4, r7, pc}

08006cfe <ucg_com_SendCmdArg>:
 8006cfe:	b580      	push	{r7, lr}
 8006d00:	b084      	sub	sp, #16
 8006d02:	af00      	add	r7, sp, #0
 8006d04:	60f8      	str	r0, [r7, #12]
 8006d06:	60b9      	str	r1, [r7, #8]
 8006d08:	4611      	mov	r1, r2
 8006d0a:	461a      	mov	r2, r3
 8006d0c:	460b      	mov	r3, r1
 8006d0e:	71fb      	strb	r3, [r7, #7]
 8006d10:	4613      	mov	r3, r2
 8006d12:	71bb      	strb	r3, [r7, #6]
 8006d14:	68fb      	ldr	r3, [r7, #12]
 8006d16:	f893 30b0 	ldrb.w	r3, [r3, #176]	; 0xb0
 8006d1a:	085b      	lsrs	r3, r3, #1
 8006d1c:	b2db      	uxtb	r3, r3
 8006d1e:	f003 0301 	and.w	r3, r3, #1
 8006d22:	b2db      	uxtb	r3, r3
 8006d24:	4619      	mov	r1, r3
 8006d26:	68f8      	ldr	r0, [r7, #12]
 8006d28:	f7ff ff80 	bl	8006c2c <ucg_com_SetCDLineStatus>
 8006d2c:	79fb      	ldrb	r3, [r7, #7]
 8006d2e:	b29b      	uxth	r3, r3
 8006d30:	68ba      	ldr	r2, [r7, #8]
 8006d32:	4619      	mov	r1, r3
 8006d34:	68f8      	ldr	r0, [r7, #12]
 8006d36:	f7ff ffc2 	bl	8006cbe <ucg_com_SendStringP>
 8006d3a:	79bb      	ldrb	r3, [r7, #6]
 8006d3c:	2b00      	cmp	r3, #0
 8006d3e:	d014      	beq.n	8006d6a <ucg_com_SendCmdArg+0x6c>
 8006d40:	79fb      	ldrb	r3, [r7, #7]
 8006d42:	68ba      	ldr	r2, [r7, #8]
 8006d44:	4413      	add	r3, r2
 8006d46:	60bb      	str	r3, [r7, #8]
 8006d48:	68fb      	ldr	r3, [r7, #12]
 8006d4a:	f893 30b0 	ldrb.w	r3, [r3, #176]	; 0xb0
 8006d4e:	f003 0301 	and.w	r3, r3, #1
 8006d52:	b2db      	uxtb	r3, r3
 8006d54:	4619      	mov	r1, r3
 8006d56:	68f8      	ldr	r0, [r7, #12]
 8006d58:	f7ff ff68 	bl	8006c2c <ucg_com_SetCDLineStatus>
 8006d5c:	79bb      	ldrb	r3, [r7, #6]
 8006d5e:	b29b      	uxth	r3, r3
 8006d60:	68ba      	ldr	r2, [r7, #8]
 8006d62:	4619      	mov	r1, r3
 8006d64:	68f8      	ldr	r0, [r7, #12]
 8006d66:	f7ff ffaa 	bl	8006cbe <ucg_com_SendStringP>
 8006d6a:	bf00      	nop
 8006d6c:	3710      	adds	r7, #16
 8006d6e:	46bd      	mov	sp, r7
 8006d70:	bd80      	pop	{r7, pc}
	...

08006d74 <ucg_com_SendCmdSeq>:
 8006d74:	b580      	push	{r7, lr}
 8006d76:	b084      	sub	sp, #16
 8006d78:	af00      	add	r7, sp, #0
 8006d7a:	6078      	str	r0, [r7, #4]
 8006d7c:	6039      	str	r1, [r7, #0]
 8006d7e:	683b      	ldr	r3, [r7, #0]
 8006d80:	781b      	ldrb	r3, [r3, #0]
 8006d82:	73fb      	strb	r3, [r7, #15]
 8006d84:	7bfb      	ldrb	r3, [r7, #15]
 8006d86:	091b      	lsrs	r3, r3, #4
 8006d88:	73bb      	strb	r3, [r7, #14]
 8006d8a:	7bfb      	ldrb	r3, [r7, #15]
 8006d8c:	f003 030f 	and.w	r3, r3, #15
 8006d90:	737b      	strb	r3, [r7, #13]
 8006d92:	7bbb      	ldrb	r3, [r7, #14]
 8006d94:	2b0f      	cmp	r3, #15
 8006d96:	f200 8124 	bhi.w	8006fe2 <ucg_com_SendCmdSeq+0x26e>
 8006d9a:	a201      	add	r2, pc, #4	; (adr r2, 8006da0 <ucg_com_SendCmdSeq+0x2c>)
 8006d9c:	f852 f023 	ldr.w	pc, [r2, r3, lsl #2]
 8006da0:	08006fe3 	.word	0x08006fe3
 8006da4:	08006de1 	.word	0x08006de1
 8006da8:	08006de1 	.word	0x08006de1
 8006dac:	08006de1 	.word	0x08006de1
 8006db0:	08006fe3 	.word	0x08006fe3
 8006db4:	08006fe3 	.word	0x08006fe3
 8006db8:	08006e01 	.word	0x08006e01
 8006dbc:	08006e33 	.word	0x08006e33
 8006dc0:	08006e77 	.word	0x08006e77
 8006dc4:	08006ea3 	.word	0x08006ea3
 8006dc8:	08006ecf 	.word	0x08006ecf
 8006dcc:	08006f2f 	.word	0x08006f2f
 8006dd0:	08006fe3 	.word	0x08006fe3
 8006dd4:	08006fe3 	.word	0x08006fe3
 8006dd8:	08006fe3 	.word	0x08006fe3
 8006ddc:	08006f8f 	.word	0x08006f8f
 8006de0:	683b      	ldr	r3, [r7, #0]
 8006de2:	1c59      	adds	r1, r3, #1
 8006de4:	7b7b      	ldrb	r3, [r7, #13]
 8006de6:	7bba      	ldrb	r2, [r7, #14]
 8006de8:	6878      	ldr	r0, [r7, #4]
 8006dea:	f7ff ff88 	bl	8006cfe <ucg_com_SendCmdArg>
 8006dee:	7bbb      	ldrb	r3, [r7, #14]
 8006df0:	1c5a      	adds	r2, r3, #1
 8006df2:	7b7b      	ldrb	r3, [r7, #13]
 8006df4:	4413      	add	r3, r2
 8006df6:	461a      	mov	r2, r3
 8006df8:	683b      	ldr	r3, [r7, #0]
 8006dfa:	4413      	add	r3, r2
 8006dfc:	603b      	str	r3, [r7, #0]
 8006dfe:	e0ef      	b.n	8006fe0 <ucg_com_SendCmdSeq+0x26c>
 8006e00:	687b      	ldr	r3, [r7, #4]
 8006e02:	f893 30b0 	ldrb.w	r3, [r3, #176]	; 0xb0
 8006e06:	f003 0301 	and.w	r3, r3, #1
 8006e0a:	b2db      	uxtb	r3, r3
 8006e0c:	4619      	mov	r1, r3
 8006e0e:	6878      	ldr	r0, [r7, #4]
 8006e10:	f7ff ff0c 	bl	8006c2c <ucg_com_SetCDLineStatus>
 8006e14:	7b7b      	ldrb	r3, [r7, #13]
 8006e16:	b299      	uxth	r1, r3
 8006e18:	683b      	ldr	r3, [r7, #0]
 8006e1a:	3301      	adds	r3, #1
 8006e1c:	461a      	mov	r2, r3
 8006e1e:	6878      	ldr	r0, [r7, #4]
 8006e20:	f7ff ff4d 	bl	8006cbe <ucg_com_SendStringP>
 8006e24:	7b7b      	ldrb	r3, [r7, #13]
 8006e26:	3301      	adds	r3, #1
 8006e28:	461a      	mov	r2, r3
 8006e2a:	683b      	ldr	r3, [r7, #0]
 8006e2c:	4413      	add	r3, r2
 8006e2e:	603b      	str	r3, [r7, #0]
 8006e30:	e0d6      	b.n	8006fe0 <ucg_com_SendCmdSeq+0x26c>
 8006e32:	687b      	ldr	r3, [r7, #4]
 8006e34:	f893 30b0 	ldrb.w	r3, [r3, #176]	; 0xb0
 8006e38:	085b      	lsrs	r3, r3, #1
 8006e3a:	b2db      	uxtb	r3, r3
 8006e3c:	f003 0301 	and.w	r3, r3, #1
 8006e40:	2b00      	cmp	r3, #0
 8006e42:	bf0c      	ite	eq
 8006e44:	2301      	moveq	r3, #1
 8006e46:	2300      	movne	r3, #0
 8006e48:	b2db      	uxtb	r3, r3
 8006e4a:	4619      	mov	r1, r3
 8006e4c:	6878      	ldr	r0, [r7, #4]
 8006e4e:	f7ff feed 	bl	8006c2c <ucg_com_SetCDLineStatus>
 8006e52:	7b7b      	ldrb	r3, [r7, #13]
 8006e54:	2b00      	cmp	r3, #0
 8006e56:	d007      	beq.n	8006e68 <ucg_com_SendCmdSeq+0xf4>
 8006e58:	7b7b      	ldrb	r3, [r7, #13]
 8006e5a:	b299      	uxth	r1, r3
 8006e5c:	683b      	ldr	r3, [r7, #0]
 8006e5e:	3301      	adds	r3, #1
 8006e60:	461a      	mov	r2, r3
 8006e62:	6878      	ldr	r0, [r7, #4]
 8006e64:	f7ff ff2b 	bl	8006cbe <ucg_com_SendStringP>
 8006e68:	7b7b      	ldrb	r3, [r7, #13]
 8006e6a:	3301      	adds	r3, #1
 8006e6c:	461a      	mov	r2, r3
 8006e6e:	683b      	ldr	r3, [r7, #0]
 8006e70:	4413      	add	r3, r2
 8006e72:	603b      	str	r3, [r7, #0]
 8006e74:	e0b4      	b.n	8006fe0 <ucg_com_SendCmdSeq+0x26c>
 8006e76:	683b      	ldr	r3, [r7, #0]
 8006e78:	3301      	adds	r3, #1
 8006e7a:	603b      	str	r3, [r7, #0]
 8006e7c:	683b      	ldr	r3, [r7, #0]
 8006e7e:	781b      	ldrb	r3, [r3, #0]
 8006e80:	73fb      	strb	r3, [r7, #15]
 8006e82:	7b7b      	ldrb	r3, [r7, #13]
 8006e84:	b29b      	uxth	r3, r3
 8006e86:	021b      	lsls	r3, r3, #8
 8006e88:	b29a      	uxth	r2, r3
 8006e8a:	7bfb      	ldrb	r3, [r7, #15]
 8006e8c:	b29b      	uxth	r3, r3
 8006e8e:	4413      	add	r3, r2
 8006e90:	b29b      	uxth	r3, r3
 8006e92:	4619      	mov	r1, r3
 8006e94:	6878      	ldr	r0, [r7, #4]
 8006e96:	f7ff feea 	bl	8006c6e <ucg_com_DelayMilliseconds>
 8006e9a:	683b      	ldr	r3, [r7, #0]
 8006e9c:	3301      	adds	r3, #1
 8006e9e:	603b      	str	r3, [r7, #0]
 8006ea0:	e09e      	b.n	8006fe0 <ucg_com_SendCmdSeq+0x26c>
 8006ea2:	683b      	ldr	r3, [r7, #0]
 8006ea4:	3301      	adds	r3, #1
 8006ea6:	603b      	str	r3, [r7, #0]
 8006ea8:	683b      	ldr	r3, [r7, #0]
 8006eaa:	781b      	ldrb	r3, [r3, #0]
 8006eac:	73fb      	strb	r3, [r7, #15]
 8006eae:	7b7b      	ldrb	r3, [r7, #13]
 8006eb0:	b29b      	uxth	r3, r3
 8006eb2:	021b      	lsls	r3, r3, #8
 8006eb4:	b29a      	uxth	r2, r3
 8006eb6:	7bfb      	ldrb	r3, [r7, #15]
 8006eb8:	b29b      	uxth	r3, r3
 8006eba:	4413      	add	r3, r2
 8006ebc:	b29b      	uxth	r3, r3
 8006ebe:	4619      	mov	r1, r3
 8006ec0:	6878      	ldr	r0, [r7, #4]
 8006ec2:	f7ff fec3 	bl	8006c4c <ucg_com_DelayMicroseconds>
 8006ec6:	683b      	ldr	r3, [r7, #0]
 8006ec8:	3301      	adds	r3, #1
 8006eca:	603b      	str	r3, [r7, #0]
 8006ecc:	e088      	b.n	8006fe0 <ucg_com_SendCmdSeq+0x26c>
 8006ece:	683b      	ldr	r3, [r7, #0]
 8006ed0:	3301      	adds	r3, #1
 8006ed2:	603b      	str	r3, [r7, #0]
 8006ed4:	683b      	ldr	r3, [r7, #0]
 8006ed6:	781b      	ldrb	r3, [r3, #0]
 8006ed8:	73fb      	strb	r3, [r7, #15]
 8006eda:	683b      	ldr	r3, [r7, #0]
 8006edc:	3301      	adds	r3, #1
 8006ede:	603b      	str	r3, [r7, #0]
 8006ee0:	683b      	ldr	r3, [r7, #0]
 8006ee2:	781b      	ldrb	r3, [r3, #0]
 8006ee4:	733b      	strb	r3, [r7, #12]
 8006ee6:	683b      	ldr	r3, [r7, #0]
 8006ee8:	3301      	adds	r3, #1
 8006eea:	603b      	str	r3, [r7, #0]
 8006eec:	687b      	ldr	r3, [r7, #4]
 8006eee:	f893 30b0 	ldrb.w	r3, [r3, #176]	; 0xb0
 8006ef2:	f003 0301 	and.w	r3, r3, #1
 8006ef6:	b2db      	uxtb	r3, r3
 8006ef8:	4619      	mov	r1, r3
 8006efa:	6878      	ldr	r0, [r7, #4]
 8006efc:	f7ff fe96 	bl	8006c2c <ucg_com_SetCDLineStatus>
 8006f00:	687b      	ldr	r3, [r7, #4]
 8006f02:	f9b3 3024 	ldrsh.w	r3, [r3, #36]	; 0x24
 8006f06:	461a      	mov	r2, r3
 8006f08:	687b      	ldr	r3, [r7, #4]
 8006f0a:	f9b3 3020 	ldrsh.w	r3, [r3, #32]
 8006f0e:	441a      	add	r2, r3
 8006f10:	7b7b      	ldrb	r3, [r7, #13]
 8006f12:	fa42 f303 	asr.w	r3, r2, r3
 8006f16:	b2da      	uxtb	r2, r3
 8006f18:	7bfb      	ldrb	r3, [r7, #15]
 8006f1a:	4013      	ands	r3, r2
 8006f1c:	b2da      	uxtb	r2, r3
 8006f1e:	7b3b      	ldrb	r3, [r7, #12]
 8006f20:	4313      	orrs	r3, r2
 8006f22:	b2db      	uxtb	r3, r3
 8006f24:	4619      	mov	r1, r3
 8006f26:	6878      	ldr	r0, [r7, #4]
 8006f28:	f7ff feb7 	bl	8006c9a <ucg_com_SendByte>
 8006f2c:	e058      	b.n	8006fe0 <ucg_com_SendCmdSeq+0x26c>
 8006f2e:	683b      	ldr	r3, [r7, #0]
 8006f30:	3301      	adds	r3, #1
 8006f32:	603b      	str	r3, [r7, #0]
 8006f34:	683b      	ldr	r3, [r7, #0]
 8006f36:	781b      	ldrb	r3, [r3, #0]
 8006f38:	73fb      	strb	r3, [r7, #15]
 8006f3a:	683b      	ldr	r3, [r7, #0]
 8006f3c:	3301      	adds	r3, #1
 8006f3e:	603b      	str	r3, [r7, #0]
 8006f40:	683b      	ldr	r3, [r7, #0]
 8006f42:	781b      	ldrb	r3, [r3, #0]
 8006f44:	733b      	strb	r3, [r7, #12]
 8006f46:	683b      	ldr	r3, [r7, #0]
 8006f48:	3301      	adds	r3, #1
 8006f4a:	603b      	str	r3, [r7, #0]
 8006f4c:	687b      	ldr	r3, [r7, #4]
 8006f4e:	f893 30b0 	ldrb.w	r3, [r3, #176]	; 0xb0
 8006f52:	f003 0301 	and.w	r3, r3, #1
 8006f56:	b2db      	uxtb	r3, r3
 8006f58:	4619      	mov	r1, r3
 8006f5a:	6878      	ldr	r0, [r7, #4]
 8006f5c:	f7ff fe66 	bl	8006c2c <ucg_com_SetCDLineStatus>
 8006f60:	687b      	ldr	r3, [r7, #4]
 8006f62:	f9b3 3026 	ldrsh.w	r3, [r3, #38]	; 0x26
 8006f66:	461a      	mov	r2, r3
 8006f68:	687b      	ldr	r3, [r7, #4]
 8006f6a:	f9b3 3022 	ldrsh.w	r3, [r3, #34]	; 0x22
 8006f6e:	441a      	add	r2, r3
 8006f70:	7b7b      	ldrb	r3, [r7, #13]
 8006f72:	fa42 f303 	asr.w	r3, r2, r3
 8006f76:	b2da      	uxtb	r2, r3
 8006f78:	7bfb      	ldrb	r3, [r7, #15]
 8006f7a:	4013      	ands	r3, r2
 8006f7c:	b2da      	uxtb	r2, r3
 8006f7e:	7b3b      	ldrb	r3, [r7, #12]
 8006f80:	4313      	orrs	r3, r2
 8006f82:	b2db      	uxtb	r3, r3
 8006f84:	4619      	mov	r1, r3
 8006f86:	6878      	ldr	r0, [r7, #4]
 8006f88:	f7ff fe87 	bl	8006c9a <ucg_com_SendByte>
 8006f8c:	e028      	b.n	8006fe0 <ucg_com_SendCmdSeq+0x26c>
 8006f8e:	7b7b      	ldrb	r3, [r7, #13]
 8006f90:	089b      	lsrs	r3, r3, #2
 8006f92:	73bb      	strb	r3, [r7, #14]
 8006f94:	7b7b      	ldrb	r3, [r7, #13]
 8006f96:	f003 0303 	and.w	r3, r3, #3
 8006f9a:	737b      	strb	r3, [r7, #13]
 8006f9c:	7bbb      	ldrb	r3, [r7, #14]
 8006f9e:	2b01      	cmp	r3, #1
 8006fa0:	d00c      	beq.n	8006fbc <ucg_com_SendCmdSeq+0x248>
 8006fa2:	2b03      	cmp	r3, #3
 8006fa4:	d013      	beq.n	8006fce <ucg_com_SendCmdSeq+0x25a>
 8006fa6:	2b00      	cmp	r3, #0
 8006fa8:	d116      	bne.n	8006fd8 <ucg_com_SendCmdSeq+0x264>
 8006faa:	7b7b      	ldrb	r3, [r7, #13]
 8006fac:	f003 0301 	and.w	r3, r3, #1
 8006fb0:	b2db      	uxtb	r3, r3
 8006fb2:	4619      	mov	r1, r3
 8006fb4:	6878      	ldr	r0, [r7, #4]
 8006fb6:	f7ff fe19 	bl	8006bec <ucg_com_SetResetLineStatus>
 8006fba:	e00d      	b.n	8006fd8 <ucg_com_SendCmdSeq+0x264>
 8006fbc:	7b7b      	ldrb	r3, [r7, #13]
 8006fbe:	f003 0301 	and.w	r3, r3, #1
 8006fc2:	b2db      	uxtb	r3, r3
 8006fc4:	4619      	mov	r1, r3
 8006fc6:	6878      	ldr	r0, [r7, #4]
 8006fc8:	f7ff fe20 	bl	8006c0c <ucg_com_SetCSLineStatus>
 8006fcc:	e004      	b.n	8006fd8 <ucg_com_SendCmdSeq+0x264>
 8006fce:	687b      	ldr	r3, [r7, #4]
 8006fd0:	7b7a      	ldrb	r2, [r7, #13]
 8006fd2:	f883 20b0 	strb.w	r2, [r3, #176]	; 0xb0
 8006fd6:	bf00      	nop
 8006fd8:	683b      	ldr	r3, [r7, #0]
 8006fda:	3301      	adds	r3, #1
 8006fdc:	603b      	str	r3, [r7, #0]
 8006fde:	bf00      	nop
 8006fe0:	e6cd      	b.n	8006d7e <ucg_com_SendCmdSeq+0xa>
 8006fe2:	bf00      	nop
 8006fe4:	3710      	adds	r7, #16
 8006fe6:	46bd      	mov	sp, r7
 8006fe8:	bd80      	pop	{r7, pc}
 8006fea:	bf00      	nop

08006fec <__errno>:
 8006fec:	4b01      	ldr	r3, [pc, #4]	; (8006ff4 <__errno+0x8>)
 8006fee:	6818      	ldr	r0, [r3, #0]
 8006ff0:	4770      	bx	lr
 8006ff2:	bf00      	nop
 8006ff4:	2000006c 	.word	0x2000006c

08006ff8 <__libc_init_array>:
 8006ff8:	b570      	push	{r4, r5, r6, lr}
 8006ffa:	4d0d      	ldr	r5, [pc, #52]	; (8007030 <__libc_init_array+0x38>)
 8006ffc:	4c0d      	ldr	r4, [pc, #52]	; (8007034 <__libc_init_array+0x3c>)
 8006ffe:	1b64      	subs	r4, r4, r5
 8007000:	10a4      	asrs	r4, r4, #2
 8007002:	2600      	movs	r6, #0
 8007004:	42a6      	cmp	r6, r4
 8007006:	d109      	bne.n	800701c <__libc_init_array+0x24>
 8007008:	4d0b      	ldr	r5, [pc, #44]	; (8007038 <__libc_init_array+0x40>)
 800700a:	4c0c      	ldr	r4, [pc, #48]	; (800703c <__libc_init_array+0x44>)
 800700c:	f000 fc4e 	bl	80078ac <_init>
 8007010:	1b64      	subs	r4, r4, r5
 8007012:	10a4      	asrs	r4, r4, #2
 8007014:	2600      	movs	r6, #0
 8007016:	42a6      	cmp	r6, r4
 8007018:	d105      	bne.n	8007026 <__libc_init_array+0x2e>
 800701a:	bd70      	pop	{r4, r5, r6, pc}
 800701c:	f855 3b04 	ldr.w	r3, [r5], #4
 8007020:	4798      	blx	r3
 8007022:	3601      	adds	r6, #1
 8007024:	e7ee      	b.n	8007004 <__libc_init_array+0xc>
 8007026:	f855 3b04 	ldr.w	r3, [r5], #4
 800702a:	4798      	blx	r3
 800702c:	3601      	adds	r6, #1
 800702e:	e7f2      	b.n	8007016 <__libc_init_array+0x1e>
 8007030:	08008264 	.word	0x08008264
 8007034:	08008264 	.word	0x08008264
 8007038:	08008264 	.word	0x08008264
 800703c:	08008268 	.word	0x08008268

08007040 <memset>:
 8007040:	4402      	add	r2, r0
 8007042:	4603      	mov	r3, r0
 8007044:	4293      	cmp	r3, r2
 8007046:	d100      	bne.n	800704a <memset+0xa>
 8007048:	4770      	bx	lr
 800704a:	f803 1b01 	strb.w	r1, [r3], #1
 800704e:	e7f9      	b.n	8007044 <memset+0x4>

08007050 <siprintf>:
 8007050:	b40e      	push	{r1, r2, r3}
 8007052:	b500      	push	{lr}
 8007054:	b09c      	sub	sp, #112	; 0x70
 8007056:	ab1d      	add	r3, sp, #116	; 0x74
 8007058:	9002      	str	r0, [sp, #8]
 800705a:	9006      	str	r0, [sp, #24]
 800705c:	f06f 4100 	mvn.w	r1, #2147483648	; 0x80000000
 8007060:	4809      	ldr	r0, [pc, #36]	; (8007088 <siprintf+0x38>)
 8007062:	9107      	str	r1, [sp, #28]
 8007064:	9104      	str	r1, [sp, #16]
 8007066:	4909      	ldr	r1, [pc, #36]	; (800708c <siprintf+0x3c>)
 8007068:	f853 2b04 	ldr.w	r2, [r3], #4
 800706c:	9105      	str	r1, [sp, #20]
 800706e:	6800      	ldr	r0, [r0, #0]
 8007070:	9301      	str	r3, [sp, #4]
 8007072:	a902      	add	r1, sp, #8
 8007074:	f000 f868 	bl	8007148 <_svfiprintf_r>
 8007078:	9b02      	ldr	r3, [sp, #8]
 800707a:	2200      	movs	r2, #0
 800707c:	701a      	strb	r2, [r3, #0]
 800707e:	b01c      	add	sp, #112	; 0x70
 8007080:	f85d eb04 	ldr.w	lr, [sp], #4
 8007084:	b003      	add	sp, #12
 8007086:	4770      	bx	lr
 8007088:	2000006c 	.word	0x2000006c
 800708c:	ffff0208 	.word	0xffff0208

08007090 <__ssputs_r>:
 8007090:	e92d 47f0 	stmdb	sp!, {r4, r5, r6, r7, r8, r9, sl, lr}
 8007094:	688e      	ldr	r6, [r1, #8]
 8007096:	429e      	cmp	r6, r3
 8007098:	4682      	mov	sl, r0
 800709a:	460c      	mov	r4, r1
 800709c:	4690      	mov	r8, r2
 800709e:	461f      	mov	r7, r3
 80070a0:	d838      	bhi.n	8007114 <__ssputs_r+0x84>
 80070a2:	898a      	ldrh	r2, [r1, #12]
 80070a4:	f412 6f90 	tst.w	r2, #1152	; 0x480
 80070a8:	d032      	beq.n	8007110 <__ssputs_r+0x80>
 80070aa:	6825      	ldr	r5, [r4, #0]
 80070ac:	6909      	ldr	r1, [r1, #16]
 80070ae:	eba5 0901 	sub.w	r9, r5, r1
 80070b2:	6965      	ldr	r5, [r4, #20]
 80070b4:	eb05 0545 	add.w	r5, r5, r5, lsl #1
 80070b8:	eb05 75d5 	add.w	r5, r5, r5, lsr #31
 80070bc:	3301      	adds	r3, #1
 80070be:	444b      	add	r3, r9
 80070c0:	106d      	asrs	r5, r5, #1
 80070c2:	429d      	cmp	r5, r3
 80070c4:	bf38      	it	cc
 80070c6:	461d      	movcc	r5, r3
 80070c8:	0553      	lsls	r3, r2, #21
 80070ca:	d531      	bpl.n	8007130 <__ssputs_r+0xa0>
 80070cc:	4629      	mov	r1, r5
 80070ce:	f000 fb47 	bl	8007760 <_malloc_r>
 80070d2:	4606      	mov	r6, r0
 80070d4:	b950      	cbnz	r0, 80070ec <__ssputs_r+0x5c>
 80070d6:	230c      	movs	r3, #12
 80070d8:	f8ca 3000 	str.w	r3, [sl]
 80070dc:	89a3      	ldrh	r3, [r4, #12]
 80070de:	f043 0340 	orr.w	r3, r3, #64	; 0x40
 80070e2:	81a3      	strh	r3, [r4, #12]
 80070e4:	f04f 30ff 	mov.w	r0, #4294967295
 80070e8:	e8bd 87f0 	ldmia.w	sp!, {r4, r5, r6, r7, r8, r9, sl, pc}
 80070ec:	6921      	ldr	r1, [r4, #16]
 80070ee:	464a      	mov	r2, r9
 80070f0:	f000 fabe 	bl	8007670 <memcpy>
 80070f4:	89a3      	ldrh	r3, [r4, #12]
 80070f6:	f423 6390 	bic.w	r3, r3, #1152	; 0x480
 80070fa:	f043 0380 	orr.w	r3, r3, #128	; 0x80
 80070fe:	81a3      	strh	r3, [r4, #12]
 8007100:	6126      	str	r6, [r4, #16]
 8007102:	6165      	str	r5, [r4, #20]
 8007104:	444e      	add	r6, r9
 8007106:	eba5 0509 	sub.w	r5, r5, r9
 800710a:	6026      	str	r6, [r4, #0]
 800710c:	60a5      	str	r5, [r4, #8]
 800710e:	463e      	mov	r6, r7
 8007110:	42be      	cmp	r6, r7
 8007112:	d900      	bls.n	8007116 <__ssputs_r+0x86>
 8007114:	463e      	mov	r6, r7
 8007116:	4632      	mov	r2, r6
 8007118:	6820      	ldr	r0, [r4, #0]
 800711a:	4641      	mov	r1, r8
 800711c:	f000 fab6 	bl	800768c <memmove>
 8007120:	68a3      	ldr	r3, [r4, #8]
 8007122:	6822      	ldr	r2, [r4, #0]
 8007124:	1b9b      	subs	r3, r3, r6
 8007126:	4432      	add	r2, r6
 8007128:	60a3      	str	r3, [r4, #8]
 800712a:	6022      	str	r2, [r4, #0]
 800712c:	2000      	movs	r0, #0
 800712e:	e7db      	b.n	80070e8 <__ssputs_r+0x58>
 8007130:	462a      	mov	r2, r5
 8007132:	f000 fb6f 	bl	8007814 <_realloc_r>
 8007136:	4606      	mov	r6, r0
 8007138:	2800      	cmp	r0, #0
 800713a:	d1e1      	bne.n	8007100 <__ssputs_r+0x70>
 800713c:	6921      	ldr	r1, [r4, #16]
 800713e:	4650      	mov	r0, sl
 8007140:	f000 fabe 	bl	80076c0 <_free_r>
 8007144:	e7c7      	b.n	80070d6 <__ssputs_r+0x46>
	...

08007148 <_svfiprintf_r>:
 8007148:	e92d 4ff0 	stmdb	sp!, {r4, r5, r6, r7, r8, r9, sl, fp, lr}
 800714c:	4698      	mov	r8, r3
 800714e:	898b      	ldrh	r3, [r1, #12]
 8007150:	061b      	lsls	r3, r3, #24
 8007152:	b09d      	sub	sp, #116	; 0x74
 8007154:	4607      	mov	r7, r0
 8007156:	460d      	mov	r5, r1
 8007158:	4614      	mov	r4, r2
 800715a:	d50e      	bpl.n	800717a <_svfiprintf_r+0x32>
 800715c:	690b      	ldr	r3, [r1, #16]
 800715e:	b963      	cbnz	r3, 800717a <_svfiprintf_r+0x32>
 8007160:	2140      	movs	r1, #64	; 0x40
 8007162:	f000 fafd 	bl	8007760 <_malloc_r>
 8007166:	6028      	str	r0, [r5, #0]
 8007168:	6128      	str	r0, [r5, #16]
 800716a:	b920      	cbnz	r0, 8007176 <_svfiprintf_r+0x2e>
 800716c:	230c      	movs	r3, #12
 800716e:	603b      	str	r3, [r7, #0]
 8007170:	f04f 30ff 	mov.w	r0, #4294967295
 8007174:	e0d1      	b.n	800731a <_svfiprintf_r+0x1d2>
 8007176:	2340      	movs	r3, #64	; 0x40
 8007178:	616b      	str	r3, [r5, #20]
 800717a:	2300      	movs	r3, #0
 800717c:	9309      	str	r3, [sp, #36]	; 0x24
 800717e:	2320      	movs	r3, #32
 8007180:	f88d 3029 	strb.w	r3, [sp, #41]	; 0x29
 8007184:	f8cd 800c 	str.w	r8, [sp, #12]
 8007188:	2330      	movs	r3, #48	; 0x30
 800718a:	f8df 81a8 	ldr.w	r8, [pc, #424]	; 8007334 <_svfiprintf_r+0x1ec>
 800718e:	f88d 302a 	strb.w	r3, [sp, #42]	; 0x2a
 8007192:	f04f 0901 	mov.w	r9, #1
 8007196:	4623      	mov	r3, r4
 8007198:	469a      	mov	sl, r3
 800719a:	f813 2b01 	ldrb.w	r2, [r3], #1
 800719e:	b10a      	cbz	r2, 80071a4 <_svfiprintf_r+0x5c>
 80071a0:	2a25      	cmp	r2, #37	; 0x25
 80071a2:	d1f9      	bne.n	8007198 <_svfiprintf_r+0x50>
 80071a4:	ebba 0b04 	subs.w	fp, sl, r4
 80071a8:	d00b      	beq.n	80071c2 <_svfiprintf_r+0x7a>
 80071aa:	465b      	mov	r3, fp
 80071ac:	4622      	mov	r2, r4
 80071ae:	4629      	mov	r1, r5
 80071b0:	4638      	mov	r0, r7
 80071b2:	f7ff ff6d 	bl	8007090 <__ssputs_r>
 80071b6:	3001      	adds	r0, #1
 80071b8:	f000 80aa 	beq.w	8007310 <_svfiprintf_r+0x1c8>
 80071bc:	9a09      	ldr	r2, [sp, #36]	; 0x24
 80071be:	445a      	add	r2, fp
 80071c0:	9209      	str	r2, [sp, #36]	; 0x24
 80071c2:	f89a 3000 	ldrb.w	r3, [sl]
 80071c6:	2b00      	cmp	r3, #0
 80071c8:	f000 80a2 	beq.w	8007310 <_svfiprintf_r+0x1c8>
 80071cc:	2300      	movs	r3, #0
 80071ce:	f04f 32ff 	mov.w	r2, #4294967295
 80071d2:	e9cd 2305 	strd	r2, r3, [sp, #20]
 80071d6:	f10a 0a01 	add.w	sl, sl, #1
 80071da:	9304      	str	r3, [sp, #16]
 80071dc:	9307      	str	r3, [sp, #28]
 80071de:	f88d 3053 	strb.w	r3, [sp, #83]	; 0x53
 80071e2:	931a      	str	r3, [sp, #104]	; 0x68
 80071e4:	4654      	mov	r4, sl
 80071e6:	2205      	movs	r2, #5
 80071e8:	f814 1b01 	ldrb.w	r1, [r4], #1
 80071ec:	4851      	ldr	r0, [pc, #324]	; (8007334 <_svfiprintf_r+0x1ec>)
 80071ee:	f7f8 ffff 	bl	80001f0 <memchr>
 80071f2:	9a04      	ldr	r2, [sp, #16]
 80071f4:	b9d8      	cbnz	r0, 800722e <_svfiprintf_r+0xe6>
 80071f6:	06d0      	lsls	r0, r2, #27
 80071f8:	bf44      	itt	mi
 80071fa:	2320      	movmi	r3, #32
 80071fc:	f88d 3053 	strbmi.w	r3, [sp, #83]	; 0x53
 8007200:	0711      	lsls	r1, r2, #28
 8007202:	bf44      	itt	mi
 8007204:	232b      	movmi	r3, #43	; 0x2b
 8007206:	f88d 3053 	strbmi.w	r3, [sp, #83]	; 0x53
 800720a:	f89a 3000 	ldrb.w	r3, [sl]
 800720e:	2b2a      	cmp	r3, #42	; 0x2a
 8007210:	d015      	beq.n	800723e <_svfiprintf_r+0xf6>
 8007212:	9a07      	ldr	r2, [sp, #28]
 8007214:	4654      	mov	r4, sl
 8007216:	2000      	movs	r0, #0
 8007218:	f04f 0c0a 	mov.w	ip, #10
 800721c:	4621      	mov	r1, r4
 800721e:	f811 3b01 	ldrb.w	r3, [r1], #1
 8007222:	3b30      	subs	r3, #48	; 0x30
 8007224:	2b09      	cmp	r3, #9
 8007226:	d94e      	bls.n	80072c6 <_svfiprintf_r+0x17e>
 8007228:	b1b0      	cbz	r0, 8007258 <_svfiprintf_r+0x110>
 800722a:	9207      	str	r2, [sp, #28]
 800722c:	e014      	b.n	8007258 <_svfiprintf_r+0x110>
 800722e:	eba0 0308 	sub.w	r3, r0, r8
 8007232:	fa09 f303 	lsl.w	r3, r9, r3
 8007236:	4313      	orrs	r3, r2
 8007238:	9304      	str	r3, [sp, #16]
 800723a:	46a2      	mov	sl, r4
 800723c:	e7d2      	b.n	80071e4 <_svfiprintf_r+0x9c>
 800723e:	9b03      	ldr	r3, [sp, #12]
 8007240:	1d19      	adds	r1, r3, #4
 8007242:	681b      	ldr	r3, [r3, #0]
 8007244:	9103      	str	r1, [sp, #12]
 8007246:	2b00      	cmp	r3, #0
 8007248:	bfbb      	ittet	lt
 800724a:	425b      	neglt	r3, r3
 800724c:	f042 0202 	orrlt.w	r2, r2, #2
 8007250:	9307      	strge	r3, [sp, #28]
 8007252:	9307      	strlt	r3, [sp, #28]
 8007254:	bfb8      	it	lt
 8007256:	9204      	strlt	r2, [sp, #16]
 8007258:	7823      	ldrb	r3, [r4, #0]
 800725a:	2b2e      	cmp	r3, #46	; 0x2e
 800725c:	d10c      	bne.n	8007278 <_svfiprintf_r+0x130>
 800725e:	7863      	ldrb	r3, [r4, #1]
 8007260:	2b2a      	cmp	r3, #42	; 0x2a
 8007262:	d135      	bne.n	80072d0 <_svfiprintf_r+0x188>
 8007264:	9b03      	ldr	r3, [sp, #12]
 8007266:	1d1a      	adds	r2, r3, #4
 8007268:	681b      	ldr	r3, [r3, #0]
 800726a:	9203      	str	r2, [sp, #12]
 800726c:	2b00      	cmp	r3, #0
 800726e:	bfb8      	it	lt
 8007270:	f04f 33ff 	movlt.w	r3, #4294967295
 8007274:	3402      	adds	r4, #2
 8007276:	9305      	str	r3, [sp, #20]
 8007278:	f8df a0c8 	ldr.w	sl, [pc, #200]	; 8007344 <_svfiprintf_r+0x1fc>
 800727c:	7821      	ldrb	r1, [r4, #0]
 800727e:	2203      	movs	r2, #3
 8007280:	4650      	mov	r0, sl
 8007282:	f7f8 ffb5 	bl	80001f0 <memchr>
 8007286:	b140      	cbz	r0, 800729a <_svfiprintf_r+0x152>
 8007288:	2340      	movs	r3, #64	; 0x40
 800728a:	eba0 000a 	sub.w	r0, r0, sl
 800728e:	fa03 f000 	lsl.w	r0, r3, r0
 8007292:	9b04      	ldr	r3, [sp, #16]
 8007294:	4303      	orrs	r3, r0
 8007296:	3401      	adds	r4, #1
 8007298:	9304      	str	r3, [sp, #16]
 800729a:	f814 1b01 	ldrb.w	r1, [r4], #1
 800729e:	4826      	ldr	r0, [pc, #152]	; (8007338 <_svfiprintf_r+0x1f0>)
 80072a0:	f88d 1028 	strb.w	r1, [sp, #40]	; 0x28
 80072a4:	2206      	movs	r2, #6
 80072a6:	f7f8 ffa3 	bl	80001f0 <memchr>
 80072aa:	2800      	cmp	r0, #0
 80072ac:	d038      	beq.n	8007320 <_svfiprintf_r+0x1d8>
 80072ae:	4b23      	ldr	r3, [pc, #140]	; (800733c <_svfiprintf_r+0x1f4>)
 80072b0:	bb1b      	cbnz	r3, 80072fa <_svfiprintf_r+0x1b2>
 80072b2:	9b03      	ldr	r3, [sp, #12]
 80072b4:	3307      	adds	r3, #7
 80072b6:	f023 0307 	bic.w	r3, r3, #7
 80072ba:	3308      	adds	r3, #8
 80072bc:	9303      	str	r3, [sp, #12]
 80072be:	9b09      	ldr	r3, [sp, #36]	; 0x24
 80072c0:	4433      	add	r3, r6
 80072c2:	9309      	str	r3, [sp, #36]	; 0x24
 80072c4:	e767      	b.n	8007196 <_svfiprintf_r+0x4e>
 80072c6:	fb0c 3202 	mla	r2, ip, r2, r3
 80072ca:	460c      	mov	r4, r1
 80072cc:	2001      	movs	r0, #1
 80072ce:	e7a5      	b.n	800721c <_svfiprintf_r+0xd4>
 80072d0:	2300      	movs	r3, #0
 80072d2:	3401      	adds	r4, #1
 80072d4:	9305      	str	r3, [sp, #20]
 80072d6:	4619      	mov	r1, r3
 80072d8:	f04f 0c0a 	mov.w	ip, #10
 80072dc:	4620      	mov	r0, r4
 80072de:	f810 2b01 	ldrb.w	r2, [r0], #1
 80072e2:	3a30      	subs	r2, #48	; 0x30
 80072e4:	2a09      	cmp	r2, #9
 80072e6:	d903      	bls.n	80072f0 <_svfiprintf_r+0x1a8>
 80072e8:	2b00      	cmp	r3, #0
 80072ea:	d0c5      	beq.n	8007278 <_svfiprintf_r+0x130>
 80072ec:	9105      	str	r1, [sp, #20]
 80072ee:	e7c3      	b.n	8007278 <_svfiprintf_r+0x130>
 80072f0:	fb0c 2101 	mla	r1, ip, r1, r2
 80072f4:	4604      	mov	r4, r0
 80072f6:	2301      	movs	r3, #1
 80072f8:	e7f0      	b.n	80072dc <_svfiprintf_r+0x194>
 80072fa:	ab03      	add	r3, sp, #12
 80072fc:	9300      	str	r3, [sp, #0]
 80072fe:	462a      	mov	r2, r5
 8007300:	4b0f      	ldr	r3, [pc, #60]	; (8007340 <_svfiprintf_r+0x1f8>)
 8007302:	a904      	add	r1, sp, #16
 8007304:	4638      	mov	r0, r7
 8007306:	f3af 8000 	nop.w
 800730a:	1c42      	adds	r2, r0, #1
 800730c:	4606      	mov	r6, r0
 800730e:	d1d6      	bne.n	80072be <_svfiprintf_r+0x176>
 8007310:	89ab      	ldrh	r3, [r5, #12]
 8007312:	065b      	lsls	r3, r3, #25
 8007314:	f53f af2c 	bmi.w	8007170 <_svfiprintf_r+0x28>
 8007318:	9809      	ldr	r0, [sp, #36]	; 0x24
 800731a:	b01d      	add	sp, #116	; 0x74
 800731c:	e8bd 8ff0 	ldmia.w	sp!, {r4, r5, r6, r7, r8, r9, sl, fp, pc}
 8007320:	ab03      	add	r3, sp, #12
 8007322:	9300      	str	r3, [sp, #0]
 8007324:	462a      	mov	r2, r5
 8007326:	4b06      	ldr	r3, [pc, #24]	; (8007340 <_svfiprintf_r+0x1f8>)
 8007328:	a904      	add	r1, sp, #16
 800732a:	4638      	mov	r0, r7
 800732c:	f000 f87a 	bl	8007424 <_printf_i>
 8007330:	e7eb      	b.n	800730a <_svfiprintf_r+0x1c2>
 8007332:	bf00      	nop
 8007334:	08008230 	.word	0x08008230
 8007338:	0800823a 	.word	0x0800823a
 800733c:	00000000 	.word	0x00000000
 8007340:	08007091 	.word	0x08007091
 8007344:	08008236 	.word	0x08008236

08007348 <_printf_common>:
 8007348:	e92d 47f0 	stmdb	sp!, {r4, r5, r6, r7, r8, r9, sl, lr}
 800734c:	4616      	mov	r6, r2
 800734e:	4699      	mov	r9, r3
 8007350:	688a      	ldr	r2, [r1, #8]
 8007352:	690b      	ldr	r3, [r1, #16]
 8007354:	f8dd 8020 	ldr.w	r8, [sp, #32]
 8007358:	4293      	cmp	r3, r2
 800735a:	bfb8      	it	lt
 800735c:	4613      	movlt	r3, r2
 800735e:	6033      	str	r3, [r6, #0]
 8007360:	f891 2043 	ldrb.w	r2, [r1, #67]	; 0x43
 8007364:	4607      	mov	r7, r0
 8007366:	460c      	mov	r4, r1
 8007368:	b10a      	cbz	r2, 800736e <_printf_common+0x26>
 800736a:	3301      	adds	r3, #1
 800736c:	6033      	str	r3, [r6, #0]
 800736e:	6823      	ldr	r3, [r4, #0]
 8007370:	0699      	lsls	r1, r3, #26
 8007372:	bf42      	ittt	mi
 8007374:	6833      	ldrmi	r3, [r6, #0]
 8007376:	3302      	addmi	r3, #2
 8007378:	6033      	strmi	r3, [r6, #0]
 800737a:	6825      	ldr	r5, [r4, #0]
 800737c:	f015 0506 	ands.w	r5, r5, #6
 8007380:	d106      	bne.n	8007390 <_printf_common+0x48>
 8007382:	f104 0a19 	add.w	sl, r4, #25
 8007386:	68e3      	ldr	r3, [r4, #12]
 8007388:	6832      	ldr	r2, [r6, #0]
 800738a:	1a9b      	subs	r3, r3, r2
 800738c:	42ab      	cmp	r3, r5
 800738e:	dc26      	bgt.n	80073de <_printf_common+0x96>
 8007390:	f894 2043 	ldrb.w	r2, [r4, #67]	; 0x43
 8007394:	1e13      	subs	r3, r2, #0
 8007396:	6822      	ldr	r2, [r4, #0]
 8007398:	bf18      	it	ne
 800739a:	2301      	movne	r3, #1
 800739c:	0692      	lsls	r2, r2, #26
 800739e:	d42b      	bmi.n	80073f8 <_printf_common+0xb0>
 80073a0:	f104 0243 	add.w	r2, r4, #67	; 0x43
 80073a4:	4649      	mov	r1, r9
 80073a6:	4638      	mov	r0, r7
 80073a8:	47c0      	blx	r8
 80073aa:	3001      	adds	r0, #1
 80073ac:	d01e      	beq.n	80073ec <_printf_common+0xa4>
 80073ae:	6823      	ldr	r3, [r4, #0]
 80073b0:	68e5      	ldr	r5, [r4, #12]
 80073b2:	6832      	ldr	r2, [r6, #0]
 80073b4:	f003 0306 	and.w	r3, r3, #6
 80073b8:	2b04      	cmp	r3, #4
 80073ba:	bf08      	it	eq
 80073bc:	1aad      	subeq	r5, r5, r2
 80073be:	68a3      	ldr	r3, [r4, #8]
 80073c0:	6922      	ldr	r2, [r4, #16]
 80073c2:	bf0c      	ite	eq
 80073c4:	ea25 75e5 	biceq.w	r5, r5, r5, asr #31
 80073c8:	2500      	movne	r5, #0
 80073ca:	4293      	cmp	r3, r2
 80073cc:	bfc4      	itt	gt
 80073ce:	1a9b      	subgt	r3, r3, r2
 80073d0:	18ed      	addgt	r5, r5, r3
 80073d2:	2600      	movs	r6, #0
 80073d4:	341a      	adds	r4, #26
 80073d6:	42b5      	cmp	r5, r6
 80073d8:	d11a      	bne.n	8007410 <_printf_common+0xc8>
 80073da:	2000      	movs	r0, #0
 80073dc:	e008      	b.n	80073f0 <_printf_common+0xa8>
 80073de:	2301      	movs	r3, #1
 80073e0:	4652      	mov	r2, sl
 80073e2:	4649      	mov	r1, r9
 80073e4:	4638      	mov	r0, r7
 80073e6:	47c0      	blx	r8
 80073e8:	3001      	adds	r0, #1
 80073ea:	d103      	bne.n	80073f4 <_printf_common+0xac>
 80073ec:	f04f 30ff 	mov.w	r0, #4294967295
 80073f0:	e8bd 87f0 	ldmia.w	sp!, {r4, r5, r6, r7, r8, r9, sl, pc}
 80073f4:	3501      	adds	r5, #1
 80073f6:	e7c6      	b.n	8007386 <_printf_common+0x3e>
 80073f8:	18e1      	adds	r1, r4, r3
 80073fa:	1c5a      	adds	r2, r3, #1
 80073fc:	2030      	movs	r0, #48	; 0x30
 80073fe:	f881 0043 	strb.w	r0, [r1, #67]	; 0x43
 8007402:	4422      	add	r2, r4
 8007404:	f894 1045 	ldrb.w	r1, [r4, #69]	; 0x45
 8007408:	f882 1043 	strb.w	r1, [r2, #67]	; 0x43
 800740c:	3302      	adds	r3, #2
 800740e:	e7c7      	b.n	80073a0 <_printf_common+0x58>
 8007410:	2301      	movs	r3, #1
 8007412:	4622      	mov	r2, r4
 8007414:	4649      	mov	r1, r9
 8007416:	4638      	mov	r0, r7
 8007418:	47c0      	blx	r8
 800741a:	3001      	adds	r0, #1
 800741c:	d0e6      	beq.n	80073ec <_printf_common+0xa4>
 800741e:	3601      	adds	r6, #1
 8007420:	e7d9      	b.n	80073d6 <_printf_common+0x8e>
	...

08007424 <_printf_i>:
 8007424:	e92d 47ff 	stmdb	sp!, {r0, r1, r2, r3, r4, r5, r6, r7, r8, r9, sl, lr}
 8007428:	460c      	mov	r4, r1
 800742a:	4691      	mov	r9, r2
 800742c:	7e27      	ldrb	r7, [r4, #24]
 800742e:	990c      	ldr	r1, [sp, #48]	; 0x30
 8007430:	2f78      	cmp	r7, #120	; 0x78
 8007432:	4680      	mov	r8, r0
 8007434:	469a      	mov	sl, r3
 8007436:	f104 0243 	add.w	r2, r4, #67	; 0x43
 800743a:	d807      	bhi.n	800744c <_printf_i+0x28>
 800743c:	2f62      	cmp	r7, #98	; 0x62
 800743e:	d80a      	bhi.n	8007456 <_printf_i+0x32>
 8007440:	2f00      	cmp	r7, #0
 8007442:	f000 80d8 	beq.w	80075f6 <_printf_i+0x1d2>
 8007446:	2f58      	cmp	r7, #88	; 0x58
 8007448:	f000 80a3 	beq.w	8007592 <_printf_i+0x16e>
 800744c:	f104 0642 	add.w	r6, r4, #66	; 0x42
 8007450:	f884 7042 	strb.w	r7, [r4, #66]	; 0x42
 8007454:	e03a      	b.n	80074cc <_printf_i+0xa8>
 8007456:	f1a7 0363 	sub.w	r3, r7, #99	; 0x63
 800745a:	2b15      	cmp	r3, #21
 800745c:	d8f6      	bhi.n	800744c <_printf_i+0x28>
 800745e:	a001      	add	r0, pc, #4	; (adr r0, 8007464 <_printf_i+0x40>)
 8007460:	f850 f023 	ldr.w	pc, [r0, r3, lsl #2]
 8007464:	080074bd 	.word	0x080074bd
 8007468:	080074d1 	.word	0x080074d1
 800746c:	0800744d 	.word	0x0800744d
 8007470:	0800744d 	.word	0x0800744d
 8007474:	0800744d 	.word	0x0800744d
 8007478:	0800744d 	.word	0x0800744d
 800747c:	080074d1 	.word	0x080074d1
 8007480:	0800744d 	.word	0x0800744d
 8007484:	0800744d 	.word	0x0800744d
 8007488:	0800744d 	.word	0x0800744d
 800748c:	0800744d 	.word	0x0800744d
 8007490:	080075dd 	.word	0x080075dd
 8007494:	08007501 	.word	0x08007501
 8007498:	080075bf 	.word	0x080075bf
 800749c:	0800744d 	.word	0x0800744d
 80074a0:	0800744d 	.word	0x0800744d
 80074a4:	080075ff 	.word	0x080075ff
 80074a8:	0800744d 	.word	0x0800744d
 80074ac:	08007501 	.word	0x08007501
 80074b0:	0800744d 	.word	0x0800744d
 80074b4:	0800744d 	.word	0x0800744d
 80074b8:	080075c7 	.word	0x080075c7
 80074bc:	680b      	ldr	r3, [r1, #0]
 80074be:	1d1a      	adds	r2, r3, #4
 80074c0:	681b      	ldr	r3, [r3, #0]
 80074c2:	600a      	str	r2, [r1, #0]
 80074c4:	f104 0642 	add.w	r6, r4, #66	; 0x42
 80074c8:	f884 3042 	strb.w	r3, [r4, #66]	; 0x42
 80074cc:	2301      	movs	r3, #1
 80074ce:	e0a3      	b.n	8007618 <_printf_i+0x1f4>
 80074d0:	6825      	ldr	r5, [r4, #0]
 80074d2:	6808      	ldr	r0, [r1, #0]
 80074d4:	062e      	lsls	r6, r5, #24
 80074d6:	f100 0304 	add.w	r3, r0, #4
 80074da:	d50a      	bpl.n	80074f2 <_printf_i+0xce>
 80074dc:	6805      	ldr	r5, [r0, #0]
 80074de:	600b      	str	r3, [r1, #0]
 80074e0:	2d00      	cmp	r5, #0
 80074e2:	da03      	bge.n	80074ec <_printf_i+0xc8>
 80074e4:	232d      	movs	r3, #45	; 0x2d
 80074e6:	426d      	negs	r5, r5
 80074e8:	f884 3043 	strb.w	r3, [r4, #67]	; 0x43
 80074ec:	485e      	ldr	r0, [pc, #376]	; (8007668 <_printf_i+0x244>)
 80074ee:	230a      	movs	r3, #10
 80074f0:	e019      	b.n	8007526 <_printf_i+0x102>
 80074f2:	f015 0f40 	tst.w	r5, #64	; 0x40
 80074f6:	6805      	ldr	r5, [r0, #0]
 80074f8:	600b      	str	r3, [r1, #0]
 80074fa:	bf18      	it	ne
 80074fc:	b22d      	sxthne	r5, r5
 80074fe:	e7ef      	b.n	80074e0 <_printf_i+0xbc>
 8007500:	680b      	ldr	r3, [r1, #0]
 8007502:	6825      	ldr	r5, [r4, #0]
 8007504:	1d18      	adds	r0, r3, #4
 8007506:	6008      	str	r0, [r1, #0]
 8007508:	0628      	lsls	r0, r5, #24
 800750a:	d501      	bpl.n	8007510 <_printf_i+0xec>
 800750c:	681d      	ldr	r5, [r3, #0]
 800750e:	e002      	b.n	8007516 <_printf_i+0xf2>
 8007510:	0669      	lsls	r1, r5, #25
 8007512:	d5fb      	bpl.n	800750c <_printf_i+0xe8>
 8007514:	881d      	ldrh	r5, [r3, #0]
 8007516:	4854      	ldr	r0, [pc, #336]	; (8007668 <_printf_i+0x244>)
 8007518:	2f6f      	cmp	r7, #111	; 0x6f
 800751a:	bf0c      	ite	eq
 800751c:	2308      	moveq	r3, #8
 800751e:	230a      	movne	r3, #10
 8007520:	2100      	movs	r1, #0
 8007522:	f884 1043 	strb.w	r1, [r4, #67]	; 0x43
 8007526:	6866      	ldr	r6, [r4, #4]
 8007528:	60a6      	str	r6, [r4, #8]
 800752a:	2e00      	cmp	r6, #0
 800752c:	bfa2      	ittt	ge
 800752e:	6821      	ldrge	r1, [r4, #0]
 8007530:	f021 0104 	bicge.w	r1, r1, #4
 8007534:	6021      	strge	r1, [r4, #0]
 8007536:	b90d      	cbnz	r5, 800753c <_printf_i+0x118>
 8007538:	2e00      	cmp	r6, #0
 800753a:	d04d      	beq.n	80075d8 <_printf_i+0x1b4>
 800753c:	4616      	mov	r6, r2
 800753e:	fbb5 f1f3 	udiv	r1, r5, r3
 8007542:	fb03 5711 	mls	r7, r3, r1, r5
 8007546:	5dc7      	ldrb	r7, [r0, r7]
 8007548:	f806 7d01 	strb.w	r7, [r6, #-1]!
 800754c:	462f      	mov	r7, r5
 800754e:	42bb      	cmp	r3, r7
 8007550:	460d      	mov	r5, r1
 8007552:	d9f4      	bls.n	800753e <_printf_i+0x11a>
 8007554:	2b08      	cmp	r3, #8
 8007556:	d10b      	bne.n	8007570 <_printf_i+0x14c>
 8007558:	6823      	ldr	r3, [r4, #0]
 800755a:	07df      	lsls	r7, r3, #31
 800755c:	d508      	bpl.n	8007570 <_printf_i+0x14c>
 800755e:	6923      	ldr	r3, [r4, #16]
 8007560:	6861      	ldr	r1, [r4, #4]
 8007562:	4299      	cmp	r1, r3
 8007564:	bfde      	ittt	le
 8007566:	2330      	movle	r3, #48	; 0x30
 8007568:	f806 3c01 	strble.w	r3, [r6, #-1]
 800756c:	f106 36ff 	addle.w	r6, r6, #4294967295
 8007570:	1b92      	subs	r2, r2, r6
 8007572:	6122      	str	r2, [r4, #16]
 8007574:	f8cd a000 	str.w	sl, [sp]
 8007578:	464b      	mov	r3, r9
 800757a:	aa03      	add	r2, sp, #12
 800757c:	4621      	mov	r1, r4
 800757e:	4640      	mov	r0, r8
 8007580:	f7ff fee2 	bl	8007348 <_printf_common>
 8007584:	3001      	adds	r0, #1
 8007586:	d14c      	bne.n	8007622 <_printf_i+0x1fe>
 8007588:	f04f 30ff 	mov.w	r0, #4294967295
 800758c:	b004      	add	sp, #16
 800758e:	e8bd 87f0 	ldmia.w	sp!, {r4, r5, r6, r7, r8, r9, sl, pc}
 8007592:	4835      	ldr	r0, [pc, #212]	; (8007668 <_printf_i+0x244>)
 8007594:	f884 7045 	strb.w	r7, [r4, #69]	; 0x45
 8007598:	6823      	ldr	r3, [r4, #0]
 800759a:	680e      	ldr	r6, [r1, #0]
 800759c:	061f      	lsls	r7, r3, #24
 800759e:	f856 5b04 	ldr.w	r5, [r6], #4
 80075a2:	600e      	str	r6, [r1, #0]
 80075a4:	d514      	bpl.n	80075d0 <_printf_i+0x1ac>
 80075a6:	07d9      	lsls	r1, r3, #31
 80075a8:	bf44      	itt	mi
 80075aa:	f043 0320 	orrmi.w	r3, r3, #32
 80075ae:	6023      	strmi	r3, [r4, #0]
 80075b0:	b91d      	cbnz	r5, 80075ba <_printf_i+0x196>
 80075b2:	6823      	ldr	r3, [r4, #0]
 80075b4:	f023 0320 	bic.w	r3, r3, #32
 80075b8:	6023      	str	r3, [r4, #0]
 80075ba:	2310      	movs	r3, #16
 80075bc:	e7b0      	b.n	8007520 <_printf_i+0xfc>
 80075be:	6823      	ldr	r3, [r4, #0]
 80075c0:	f043 0320 	orr.w	r3, r3, #32
 80075c4:	6023      	str	r3, [r4, #0]
 80075c6:	2378      	movs	r3, #120	; 0x78
 80075c8:	4828      	ldr	r0, [pc, #160]	; (800766c <_printf_i+0x248>)
 80075ca:	f884 3045 	strb.w	r3, [r4, #69]	; 0x45
 80075ce:	e7e3      	b.n	8007598 <_printf_i+0x174>
 80075d0:	065e      	lsls	r6, r3, #25
 80075d2:	bf48      	it	mi
 80075d4:	b2ad      	uxthmi	r5, r5
 80075d6:	e7e6      	b.n	80075a6 <_printf_i+0x182>
 80075d8:	4616      	mov	r6, r2
 80075da:	e7bb      	b.n	8007554 <_printf_i+0x130>
 80075dc:	680b      	ldr	r3, [r1, #0]
 80075de:	6826      	ldr	r6, [r4, #0]
 80075e0:	6960      	ldr	r0, [r4, #20]
 80075e2:	1d1d      	adds	r5, r3, #4
 80075e4:	600d      	str	r5, [r1, #0]
 80075e6:	0635      	lsls	r5, r6, #24
 80075e8:	681b      	ldr	r3, [r3, #0]
 80075ea:	d501      	bpl.n	80075f0 <_printf_i+0x1cc>
 80075ec:	6018      	str	r0, [r3, #0]
 80075ee:	e002      	b.n	80075f6 <_printf_i+0x1d2>
 80075f0:	0671      	lsls	r1, r6, #25
 80075f2:	d5fb      	bpl.n	80075ec <_printf_i+0x1c8>
 80075f4:	8018      	strh	r0, [r3, #0]
 80075f6:	2300      	movs	r3, #0
 80075f8:	6123      	str	r3, [r4, #16]
 80075fa:	4616      	mov	r6, r2
 80075fc:	e7ba      	b.n	8007574 <_printf_i+0x150>
 80075fe:	680b      	ldr	r3, [r1, #0]
 8007600:	1d1a      	adds	r2, r3, #4
 8007602:	600a      	str	r2, [r1, #0]
 8007604:	681e      	ldr	r6, [r3, #0]
 8007606:	6862      	ldr	r2, [r4, #4]
 8007608:	2100      	movs	r1, #0
 800760a:	4630      	mov	r0, r6
 800760c:	f7f8 fdf0 	bl	80001f0 <memchr>
 8007610:	b108      	cbz	r0, 8007616 <_printf_i+0x1f2>
 8007612:	1b80      	subs	r0, r0, r6
 8007614:	6060      	str	r0, [r4, #4]
 8007616:	6863      	ldr	r3, [r4, #4]
 8007618:	6123      	str	r3, [r4, #16]
 800761a:	2300      	movs	r3, #0
 800761c:	f884 3043 	strb.w	r3, [r4, #67]	; 0x43
 8007620:	e7a8      	b.n	8007574 <_printf_i+0x150>
 8007622:	6923      	ldr	r3, [r4, #16]
 8007624:	4632      	mov	r2, r6
 8007626:	4649      	mov	r1, r9
 8007628:	4640      	mov	r0, r8
 800762a:	47d0      	blx	sl
 800762c:	3001      	adds	r0, #1
 800762e:	d0ab      	beq.n	8007588 <_printf_i+0x164>
 8007630:	6823      	ldr	r3, [r4, #0]
 8007632:	079b      	lsls	r3, r3, #30
 8007634:	d413      	bmi.n	800765e <_printf_i+0x23a>
 8007636:	68e0      	ldr	r0, [r4, #12]
 8007638:	9b03      	ldr	r3, [sp, #12]
 800763a:	4298      	cmp	r0, r3
 800763c:	bfb8      	it	lt
 800763e:	4618      	movlt	r0, r3
 8007640:	e7a4      	b.n	800758c <_printf_i+0x168>
 8007642:	2301      	movs	r3, #1
 8007644:	4632      	mov	r2, r6
 8007646:	4649      	mov	r1, r9
 8007648:	4640      	mov	r0, r8
 800764a:	47d0      	blx	sl
 800764c:	3001      	adds	r0, #1
 800764e:	d09b      	beq.n	8007588 <_printf_i+0x164>
 8007650:	3501      	adds	r5, #1
 8007652:	68e3      	ldr	r3, [r4, #12]
 8007654:	9903      	ldr	r1, [sp, #12]
 8007656:	1a5b      	subs	r3, r3, r1
 8007658:	42ab      	cmp	r3, r5
 800765a:	dcf2      	bgt.n	8007642 <_printf_i+0x21e>
 800765c:	e7eb      	b.n	8007636 <_printf_i+0x212>
 800765e:	2500      	movs	r5, #0
 8007660:	f104 0619 	add.w	r6, r4, #25
 8007664:	e7f5      	b.n	8007652 <_printf_i+0x22e>
 8007666:	bf00      	nop
 8007668:	08008241 	.word	0x08008241
 800766c:	08008252 	.word	0x08008252

08007670 <memcpy>:
 8007670:	440a      	add	r2, r1
 8007672:	4291      	cmp	r1, r2
 8007674:	f100 33ff 	add.w	r3, r0, #4294967295
 8007678:	d100      	bne.n	800767c <memcpy+0xc>
 800767a:	4770      	bx	lr
 800767c:	b510      	push	{r4, lr}
 800767e:	f811 4b01 	ldrb.w	r4, [r1], #1
 8007682:	f803 4f01 	strb.w	r4, [r3, #1]!
 8007686:	4291      	cmp	r1, r2
 8007688:	d1f9      	bne.n	800767e <memcpy+0xe>
 800768a:	bd10      	pop	{r4, pc}

0800768c <memmove>:
 800768c:	4288      	cmp	r0, r1
 800768e:	b510      	push	{r4, lr}
 8007690:	eb01 0402 	add.w	r4, r1, r2
 8007694:	d902      	bls.n	800769c <memmove+0x10>
 8007696:	4284      	cmp	r4, r0
 8007698:	4623      	mov	r3, r4
 800769a:	d807      	bhi.n	80076ac <memmove+0x20>
 800769c:	1e43      	subs	r3, r0, #1
 800769e:	42a1      	cmp	r1, r4
 80076a0:	d008      	beq.n	80076b4 <memmove+0x28>
 80076a2:	f811 2b01 	ldrb.w	r2, [r1], #1
 80076a6:	f803 2f01 	strb.w	r2, [r3, #1]!
 80076aa:	e7f8      	b.n	800769e <memmove+0x12>
 80076ac:	4402      	add	r2, r0
 80076ae:	4601      	mov	r1, r0
 80076b0:	428a      	cmp	r2, r1
 80076b2:	d100      	bne.n	80076b6 <memmove+0x2a>
 80076b4:	bd10      	pop	{r4, pc}
 80076b6:	f813 4d01 	ldrb.w	r4, [r3, #-1]!
 80076ba:	f802 4d01 	strb.w	r4, [r2, #-1]!
 80076be:	e7f7      	b.n	80076b0 <memmove+0x24>

080076c0 <_free_r>:
 80076c0:	b537      	push	{r0, r1, r2, r4, r5, lr}
 80076c2:	2900      	cmp	r1, #0
 80076c4:	d048      	beq.n	8007758 <_free_r+0x98>
 80076c6:	f851 3c04 	ldr.w	r3, [r1, #-4]
 80076ca:	9001      	str	r0, [sp, #4]
 80076cc:	2b00      	cmp	r3, #0
 80076ce:	f1a1 0404 	sub.w	r4, r1, #4
 80076d2:	bfb8      	it	lt
 80076d4:	18e4      	addlt	r4, r4, r3
 80076d6:	f000 f8d3 	bl	8007880 <__malloc_lock>
 80076da:	4a20      	ldr	r2, [pc, #128]	; (800775c <_free_r+0x9c>)
 80076dc:	9801      	ldr	r0, [sp, #4]
 80076de:	6813      	ldr	r3, [r2, #0]
 80076e0:	4615      	mov	r5, r2
 80076e2:	b933      	cbnz	r3, 80076f2 <_free_r+0x32>
 80076e4:	6063      	str	r3, [r4, #4]
 80076e6:	6014      	str	r4, [r2, #0]
 80076e8:	b003      	add	sp, #12
 80076ea:	e8bd 4030 	ldmia.w	sp!, {r4, r5, lr}
 80076ee:	f000 b8cd 	b.w	800788c <__malloc_unlock>
 80076f2:	42a3      	cmp	r3, r4
 80076f4:	d90b      	bls.n	800770e <_free_r+0x4e>
 80076f6:	6821      	ldr	r1, [r4, #0]
 80076f8:	1862      	adds	r2, r4, r1
 80076fa:	4293      	cmp	r3, r2
 80076fc:	bf04      	itt	eq
 80076fe:	681a      	ldreq	r2, [r3, #0]
 8007700:	685b      	ldreq	r3, [r3, #4]
 8007702:	6063      	str	r3, [r4, #4]
 8007704:	bf04      	itt	eq
 8007706:	1852      	addeq	r2, r2, r1
 8007708:	6022      	streq	r2, [r4, #0]
 800770a:	602c      	str	r4, [r5, #0]
 800770c:	e7ec      	b.n	80076e8 <_free_r+0x28>
 800770e:	461a      	mov	r2, r3
 8007710:	685b      	ldr	r3, [r3, #4]
 8007712:	b10b      	cbz	r3, 8007718 <_free_r+0x58>
 8007714:	42a3      	cmp	r3, r4
 8007716:	d9fa      	bls.n	800770e <_free_r+0x4e>
 8007718:	6811      	ldr	r1, [r2, #0]
 800771a:	1855      	adds	r5, r2, r1
 800771c:	42a5      	cmp	r5, r4
 800771e:	d10b      	bne.n	8007738 <_free_r+0x78>
 8007720:	6824      	ldr	r4, [r4, #0]
 8007722:	4421      	add	r1, r4
 8007724:	1854      	adds	r4, r2, r1
 8007726:	42a3      	cmp	r3, r4
 8007728:	6011      	str	r1, [r2, #0]
 800772a:	d1dd      	bne.n	80076e8 <_free_r+0x28>
 800772c:	681c      	ldr	r4, [r3, #0]
 800772e:	685b      	ldr	r3, [r3, #4]
 8007730:	6053      	str	r3, [r2, #4]
 8007732:	4421      	add	r1, r4
 8007734:	6011      	str	r1, [r2, #0]
 8007736:	e7d7      	b.n	80076e8 <_free_r+0x28>
 8007738:	d902      	bls.n	8007740 <_free_r+0x80>
 800773a:	230c      	movs	r3, #12
 800773c:	6003      	str	r3, [r0, #0]
 800773e:	e7d3      	b.n	80076e8 <_free_r+0x28>
 8007740:	6825      	ldr	r5, [r4, #0]
 8007742:	1961      	adds	r1, r4, r5
 8007744:	428b      	cmp	r3, r1
 8007746:	bf04      	itt	eq
 8007748:	6819      	ldreq	r1, [r3, #0]
 800774a:	685b      	ldreq	r3, [r3, #4]
 800774c:	6063      	str	r3, [r4, #4]
 800774e:	bf04      	itt	eq
 8007750:	1949      	addeq	r1, r1, r5
 8007752:	6021      	streq	r1, [r4, #0]
 8007754:	6054      	str	r4, [r2, #4]
 8007756:	e7c7      	b.n	80076e8 <_free_r+0x28>
 8007758:	b003      	add	sp, #12
 800775a:	bd30      	pop	{r4, r5, pc}
 800775c:	200016b0 	.word	0x200016b0

08007760 <_malloc_r>:
 8007760:	b5f8      	push	{r3, r4, r5, r6, r7, lr}
 8007762:	1ccd      	adds	r5, r1, #3
 8007764:	f025 0503 	bic.w	r5, r5, #3
 8007768:	3508      	adds	r5, #8
 800776a:	2d0c      	cmp	r5, #12
 800776c:	bf38      	it	cc
 800776e:	250c      	movcc	r5, #12
 8007770:	2d00      	cmp	r5, #0
 8007772:	4606      	mov	r6, r0
 8007774:	db01      	blt.n	800777a <_malloc_r+0x1a>
 8007776:	42a9      	cmp	r1, r5
 8007778:	d903      	bls.n	8007782 <_malloc_r+0x22>
 800777a:	230c      	movs	r3, #12
 800777c:	6033      	str	r3, [r6, #0]
 800777e:	2000      	movs	r0, #0
 8007780:	bdf8      	pop	{r3, r4, r5, r6, r7, pc}
 8007782:	f000 f87d 	bl	8007880 <__malloc_lock>
 8007786:	4921      	ldr	r1, [pc, #132]	; (800780c <_malloc_r+0xac>)
 8007788:	680a      	ldr	r2, [r1, #0]
 800778a:	4614      	mov	r4, r2
 800778c:	b99c      	cbnz	r4, 80077b6 <_malloc_r+0x56>
 800778e:	4f20      	ldr	r7, [pc, #128]	; (8007810 <_malloc_r+0xb0>)
 8007790:	683b      	ldr	r3, [r7, #0]
 8007792:	b923      	cbnz	r3, 800779e <_malloc_r+0x3e>
 8007794:	4621      	mov	r1, r4
 8007796:	4630      	mov	r0, r6
 8007798:	f000 f862 	bl	8007860 <_sbrk_r>
 800779c:	6038      	str	r0, [r7, #0]
 800779e:	4629      	mov	r1, r5
 80077a0:	4630      	mov	r0, r6
 80077a2:	f000 f85d 	bl	8007860 <_sbrk_r>
 80077a6:	1c43      	adds	r3, r0, #1
 80077a8:	d123      	bne.n	80077f2 <_malloc_r+0x92>
 80077aa:	230c      	movs	r3, #12
 80077ac:	6033      	str	r3, [r6, #0]
 80077ae:	4630      	mov	r0, r6
 80077b0:	f000 f86c 	bl	800788c <__malloc_unlock>
 80077b4:	e7e3      	b.n	800777e <_malloc_r+0x1e>
 80077b6:	6823      	ldr	r3, [r4, #0]
 80077b8:	1b5b      	subs	r3, r3, r5
 80077ba:	d417      	bmi.n	80077ec <_malloc_r+0x8c>
 80077bc:	2b0b      	cmp	r3, #11
 80077be:	d903      	bls.n	80077c8 <_malloc_r+0x68>
 80077c0:	6023      	str	r3, [r4, #0]
 80077c2:	441c      	add	r4, r3
 80077c4:	6025      	str	r5, [r4, #0]
 80077c6:	e004      	b.n	80077d2 <_malloc_r+0x72>
 80077c8:	6863      	ldr	r3, [r4, #4]
 80077ca:	42a2      	cmp	r2, r4
 80077cc:	bf0c      	ite	eq
 80077ce:	600b      	streq	r3, [r1, #0]
 80077d0:	6053      	strne	r3, [r2, #4]
 80077d2:	4630      	mov	r0, r6
 80077d4:	f000 f85a 	bl	800788c <__malloc_unlock>
 80077d8:	f104 000b 	add.w	r0, r4, #11
 80077dc:	1d23      	adds	r3, r4, #4
 80077de:	f020 0007 	bic.w	r0, r0, #7
 80077e2:	1ac2      	subs	r2, r0, r3
 80077e4:	d0cc      	beq.n	8007780 <_malloc_r+0x20>
 80077e6:	1a1b      	subs	r3, r3, r0
 80077e8:	50a3      	str	r3, [r4, r2]
 80077ea:	e7c9      	b.n	8007780 <_malloc_r+0x20>
 80077ec:	4622      	mov	r2, r4
 80077ee:	6864      	ldr	r4, [r4, #4]
 80077f0:	e7cc      	b.n	800778c <_malloc_r+0x2c>
 80077f2:	1cc4      	adds	r4, r0, #3
 80077f4:	f024 0403 	bic.w	r4, r4, #3
 80077f8:	42a0      	cmp	r0, r4
 80077fa:	d0e3      	beq.n	80077c4 <_malloc_r+0x64>
 80077fc:	1a21      	subs	r1, r4, r0
 80077fe:	4630      	mov	r0, r6
 8007800:	f000 f82e 	bl	8007860 <_sbrk_r>
 8007804:	3001      	adds	r0, #1
 8007806:	d1dd      	bne.n	80077c4 <_malloc_r+0x64>
 8007808:	e7cf      	b.n	80077aa <_malloc_r+0x4a>
 800780a:	bf00      	nop
 800780c:	200016b0 	.word	0x200016b0
 8007810:	200016b4 	.word	0x200016b4

08007814 <_realloc_r>:
 8007814:	b5f8      	push	{r3, r4, r5, r6, r7, lr}
 8007816:	4607      	mov	r7, r0
 8007818:	4614      	mov	r4, r2
 800781a:	460e      	mov	r6, r1
 800781c:	b921      	cbnz	r1, 8007828 <_realloc_r+0x14>
 800781e:	e8bd 40f8 	ldmia.w	sp!, {r3, r4, r5, r6, r7, lr}
 8007822:	4611      	mov	r1, r2
 8007824:	f7ff bf9c 	b.w	8007760 <_malloc_r>
 8007828:	b922      	cbnz	r2, 8007834 <_realloc_r+0x20>
 800782a:	f7ff ff49 	bl	80076c0 <_free_r>
 800782e:	4625      	mov	r5, r4
 8007830:	4628      	mov	r0, r5
 8007832:	bdf8      	pop	{r3, r4, r5, r6, r7, pc}
 8007834:	f000 f830 	bl	8007898 <_malloc_usable_size_r>
 8007838:	42a0      	cmp	r0, r4
 800783a:	d20f      	bcs.n	800785c <_realloc_r+0x48>
 800783c:	4621      	mov	r1, r4
 800783e:	4638      	mov	r0, r7
 8007840:	f7ff ff8e 	bl	8007760 <_malloc_r>
 8007844:	4605      	mov	r5, r0
 8007846:	2800      	cmp	r0, #0
 8007848:	d0f2      	beq.n	8007830 <_realloc_r+0x1c>
 800784a:	4631      	mov	r1, r6
 800784c:	4622      	mov	r2, r4
 800784e:	f7ff ff0f 	bl	8007670 <memcpy>
 8007852:	4631      	mov	r1, r6
 8007854:	4638      	mov	r0, r7
 8007856:	f7ff ff33 	bl	80076c0 <_free_r>
 800785a:	e7e9      	b.n	8007830 <_realloc_r+0x1c>
 800785c:	4635      	mov	r5, r6
 800785e:	e7e7      	b.n	8007830 <_realloc_r+0x1c>

08007860 <_sbrk_r>:
 8007860:	b538      	push	{r3, r4, r5, lr}
 8007862:	4d06      	ldr	r5, [pc, #24]	; (800787c <_sbrk_r+0x1c>)
 8007864:	2300      	movs	r3, #0
 8007866:	4604      	mov	r4, r0
 8007868:	4608      	mov	r0, r1
 800786a:	602b      	str	r3, [r5, #0]
 800786c:	f7f9 f998 	bl	8000ba0 <_sbrk>
 8007870:	1c43      	adds	r3, r0, #1
 8007872:	d102      	bne.n	800787a <_sbrk_r+0x1a>
 8007874:	682b      	ldr	r3, [r5, #0]
 8007876:	b103      	cbz	r3, 800787a <_sbrk_r+0x1a>
 8007878:	6023      	str	r3, [r4, #0]
 800787a:	bd38      	pop	{r3, r4, r5, pc}
 800787c:	200016c4 	.word	0x200016c4

08007880 <__malloc_lock>:
 8007880:	4801      	ldr	r0, [pc, #4]	; (8007888 <__malloc_lock+0x8>)
 8007882:	f000 b811 	b.w	80078a8 <__retarget_lock_acquire_recursive>
 8007886:	bf00      	nop
 8007888:	200016cc 	.word	0x200016cc

0800788c <__malloc_unlock>:
 800788c:	4801      	ldr	r0, [pc, #4]	; (8007894 <__malloc_unlock+0x8>)
 800788e:	f000 b80c 	b.w	80078aa <__retarget_lock_release_recursive>
 8007892:	bf00      	nop
 8007894:	200016cc 	.word	0x200016cc

08007898 <_malloc_usable_size_r>:
 8007898:	f851 3c04 	ldr.w	r3, [r1, #-4]
 800789c:	1f18      	subs	r0, r3, #4
 800789e:	2b00      	cmp	r3, #0
 80078a0:	bfbc      	itt	lt
 80078a2:	580b      	ldrlt	r3, [r1, r0]
 80078a4:	18c0      	addlt	r0, r0, r3
 80078a6:	4770      	bx	lr

080078a8 <__retarget_lock_acquire_recursive>:
 80078a8:	4770      	bx	lr

080078aa <__retarget_lock_release_recursive>:
 80078aa:	4770      	bx	lr

080078ac <_init>:
 80078ac:	b5f8      	push	{r3, r4, r5, r6, r7, lr}
 80078ae:	bf00      	nop
 80078b0:	bcf8      	pop	{r3, r4, r5, r6, r7}
 80078b2:	bc08      	pop	{r3}
 80078b4:	469e      	mov	lr, r3
 80078b6:	4770      	bx	lr

080078b8 <_fini>:
 80078b8:	b5f8      	push	{r3, r4, r5, r6, r7, lr}
 80078ba:	bf00      	nop
 80078bc:	bcf8      	pop	{r3, r4, r5, r6, r7}
 80078be:	bc08      	pop	{r3}
 80078c0:	469e      	mov	lr, r3
 80078c2:	4770      	bx	lr
